(lp0
(dp1
S'iterationMax'
p2
I50
sS'CPU_Time'
p3
ccopy_reg
_reconstructor
p4
(cpsutil._pslinux
scputimes
p5
c__builtin__
tuple
p6
(F11315580.99
F817.16
F1282318.02
F239099537.99
F23244.24
F0.0
F1257.84
F0.0
F0.0
F0.0
tp7
tp8
Rp9
sS'itemsCounts'
p10
I10
sS'memory_usage'
p11
I176541696
sS'generatedDataNumber'
p12
I100
sS'typeSelectionMode'
p13
S'AS'
p14
sS'simHeight'
p15
I10
sS'mcts_mode'
p16
S'UCTH'
p17
sS'endTime'
p18
F1547573127.415638
sS'reuseTree'
p19
S'False'
p20
sS'beginTime'
p21
F1547573064.622686
sS'PF_add_threshold'
p22
F0.9
sS'PF_weight'
p23
F1.2
sS'timeSteps'
p24
I31
sS'agentsCounts'
p25
I2
sS'simWidth'
p26
I10
sS'estimationMode'
p27
S'ABU'
p28
sS'maxDepth'
p29
I50
sa(dp30
I0
(dp31
S'l2TypeProbHistory'
p32
(lp33
F0.25
aF0.5
aF0.5
aF0.5
aF0.5
aF0.5
aF0.5
aF0.5
aF0.5
aF0.5
aF0.5
aF0.5
aF0.5
aF0.5
aF0.5
aF0.5
aF0.5
aF0.010309278350515465
aF0.010309278350515465
aF0.010309278350515465
aF0.010309278350515465
aF0.010309278350515465
aF0.010309278350515465
aF0.010309278350515465
aF0.010309278350515465
aF0.010309278350515465
aF0.010309278350515465
aF0.010309278350515465
aF0.010309278350515465
aF0.010309278350515465
aF0.010309278350515465
aF0.010309278350515465
asS'maxProbability'
p34
S'l1'
p35
sS'l1EstimationHistory'
p36
S'[[0.16,0.64,0.25],[0.4923763280603327,0.5971804170997498,0.5511098869144917],[0.38683795841106133,0.4752030596417621,0.6987871289253235],[0.5468469304320778,0.6290004372775586,0.4803333833813667],[0.5078342354543253,0.5787795032310344,0.5503979701418332],[0.6972212136327338,0.44831336584039255,0.628654993647405],[0.3774411755893873,0.6028759961503045,0.556032299835154],[0.5551946378015917,0.5338065572949734,0.5009881304535017],[0.44013684719275936,0.5286478294389063,0.7026188636078394],[0.4923705838406394,0.4475942957420358,0.5044578328621271],[0.46148572439216506,0.5498799294398424,0.6155734120001635],[0.34342937489334774,0.6486595930599052,0.579264982738709],[0.4489794010461733,0.3842704174961316,0.6191568907648468],[0.5602812101994055,0.44549673898520414,0.6322454851726029],[0.36977915798988015,0.529465035013748,0.6112264350000454],[0.4075533012401559,0.6158126712989631,0.43684341894829853],[0.488298792539043,0.6263695089871513,0.539971987398714],[0.5084534637862939,0.5614190056725021,0.5346256506577285],[0.5921159581707404,0.6270113112077206,0.5854170695649082],[0.6356828854084325,0.6846992908145969,0.5696797563193731],[0.5538968434995589,0.6020992446697262,0.4811940608392439],[0.6009226860686446,0.6382166094922688,0.5266422245129773],[0.5924931508367641,0.5651356917995529,0.5347505410214648],[0.4631076589670262,0.4986780198003209,0.5489190877136237],[0.5153833512307998,0.41103029051994044,0.6616521120343731],[0.6051801777925838,0.39899066501600905,0.5092652082741258],[0.6190991468361168,0.5318664775264293,0.4886975413114293],[0.5657248076714326,0.3860540815698618,0.6021103719110426],[0.40393351551848095,0.4512176894389883,0.5391227933005299],[0.5458948743761998,0.5617435713409341,0.5036268059305967],[0.43092858863337336,0.6880223803507778,0.6145877347287095],[0.5067432222525434,0.5981797592153646,0.4223366054367224]]'
p37
sS'trueType'
p38
S'l1'
p39
sS'f1TypeProbHistory'
p40
(lp41
F0.25
aF0.0
aF0.0
aF0.0
aF0.0
aF0.0
aF0.0
aF0.0
aF0.0
aF0.0
aF0.0
aF0.0
aF0.0
aF0.0
aF0.0
aF0.0
aF0.0
aF0.0
aF0.0
aF0.0
aF0.0
aF0.0
aF0.0
aF0.0
aF0.0
aF0.0
aF0.0
aF0.0
aF0.0
aF0.0
aF0.0
aF0.0
asS'f2TypeProbHistory'
p42
(lp43
F0.25
aF0.0
aF0.0
aF0.0
aF0.0
aF0.0
aF0.0
aF0.0
aF0.0
aF0.0
aF0.0
aF0.0
aF0.0
aF0.0
aF0.0
aF0.0
aF0.0
aF0.0
aF0.0
aF0.0
aF0.0
aF0.0
aF0.0
aF0.0
aF0.0
aF0.0
aF0.0
aF0.0
aF0.0
aF0.0
aF0.0
aF0.0
asS'l2EstimationHistory'
p44
S'[[0.45,0.58,0.15],[0.466356977546255,0.574667651951313,0.5393306127565022],[0.5487705499352544,0.5506264750312703,0.7408268432698419],[0.5441419188985228,0.4484197416406447,0.5352233558239033],[0.4352913318579784,0.4872347584644576,0.5517681909013911],[0.3997831970573768,0.6138655640965911,0.4931814744543068],[0.4791175269118536,0.5667504331588236,0.6065218805225773],[0.49598344875509354,0.542550592679973,0.601780632135827],[0.47299753261155847,0.5930394094414286,0.3929612271571189],[0.4527265629682876,0.7345241223778738,0.7594393807031893],[0.5865861552683806,0.5285752426159621,0.5154846976187766],[0.55547908073054,0.43200654762562757,0.45216725849847006],[0.4597224427874088,0.596568938178011,0.5958274452351435],[0.4769931835039748,0.3561577399896199,0.6557521927099768],[0.5252041964222325,0.5310314866683902,0.550134634965746],[0.46871945536480525,0.7229589003765826,0.5630339604165765],[0.5170165452659973,0.4945768628423754,0.49401934892436783],[0.36254361835047233,0.5516688400327572,0.5886011393420966],[0.47655714146349987,0.6084512420467364,0.4255148123672895],[0.6104572026017092,0.5801512797939968,0.4888891624974434],[0.5977954014706053,0.3622570048029212,0.48533755378907245],[0.5030058116398931,0.5279669933985748,0.6257081865068529],[0.47291509856552116,0.5445557053932886,0.5445021723287166],[0.3846169124077837,0.548712458680028,0.46887394461395215],[0.5619757546185639,0.5448003513853511,0.5068484110156188],[0.5057404775697459,0.6160267868610607,0.5034203325199968],[0.5245939273045874,0.509837202491191,0.6390358107855911],[0.2690453861593921,0.571381471172529,0.5255257247053785],[0.48399298429280674,0.5606765665227262,0.5373473129985619],[0.3593166749217721,0.5645398970789297,0.7141017608960382],[0.4352859596042934,0.6175275632284529,0.6990405554148877],[0.5222924657922131,0.7036811704815484,0.6595390196815932]]'
p45
sS'f1EstimationHistory'
p46
S'[[0.49,0.62,0.66]]'
p47
sS'trueParameters'
p48
(lp49
F0.155
aF0.968
aF0.683
asS'f2EstimationHistory'
p50
S'[[0.41,0.7,0.46]]'
p51
sS'l1TypeProbHistory'
p52
(lp53
F0.25
aF0.5
aF0.5
aF0.5
aF0.5
aF0.5
aF0.5
aF0.5
aF0.5
aF0.5
aF0.5
aF0.5
aF0.5
aF0.5
aF0.5
aF0.5
aF0.5
aF0.9896907216494846
aF0.9896907216494846
aF0.9896907216494846
aF0.9896907216494846
aF0.9896907216494846
aF0.9896907216494846
aF0.9896907216494846
aF0.9896907216494846
aF0.9896907216494846
aF0.9896907216494846
aF0.9896907216494846
aF0.9896907216494846
aF0.9896907216494846
aF0.9896907216494846
aF0.9896907216494846
assI1
(dp54
g32
(lp55
F0.25
aF0.9896907216494846
aF0.9896907216494846
aF0.9896907216494846
aF0.9896907216494846
aF0.9998915048280351
aF0.9896907216494845
aF0.4999999999999999
aF0.5
aF0.49999999999999994
aF0.5
aF0.49999999999999994
aF0.5
aF0.49999999999999994
aF0.5
aF0.49999999999999994
aF0.49999999999999994
aF0.49999999999999994
aF0.5
aF0.4999999999999999
aF0.4999999999999999
aF0.4999999999999999
aF0.4999999999999999
aF0.4999999999999999
aF0.4999999999999999
aF0.4999999999999999
aF0.4999999999999999
aF0.4999999999999999
aF0.4999999999999999
aF0.4999999999999999
aF0.4999999999999999
aF0.17241379310344826
asg34
g35
sg36
S'[[0.27,0.99,0.67],[0.5720672696966361,0.46012025307805915,0.4797294080257416],[0.5670131967804997,0.4991240345514208,0.5106827954494134],[0.5006927509336874,0.48575111578293645,0.5233225607846274],[0.5153998928302775,0.6361199114383699,0.44225022479134457],[0.4325026959878082,0.48767703180898947,0.5128050785033718],[0.4209809493125861,0.5712985812981622,0.6100228848090863],[0.7372587707690686,0.6577379675892899,0.6250473370854446],[0.4274309352430956,0.5531614335628781,0.5700469085104344],[0.46379556705726416,0.45436238076325675,0.5987789426372985],[0.6016377562750108,0.5862118962476701,0.7187930276833391],[0.6243945332951093,0.7038193112893916,0.5677761953877933],[0.6307197791967056,0.6550468650780934,0.35194649344626705],[0.4557587918453575,0.5314085199995144,0.7431009890847704],[0.32215351485363997,0.5198440029671147,0.5541528885786056],[0.5027212214119348,0.5514944583585111,0.5862158531870637],[0.394997516107262,0.4892539053698379,0.54443814031036],[0.5150234727359126,0.5428340882932418,0.5956996428950363],[0.3369573403811829,0.5171060280190514,0.4788554687220171],[0.31982369588836973,0.5911439143317356,0.52503703220126],[0.31874902184289666,0.4787477858126212,0.49994659923531815],[0.5043427686095717,0.5251109141797716,0.45301716695367567],[0.42918552164213447,0.5221313431040892,0.4777331156540946],[0.5564076345719686,0.6365585129694671,0.5426482086823071],[0.4911179191577658,0.5305923313568901,0.7574148922736257],[0.608965844871111,0.5189506406605813,0.4981207533704943],[0.6287413000778742,0.6493703066175971,0.5224805404036094],[0.412695088728407,0.7468895536969758,0.4790265180714969],[0.4846057617087002,0.6116907481326135,0.5616029076558677],[0.4124327222935776,0.5573928096964553,0.5882073178304822],[0.5398958443029167,0.5396340190110096,0.386523916687294],[0.48653152299340946,0.5220824811427416,0.6811187295670411]]'
p56
sg38
S'l2'
p57
sg40
(lp58
F0.25
aF0.0
aF0.0
aF0.0
aF0.0
aF0.0
aF0.0
aF0.0
aF0.0
aF0.0
aF0.0
aF0.0
aF0.0
aF0.0
aF0.0
aF0.0
aF0.0
aF0.0
aF0.0
aF0.0
aF0.0
aF0.0
aF0.0
aF0.0
aF0.0
aF0.0
aF0.0
aF0.0
aF0.0
aF0.0
aF0.0
aF0.0
asg42
(lp59
F0.25
aF0.0
aF0.0
aF0.0
aF0.0
aF0.0
aF0.0
aF0.0
aF0.0
aF0.0
aF0.0
aF0.0
aF0.0
aF0.0
aF0.0
aF0.0
aF0.0
aF0.0
aF0.0
aF0.0
aF0.0
aF0.0
aF0.0
aF0.0
aF0.0
aF0.0
aF0.0
aF0.0
aF0.0
aF0.0
aF0.0
aF0.0
asg44
S'[[0.74,0.38,0.78],[0.5332705778300562,0.46918085560892797,0.5717291116714478],[0.48288548690322586,0.6033624484502521,0.6148419501116548],[0.5131433780495592,0.6249120674096098,0.5717989211233389],[0.47633865851105756,0.5163420870768558,0.5842779278630928],[0.44543250474088864,0.5067262138070945,0.542785426591297],[0.5248187029796736,0.561774863953356,0.5034388591236795],[0.5238171606006122,0.46168385528405176,0.482896112500379],[0.5654763407422934,0.5268916196259905,0.6535209294380155],[0.4210132458956292,0.615203740403187,0.5339646239669982],[0.5594172451407362,0.6224353981213753,0.3895347098462322],[0.4151595890403453,0.42118812368143627,0.5615981024984251],[0.5147862113832461,0.5406996002063427,0.5267861012544912],[0.4232178991613259,0.5395659819268681,0.6164245433004685],[0.5110241202395857,0.6339155737042861,0.6126280267921772],[0.5263953369659135,0.6165239395563609,0.5398274923778679],[0.56088979672917,0.6363552835027025,0.6448137126031455],[0.5978522640506817,0.501223969055607,0.6553087685688748],[0.40537561797957966,0.48226058070440914,0.5459924234397282],[0.5492824671560343,0.46691943974517275,0.5827068643812745],[0.5077213227450583,0.5856599289551508,0.560812871943111],[0.520633471773343,0.5152488828485039,0.5189708782212625],[0.3496005319255028,0.5119508460889403,0.5409602660898719],[0.5270375161954008,0.48261851489490243,0.6104373261799209],[0.6433404012155828,0.5030906351362218,0.6314796151321123],[0.3132984072965629,0.5691954133344425,0.46146029327637955],[0.45352324049376325,0.6070612053996419,0.37083802193848503],[0.4086548564135568,0.589455668882884,0.5448012855112044],[0.5147026310667524,0.43910541632935995,0.49806250420111164],[0.3687620764293557,0.6384508116692521,0.48863588553573534],[0.6436100321133966,0.5643460450972764,0.6049826655761897],[0.34663595058350716,0.5358343333788044,0.452225696757368]]'
p60
sg46
S'[[0.38,0.37,0.46]]'
p61
sg48
(lp62
F0.954
aF0.73
aF0.433
asg50
S'[[0.1,0.55,0.91]]'
p63
sg52
(lp64
F0.25
aF0.010309278350515465
aF0.010309278350515465
aF0.010309278350515465
aF0.010309278350515465
aF0.00010849517196484758
aF0.010309278350515465
aF0.5
aF0.5000000000000001
aF0.5
aF0.5000000000000001
aF0.5
aF0.5000000000000001
aF0.5
aF0.5000000000000001
aF0.5
aF0.5
aF0.5
aF0.5000000000000001
aF0.5
aF0.5
aF0.5
aF0.5
aF0.5
aF0.5
aF0.5
aF0.5
aF0.5
aF0.5
aF0.5
aF0.5
aF0.8275862068965517
assa.