(lp0
(dp1
S'iterationMax'
p2
I50
sS'CPU_Time'
p3
ccopy_reg
_reconstructor
p4
(cpsutil._pslinux
scputimes
p5
c__builtin__
tuple
p6
(F13722448.05
F1475.82
F571189.62
F237359281.75
F6911.23
F0.0
F1822.21
F0.0
F0.0
F0.0
tp7
tp8
Rp9
sS'itemsCounts'
p10
I10
sS'memory_usage'
p11
I229539840
sS'generatedDataNumber'
p12
I100
sS'typeSelectionMode'
p13
S'AS'
p14
sS'simHeight'
p15
I10
sS'mcts_mode'
p16
S'UCTH'
p17
sS'endTime'
p18
F1547571245.698683
sS'reuseTree'
p19
S'False'
p20
sS'beginTime'
p21
F1547571166.504922
sS'PF_add_threshold'
p22
F0.9
sS'PF_weight'
p23
F1.2
sS'timeSteps'
p24
I54
sS'agentsCounts'
p25
I2
sS'simWidth'
p26
I10
sS'estimationMode'
p27
S'AGA'
p28
sS'maxDepth'
p29
I50
sa(dp30
I0
(dp31
S'l2TypeProbHistory'
p32
(lp33
F0.25
aF0.5
aF0.010309278350515465
aF0.5
aF0.9896907216494846
aF0.9998915048280351
aF0.9998915048280352
aF0.9896907216494845
aF0.9896907216494846
aF0.9998915048280351
aF0.9999988697206061
aF0.9999999882262431
aF0.9999999998773567
aF0.9999999999987225
aF0.9999999999999868
aF0.9999999999999999
aF0.9999999999999999
aF0.9999999999999999
aF0.9999999999999999
aF0.9999999999999999
aF0.9999999999999999
aF0.9999999999999999
aF0.9999999999999999
aF0.9999999999999999
aF0.9999999999999999
aF0.9999999999999999
aF1.0
aF1.0
aF1.0
aF1.0
aF1.0
aF1.0
aF1.0
aF1.0
aF1.0
aF1.0
aF1.0
aF1.0
aF1.0
aF1.0
aF1.0
aF1.0
aF1.0
aF1.0
aF1.0
aF1.0
aF1.0
aF1.0
aF1.0
aF1.0
aF1.0
aF1.0
aF1.0
aF1.0
aF1.0
asS'maxProbability'
p34
S'l2'
p35
sS'l1EstimationHistory'
p36
S'[[0.85,0.27,0.76],[0.85,0.2700000000000001,0.76],[0.85,0.27000000000000013,0.76],[0.85,0.2700000000000002,0.76],[0.85,0.27000000000000024,0.76],[0.85,0.2700000000000003,0.76],[0.85,0.27000000000000035,0.76],[0.85,0.2700000000000004,0.76],[0.85,0.27000000000000046,0.76],[0.85,0.2700000000000005,0.76],[0.85,0.2700000000000006,0.76],[0.85,0.27000000000000063,0.76],[0.85,0.2700000000000007,0.76],[0.85,0.27000000000000074,0.76],[0.85,0.2700000000000008,0.76],[0.85,0.27000000000000085,0.76],[0.85,0.2700000000000009,0.76],[0.85,0.27000000000000096,0.76],[0.85,0.270000000000001,0.76],[0.85,0.2700000000000011,0.76],[0.85,0.27000000000000113,0.76],[0.85,0.2700000000000012,0.76],[0.85,0.27000000000000124,0.76],[0.85,0.2700000000000013,0.76],[0.85,0.27000000000000135,0.76],[0.85,0.2700000000000014,0.76],[0.85,0.27000000000000146,0.76],[0.85,0.2700000000000015,0.76],[0.85,0.27000000000000157,0.76],[0.85,0.2700000000000016,0.76],[0.85,0.2700000000000017,0.76],[0.85,0.27000000000000174,0.76],[0.85,0.2700000000000018,0.76],[0.85,0.27000000000000185,0.76],[0.85,0.2700000000000019,0.76],[0.85,0.27000000000000196,0.76],[0.85,0.270000000000002,0.76],[0.85,0.27000000000000207,0.76],[0.85,0.2700000000000021,0.76],[0.85,0.2700000000000022,0.76],[0.85,0.27000000000000224,0.76],[0.85,0.2700000000000023,0.76],[0.85,0.27000000000000235,0.76],[0.85,0.2700000000000024,0.76],[0.85,0.27000000000000246,0.76],[0.85,0.2700000000000025,0.76],[0.85,0.27000000000000257,0.76],[0.85,0.2700000000000026,0.76],[0.85,0.2700000000000027,0.76],[0.85,0.27000000000000274,0.76],[0.85,0.2700000000000028,0.76],[0.85,0.27000000000000285,0.76],[0.85,0.2700000000000029,0.76],[0.85,0.27000000000000296,0.76],[0.85,0.270000000000003,0.76]]'
p37
sS'trueType'
p38
S'l1'
p39
sS'f1TypeProbHistory'
p40
(lp41
F0.25
aF0.0
aF0.0
aF0.0
aF0.0
aF0.0
aF0.0
aF0.0
aF0.0
aF0.0
aF0.0
aF0.0
aF0.0
aF0.0
aF0.0
aF0.0
aF0.0
aF0.0
aF0.0
aF0.0
aF0.0
aF0.0
aF0.0
aF0.0
aF0.0
aF0.0
aF0.0
aF0.0
aF0.0
aF0.0
aF0.0
aF0.0
aF0.0
aF0.0
aF0.0
aF0.0
aF0.0
aF0.0
aF0.0
aF0.0
aF0.0
aF0.0
aF0.0
aF0.0
aF0.0
aF0.0
aF0.0
aF0.0
aF0.0
aF0.0
aF0.0
aF0.0
aF0.0
aF0.0
aF0.0
asS'f2TypeProbHistory'
p42
(lp43
F0.25
aF0.0
aF0.0
aF0.0
aF0.0
aF0.0
aF0.0
aF0.0
aF0.0
aF0.0
aF0.0
aF0.0
aF0.0
aF0.0
aF0.0
aF0.0
aF0.0
aF0.0
aF0.0
aF0.0
aF0.0
aF0.0
aF0.0
aF0.0
aF0.0
aF0.0
aF0.0
aF0.0
aF0.0
aF0.0
aF0.0
aF0.0
aF0.0
aF0.0
aF0.0
aF0.0
aF0.0
aF0.0
aF0.0
aF0.0
aF0.0
aF0.0
aF0.0
aF0.0
aF0.0
aF0.0
aF0.0
aF0.0
aF0.0
aF0.0
aF0.0
aF0.0
aF0.0
aF0.0
aF0.0
asS'l2EstimationHistory'
p44
S'[[0.07,0.44,0.51],[0.07,0.44,0.51],[0.07,0.44,0.51],[0.07,0.44,0.51],[0.07,0.44,0.51],[0.07,0.44,0.51],[0.07,0.44,0.51],[0.07,0.44,0.51],[0.07,0.44,0.51],[0.07,0.44,0.51],[0.07,0.44,0.51],[0.07,0.44,0.51],[0.07,0.44,0.51],[0.07,0.44,0.51],[0.07,0.44,0.51],[0.07,0.44,0.51],[0.07,0.44,0.51],[0.07,0.44,0.51],[0.07,0.44,0.51],[0.07,0.44,0.51],[0.07,0.44,0.51],[0.07,0.44,0.51],[0.07,0.44,0.51],[0.07,0.44,0.51],[0.07,0.44,0.51],[0.07,0.44,0.51],[0.07,0.44,0.51],[0.07,0.44,0.51],[0.07,0.44,0.51],[0.07,0.44,0.51],[0.07,0.44,0.51],[0.07,0.44,0.51],[0.07,0.44,0.51],[0.07,0.44,0.51],[0.07,0.44,0.51],[0.07,0.44,0.51],[0.07,0.44,0.51],[0.07,0.44,0.51],[0.07,0.44,0.51],[0.07,0.44,0.51],[0.07,0.44,0.51],[0.07,0.44,0.51],[0.07,0.44,0.51],[0.07,0.44,0.51],[0.07,0.44,0.51],[0.07,0.44,0.51],[0.07,0.44,0.51],[0.07,0.44,0.51],[0.07,0.44,0.51],[0.07,0.44,0.51],[0.07,0.44,0.51],[0.07,0.44,0.51],[0.07,0.44,0.51],[0.07,0.44,0.51],[0.07,0.44,0.51]]'
p45
sS'f1EstimationHistory'
p46
S'[[0.62,0.72,0.38]]'
p47
sS'trueParameters'
p48
(lp49
F0.75
aF0.505
aF0.3
asS'f2EstimationHistory'
p50
S'[[0.97,0.34,0.35]]'
p51
sS'l1TypeProbHistory'
p52
(lp53
F0.25
aF0.5
aF0.9896907216494846
aF0.5
aF0.010309278350515465
aF0.00010849517196484758
aF0.00010849517196484759
aF0.010309278350515465
aF0.010309278350515467
aF0.00010849517196484759
aF1.1302793937633447e-06
aF1.1773756854048407e-08
aF1.2264330199193528e-10
aF1.277534395904375e-12
aF1.3307649957354065e-14
aF1.3862135372244e-16
aF1.4439724346087503e-18
aF1.5041379527174483e-20
aF1.5668103674140088e-22
aF1.632094132722926e-24
aF1.7000980549197147e-26
aF1.770935473874703e-28
aF1.8447244519528157e-30
aF1.9215879707841833e-32
aF2.0016541362335243e-34
aF2.0850563919099216e-36
aF2.085056391909922e-36
aF4.170112783819844e-35
aF4.170112783819844e-35
aF4.343867483145671e-37
aF4.5248619616100745e-39
aF4.713397876677161e-41
aF4.9097894548720436e-43
aF5.1143640154917127e-45
aF5.1143640154917127e-45
aF5.1143640154917127e-45
aF5.327462516137201e-47
aF5.549440120976252e-49
aF5.780666792683596e-51
aF6.021527909045413e-53
aF6.27242490525564e-55
aF6.533775942974625e-57
aF6.806016607265234e-59
aF7.089600632567953e-61
aF7.385000658924951e-63
aF7.692709019713492e-65
aF8.013238562201554e-67
aF8.347123502293286e-69
aF8.69492031488884e-71
aF9.057208661342542e-73
aF9.434592355565149e-75
aF9.434592355565149e-75
aF9.434592355565149e-75
aF9.43459235556515e-75
aF9.43459235556515e-75
assI1
(dp54
g32
(lp55
F0.25
aF0.5
aF0.5
aF0.5
aF0.5
aF0.5
aF0.5
aF0.5
aF0.5
aF0.5
aF0.5
aF0.5
aF0.5
aF0.5
aF0.5
aF0.5
aF0.5
aF0.5
aF0.5
aF0.5
aF0.5
aF0.5
aF0.5
aF0.5
aF0.5
aF0.5
aF0.5
aF0.5
aF0.5
aF0.5
aF0.5
aF0.5
aF0.5
aF0.5
aF0.5
aF0.5
aF0.5
aF0.5
aF0.5
aF0.5
aF0.5
aF0.5
aF0.5
aF0.5
aF0.5
aF0.5
aF0.5
aF0.5
aF0.5
aF0.5
aF0.9896907216494846
aF0.9896907216494846
aF0.9896907216494846
aF0.9896907216494846
aF0.9896907216494846
asg34
g35
sg36
S'[[0.19,0.11,0.52],[0.19,0.10999999999999999,0.52],[0.19,0.10999999999999997,0.52],[0.19,0.10999999999999996,0.52],[0.19,0.10999999999999995,0.52],[0.19,0.10999999999999993,0.52],[0.19,0.10999999999999992,0.52],[0.19,0.1099999999999999,0.52],[0.19,0.10999999999999989,0.52],[0.19,0.10999999999999988,0.52],[0.19,0.10999999999999986,0.52],[0.19,0.10999999999999985,0.52],[0.19,0.10999999999999983,0.52],[0.19,0.10999999999999982,0.52],[0.19,0.1099999999999998,0.52],[0.19,0.10999999999999979,0.52],[0.19,0.10999999999999978,0.52],[0.19,0.10999999999999976,0.52],[0.19,0.10999999999999975,0.52],[0.19,0.10999999999999974,0.52],[0.19,0.10999999999999972,0.52],[0.19,0.10999999999999971,0.52],[0.19,0.1099999999999997,0.52],[0.19,0.10999999999999968,0.52],[0.19,0.10999999999999967,0.52],[0.19,0.10999999999999965,0.52],[0.19,0.10999999999999964,0.52],[0.19,0.10999999999999963,0.52],[0.19,0.10999999999999961,0.52],[0.19,0.1099999999999996,0.52],[0.19,0.10999999999999958,0.52],[0.19,0.10999999999999957,0.52],[0.19,0.10999999999999956,0.52],[0.19,0.10999999999999954,0.52],[0.19,0.10999999999999953,0.52],[0.19,0.10999999999999951,0.52],[0.19,0.1099999999999995,0.52],[0.19,0.10999999999999949,0.52],[0.19,0.10999999999999947,0.52],[0.19,0.10999999999999946,0.52],[0.19,0.10999999999999945,0.52],[0.19,0.10999999999999943,0.52],[0.19,0.10999999999999942,0.52],[0.19,0.1099999999999994,0.52],[0.19,0.10999999999999939,0.52],[0.19,0.10999999999999938,0.52],[0.19,0.10999999999999936,0.52],[0.19,0.10999999999999935,0.52],[0.19,0.10999999999999933,0.52],[0.19,0.10999999999999932,0.52],[0.19,0.1099999999999993,0.52],[0.19,0.10999999999999929,0.52],[0.19,0.10999999999999928,0.52],[0.19,0.10999999999999927,0.52],[0.19,0.10999999999999925,0.52]]'
p56
sg38
S'l2'
p57
sg40
(lp58
F0.25
aF0.0
aF0.0
aF0.0
aF0.0
aF0.0
aF0.0
aF0.0
aF0.0
aF0.0
aF0.0
aF0.0
aF0.0
aF0.0
aF0.0
aF0.0
aF0.0
aF0.0
aF0.0
aF0.0
aF0.0
aF0.0
aF0.0
aF0.0
aF0.0
aF0.0
aF0.0
aF0.0
aF0.0
aF0.0
aF0.0
aF0.0
aF0.0
aF0.0
aF0.0
aF0.0
aF0.0
aF0.0
aF0.0
aF0.0
aF0.0
aF0.0
aF0.0
aF0.0
aF0.0
aF0.0
aF0.0
aF0.0
aF0.0
aF0.0
aF0.0
aF0.0
aF0.0
aF0.0
aF0.0
asg42
(lp59
F0.25
aF0.0
aF0.0
aF0.0
aF0.0
aF0.0
aF0.0
aF0.0
aF0.0
aF0.0
aF0.0
aF0.0
aF0.0
aF0.0
aF0.0
aF0.0
aF0.0
aF0.0
aF0.0
aF0.0
aF0.0
aF0.0
aF0.0
aF0.0
aF0.0
aF0.0
aF0.0
aF0.0
aF0.0
aF0.0
aF0.0
aF0.0
aF0.0
aF0.0
aF0.0
aF0.0
aF0.0
aF0.0
aF0.0
aF0.0
aF0.0
aF0.0
aF0.0
aF0.0
aF0.0
aF0.0
aF0.0
aF0.0
aF0.0
aF0.0
aF0.0
aF0.0
aF0.0
aF0.0
aF0.0
asg44
S'[[0.28,0.12,0.86],[0.28,0.12000000000000006,0.86],[0.28,0.12000000000000013,0.86],[0.28,0.1200000000000002,0.86],[0.28,0.12000000000000027,0.86],[0.28,0.12000000000000034,0.86],[0.28,0.12000000000000041,0.86],[0.28,0.12000000000000048,0.86],[0.28,0.12000000000000055,0.86],[0.28,0.12000000000000062,0.86],[0.28,0.12000000000000069,0.86],[0.28,0.12000000000000076,0.86],[0.28,0.12000000000000083,0.86],[0.28,0.1200000000000009,0.86],[0.28,0.12000000000000097,0.86],[0.28,0.12000000000000104,0.86],[0.28,0.1200000000000011,0.86],[0.28,0.12000000000000118,0.86],[0.28,0.12000000000000124,0.86],[0.28,0.12000000000000131,0.86],[0.28,0.12000000000000138,0.86],[0.28,0.12000000000000145,0.86],[0.28,0.12000000000000152,0.86],[0.28,0.12000000000000159,0.86],[0.28,0.12000000000000166,0.86],[0.28,0.12000000000000173,0.86],[0.28,0.1200000000000018,0.86],[0.28,0.12000000000000187,0.86],[0.28,0.12000000000000194,0.86],[0.28,0.12000000000000201,0.86],[0.28,0.12000000000000208,0.86],[0.28,0.12000000000000215,0.86],[0.28,0.12000000000000222,0.86],[0.28,0.12000000000000229,0.86],[0.28,0.12000000000000235,0.86],[0.28,0.12000000000000242,0.86],[0.28,0.1200000000000025,0.86],[0.28,0.12000000000000256,0.86],[0.28,0.12000000000000263,0.86],[0.28,0.1200000000000027,0.86],[0.28,0.12000000000000277,0.86],[0.28,0.12000000000000284,0.86],[0.28,0.12000000000000291,0.86],[0.28,0.12000000000000298,0.86],[0.28,0.12000000000000305,0.86],[0.28,0.12000000000000312,0.86],[0.28,0.12000000000000319,0.86],[0.28,0.12000000000000326,0.86],[0.28,0.12000000000000333,0.86],[0.28,0.1200000000000034,0.86],[0.28,0.12000000000000347,0.86],[0.28,0.12000000000000353,0.86],[0.28,0.1200000000000036,0.86],[0.28,0.12000000000000367,0.86],[0.28,0.12000000000000374,0.86]]'
p60
sg46
S'[[0.05,0.54,0.64]]'
p61
sg48
(lp62
F0.545
aF0.721
aF0.908
asg50
S'[[0.57,0.8,0.86]]'
p63
sg52
(lp64
F0.25
aF0.5
aF0.5
aF0.5
aF0.5
aF0.5
aF0.5
aF0.5
aF0.5
aF0.5
aF0.5
aF0.5
aF0.5
aF0.5
aF0.5
aF0.5
aF0.5
aF0.5
aF0.5
aF0.5
aF0.5
aF0.5
aF0.5
aF0.5
aF0.5
aF0.5
aF0.5
aF0.5
aF0.5
aF0.5
aF0.5
aF0.5
aF0.5
aF0.5
aF0.5
aF0.5
aF0.5
aF0.5
aF0.5
aF0.5
aF0.5
aF0.5
aF0.5
aF0.5
aF0.5
aF0.5
aF0.5
aF0.5
aF0.5
aF0.5
aF0.010309278350515465
aF0.010309278350515465
aF0.010309278350515465
aF0.010309278350515465
aF0.010309278350515465
assa.