(lp0
(dp1
S'iterationMax'
p2
I100
sS'CPU_Time'
p3
F1544015083.065632
sS'itemsCounts'
p4
I10
sS'memory_usage'
p5
I638287872
sS'generatedDataNumber'
p6
I100
sS'typeSelectionMode'
p7
S'AS'
p8
sS'simHeight'
p9
I10
sS'mcts_mode'
p10
S'UCTH'
p11
sS'endTime'
p12
F1544015083.065632
sS'reuseTree'
p13
S'False'
p14
sS'beginTime'
p15
F1544014935.437868
sS'PF_add_threshold'
p16
F0.9
sS'PF_weight'
p17
F1.2
sS'timeSteps'
p18
I37
sS'agentsCounts'
p19
I1
sS'simWidth'
p20
I10
sS'estimationMode'
p21
S'ABU'
p22
sS'maxDepth'
p23
I100
sa(dp24
I0
(dp25
S'l2TypeProbHistory'
p26
(lp27
F0.25
aF0.9896907216494846
aF0.9896907216494846
aF0.9896907216494846
aF0.9896907216494846
aF0.9896907216494846
aF0.9896907216494846
aF0.9523809523809526
aF0.17241379310344832
aF0.17241379310344832
aF0.17241379310344832
aF0.5000000000000001
aF0.04761904761904763
aF0.04761904761904763
aF0.0005205622071837586
aF0.0005205622071837586
aF0.0005205622071837586
aF0.0024937655860349135
aF0.002493765586034913
aF0.002493765586034913
aF0.002493765586034913
aF0.047619047619047616
aF0.047619047619047616
aF0.0024937655860349127
aF0.0024937655860349127
aF0.0024937655860349122
aF0.0024937655860349122
aF0.0024937655860349127
aF0.0024937655860349127
aF0.0024937655860349127
aF0.0024937655860349127
aF0.0024937655860349127
aF0.0024937655860349127
aF0.011857707509881422
aF0.011857707509881424
aF0.011857707509881424
aF0.011857707509881424
aF0.011857707509881424
asS'maxProbability'
p28
S'l1'
p29
sS'l1EstimationHistory'
p30
S'[[0.37,0.33,0.62],[0.23194671574801756,0.4153577189810257,0.5154026995065996],[0.23203902523721526,0.23648073080361773,0.3275319497754341],[0.3145169569084219,0.26657755910667247,0.29699943715705845],[0.13735333474370923,0.3308178498589253,0.3162499032454197],[0.14734723870485683,0.37854395609943897,0.24484446124811834],[0.20700677770235876,0.24033845833618103,0.2747244290611307],[0.18245269293290695,0.26333775346887706,0.35136932887765054],[0.10336175554450266,0.28382016719347636,0.33967009477464927],[0.24262209791246775,0.3753230774904632,0.3770369047204246],[0.21385039394752609,0.2596437398074774,0.28875867773169894],[0.25238021523724924,0.28567897519177826,0.2735121329219924],[0.18782499473401928,0.35238747140559495,0.24242290659833093],[0.22686807650833116,0.2662671831093451,0.2516360375901006],[0.21990931988561574,0.36182172685502595,0.25243852827568025],[0.09434101479932908,0.3168104380483346,0.38463603943985764],[0.34910678695237235,0.3013029796898981,0.3791331955296347],[0.15956419437005118,0.25785059455691745,0.2699073477752613],[0.16465670462323304,0.2233960579620617,0.2604207790582691],[0.2913080281863304,0.24116493432687774,0.2041652637855534],[0.23113085660282406,0.281915786651627,0.30584715204585633],[0.16970126025339502,0.22806676811364301,0.38493632378201353],[0.30653275396316226,0.2916897079000933,0.2845980605502607],[0.1404243174996485,0.31749081133590856,0.25328993918974146],[0.23886667787222296,0.2872235794917553,0.28457408611877255],[0.18492482365955676,0.33152906957672196,0.24540271504193417],[0.22136898182388257,0.21525810281714303,0.2707709452920832],[0.1951533719400429,0.35525180036029125,0.26522024366393726],[0.21197071610753443,0.2785176968507429,0.2163253777630036],[0.18599504801296612,0.28553714937392793,0.2850489187072628],[0.25145204738431204,0.16446747079785398,0.2589215213983385],[0.1994530866360643,0.2669621051137443,0.23989406403413352],[0.21223633514025725,0.2293781461748396,0.3425217057621756],[0.18148245712402827,0.3618008991777263,0.2662021109082703],[0.18273102860754362,0.19612200752978476,0.3927099594127288],[0.25464386425268903,0.3122447812054297,0.2730208464582672],[0.17781703181513922,0.3353752311375319,0.29281292133661746],[0.25454580731930854,0.39734937805518256,0.24630103494788708]]'
p31
sS'trueType'
p32
S'l1'
p33
sS'f1TypeProbHistory'
p34
(lp35
F0.25
aF0.0
aF0.0
aF0.0
aF0.0
aF0.0
aF0.0
aF0.0
aF0.0
aF0.0
aF0.0
aF0.0
aF0.0
aF0.0
aF0.0
aF0.0
aF0.0
aF0.0
aF0.0
aF0.0
aF0.0
aF0.0
aF0.0
aF0.0
aF0.0
aF0.0
aF0.0
aF0.0
aF0.0
aF0.0
aF0.0
aF0.0
aF0.0
aF0.0
aF0.0
aF0.0
aF0.0
aF0.0
asS'f2TypeProbHistory'
p36
(lp37
F0.25
aF0.0
aF0.0
aF0.0
aF0.0
aF0.0
aF0.0
aF0.0
aF0.0
aF0.0
aF0.0
aF0.0
aF0.0
aF0.0
aF0.0
aF0.0
aF0.0
aF0.0
aF0.0
aF0.0
aF0.0
aF0.0
aF0.0
aF0.0
aF0.0
aF0.0
aF0.0
aF0.0
aF0.0
aF0.0
aF0.0
aF0.0
aF0.0
aF0.0
aF0.0
aF0.0
aF0.0
aF0.0
asS'l2EstimationHistory'
p38
S'[[0.88,0.58,0.99],[0.19202388603722528,0.253950448355849,0.28277477724485783],[0.20479642747791288,0.2386524125812422,0.2764363921511094],[0.38635415571103005,0.22185290441831168,0.4065369874586615],[0.20923136697931283,0.30050922259395796,0.3067038448887536],[0.29319990234805615,0.32263910919417593,0.3360801563914996],[0.2601298521391455,0.300034269538474,0.27818596603254453],[0.17138844597134756,0.3673153439348947,0.22875047222288383],[0.19347288765595735,0.3158721974142522,0.26935288396913576],[0.1865608822770689,0.34339292242028796,0.31366384725406327],[0.2577495765168146,0.2773143986331841,0.2661709023988939],[0.197200306930301,0.3180884518229118,0.3078763644740227],[0.3008637147710767,0.3943843792560416,0.2626662450550412],[0.3201175935810885,0.2806956022118059,0.3067357542683127],[0.2358038525290458,0.3761127691384325,0.42768387582447887],[0.16571047267790112,0.4146039321822407,0.3360490766242902],[0.1567923801519756,0.3167455231087057,0.29129210625333685],[0.24280047344931285,0.2986935200313049,0.3916973653630439],[0.11685968002648621,0.4395506360868561,0.28221591901677023],[0.36654954915336385,0.328264242507433,0.38303391831926253],[0.3146477672188864,0.3240720936714573,0.20963510560427112],[0.15298996601927434,0.31629863232153393,0.24320531407946994],[0.20470473072791345,0.34308263142012735,0.3969672383182731],[0.32933698784003596,0.37891772139842816,0.3126876780459489],[0.30829013805911976,0.2617559064704017,0.29087568126548463],[0.20269830248540618,0.2811675050069441,0.3292468651980022],[0.19677722370299114,0.36426920138116714,0.31426846369945266],[0.2560343945014253,0.27174328217309546,0.2574828030206807],[0.18515490026220527,0.3367440284759725,0.38893412206985384],[0.2006142383312742,0.2646245331438924,0.3168237944022361],[0.15708281222765386,0.2974406096222718,0.3001781649345455],[0.22174841245494617,0.2827433427778141,0.3912604619252539],[0.3118716456689001,0.23826417179326778,0.24522658968261157],[0.3482778631249722,0.446777782831372,0.35643811793631835],[0.213424435122258,0.3952732798713665,0.34594179508188566],[0.4127542572053554,0.41757532701180383,0.23494489852427866],[0.2570832964492616,0.3662945662864044,0.44780534159255214],[0.2605435548451912,0.5000063696828057,0.20415175127399093]]'
p39
sS'f1EstimationHistory'
p40
S'[[0.54,0.39,0.33]]'
p41
sS'trueParameters'
p42
(lp43
F1.0
aF0.291
aF0.108
asS'f2EstimationHistory'
p44
S'[[0.87,0.98,0.23]]'
p45
sS'l1TypeProbHistory'
p46
(lp47
F0.25
aF0.010309278350515465
aF0.010309278350515465
aF0.010309278350515465
aF0.010309278350515465
aF0.010309278350515465
aF0.010309278350515465
aF0.04761904761904762
aF0.8275862068965517
aF0.8275862068965517
aF0.8275862068965517
aF0.5
aF0.9523809523809524
aF0.9523809523809524
aF0.9994794377928162
aF0.9994794377928162
aF0.9994794377928162
aF0.9975062344139651
aF0.9975062344139651
aF0.9975062344139651
aF0.9975062344139651
aF0.9523809523809523
aF0.9523809523809523
aF0.9975062344139651
aF0.9975062344139651
aF0.9975062344139651
aF0.9975062344139651
aF0.9975062344139651
aF0.9975062344139651
aF0.9975062344139651
aF0.9975062344139651
aF0.9975062344139651
aF0.9975062344139651
aF0.9881422924901186
aF0.9881422924901186
aF0.9881422924901186
aF0.9881422924901186
aF0.9881422924901186
assa.