(lp0
(dp1
S'iterationMax'
p2
I50
sS'CPU_Time'
p3
ccopy_reg
_reconstructor
p4
(cpsutil._pslinux
scputimes
p5
c__builtin__
tuple
p6
(F13722970.5
F1475.82
F571195.66
F237363302.79
F6911.27
F0.0
F1822.24
F0.0
F0.0
F0.0
tp7
tp8
Rp9
sS'itemsCounts'
p10
I10
sS'memory_usage'
p11
I228855808
sS'generatedDataNumber'
p12
I100
sS'typeSelectionMode'
p13
S'AS'
p14
sS'simHeight'
p15
I10
sS'mcts_mode'
p16
S'UCTH'
p17
sS'endTime'
p18
F1547571814.5405
sS'reuseTree'
p19
S'False'
p20
sS'beginTime'
p21
F1547571750.73985
sS'PF_add_threshold'
p22
F0.9
sS'PF_weight'
p23
F1.2
sS'timeSteps'
p24
I44
sS'agentsCounts'
p25
I2
sS'simWidth'
p26
I10
sS'estimationMode'
p27
S'ABU'
p28
sS'maxDepth'
p29
I50
sa(dp30
I0
(dp31
S'l2TypeProbHistory'
p32
(lp33
F0.25
aF0.5
aF0.5
aF0.010309278350515465
aF0.010309278350515465
aF0.010309278350515465
aF0.010309278350515465
aF0.010309278350515465
aF0.5
aF0.5
aF0.5
aF0.5
aF0.5
aF0.010309278350515465
aF0.00010849517196484758
aF0.00010849517196484759
aF0.0001084951719648476
aF0.010309278350515467
aF0.010309278350515467
aF0.010309278350515469
aF0.17241379310344834
aF0.17241379310344837
aF0.8064516129032259
aF0.8064516129032259
aF0.9975062344139651
aF0.8064516129032259
aF0.806451612903226
aF0.806451612903226
aF0.8064516129032259
aF0.8064516129032259
aF0.806451612903226
aF0.806451612903226
aF0.806451612903226
aF0.806451612903226
aF0.806451612903226
aF0.806451612903226
aF0.806451612903226
aF0.806451612903226
aF0.806451612903226
aF0.806451612903226
aF0.806451612903226
aF0.806451612903226
aF0.806451612903226
aF0.806451612903226
aF0.806451612903226
asS'maxProbability'
p34
S'l2'
p35
sS'l1EstimationHistory'
p36
S'[[0.54,0.88,0.1],[0.48444940257253793,0.5851697238798719,0.5975052267296748],[0.4617862174504081,0.5236669453531315,0.619251822816097],[0.3840120804820687,0.4958563669605874,0.7334392071045972],[0.5007605053327353,0.4381949053102966,0.41040670673077395],[0.4414593481132448,0.6023051203744718,0.5916718375833262],[0.4640909031620959,0.6513665103138828,0.3885444150881221],[0.513051502404354,0.43411606901037453,0.5297287685140021],[0.558206685663701,0.6104167522876939,0.45564555795848305],[0.538724414987324,0.5663859635591507,0.4877686661131914],[0.5751279282149871,0.5226009674370289,0.4856829399457288],[0.528098796921207,0.5485826283693314,0.5379054478991334],[0.46662847951659225,0.5278952419757843,0.6495763726843756],[0.5240728874517762,0.4951373443007469,0.43386592931844864],[0.5650355028251616,0.5129807613790035,0.46565812582521315],[0.5242668064561317,0.6783135265111924,0.5815144698286523],[0.5455575415265714,0.4581503264605999,0.5253722904639802],[0.37571028655500677,0.5920062348246574,0.46668651327606875],[0.4300536696162168,0.5888917356729507,0.5420385416081357],[0.5691280610538982,0.4522379033267498,0.7267988396925602],[0.5262911259722575,0.4228948771953583,0.49962266133045075],[0.4326004655983156,0.6811438411474228,0.588683593488944],[0.47534229302212294,0.5317422367228043,0.497516006065991],[0.48790456283905115,0.7115162375528449,0.4979518282674997],[0.7083703114179487,0.6883395262667773,0.5469622570828914],[0.4405406422395332,0.36027189941750837,0.6513151104888264],[0.3604721085650821,0.511956166241333,0.48759354744513417],[0.6474060287082286,0.623081488215585,0.5472353034727633],[0.505207398875334,0.6534680152547188,0.7169324590354063],[0.4757072093681729,0.6207247447540973,0.5328025782567763],[0.5369165776446578,0.3786053040328573,0.5569603129807492],[0.606835161816765,0.4184527356736251,0.5290642486090589],[0.48831011399779667,0.4475061784830131,0.47546762375765284],[0.3874740963345328,0.62963269986884,0.5342769807693057],[0.5545694663259908,0.6255268139305601,0.5755901021810297],[0.4817894350571016,0.415406222982219,0.394179911191087],[0.6857410983405432,0.43655287462924414,0.6299947800373377],[0.4752932355676046,0.4730493047262783,0.4657059836690035],[0.46599089771317137,0.5676068288291963,0.5447345244587833],[0.43817525988868,0.492237330992515,0.593582684643885],[0.4684656678711761,0.4795619343355642,0.5365430788289813],[0.3469595970821552,0.5316578624855633,0.6601127777222977],[0.36411667465227726,0.4115595681264305,0.4707397300492649],[0.4644400079191321,0.5089168485314352,0.4324148582350503],[0.4351749536408538,0.7232719016182519,0.6260753677050135]]'
p37
sS'trueType'
p38
S'l1'
p39
sS'f1TypeProbHistory'
p40
(lp41
F0.25
aF0.0
aF0.0
aF0.0
aF0.0
aF0.0
aF0.0
aF0.0
aF0.0
aF0.0
aF0.0
aF0.0
aF0.0
aF0.0
aF0.0
aF0.0
aF0.0
aF0.0
aF0.0
aF0.0
aF0.0
aF0.0
aF0.0
aF0.0
aF0.0
aF0.0
aF0.0
aF0.0
aF0.0
aF0.0
aF0.0
aF0.0
aF0.0
aF0.0
aF0.0
aF0.0
aF0.0
aF0.0
aF0.0
aF0.0
aF0.0
aF0.0
aF0.0
aF0.0
aF0.0
asS'f2TypeProbHistory'
p42
(lp43
F0.25
aF0.0
aF0.0
aF0.0
aF0.0
aF0.0
aF0.0
aF0.0
aF0.0
aF0.0
aF0.0
aF0.0
aF0.0
aF0.0
aF0.0
aF0.0
aF0.0
aF0.0
aF0.0
aF0.0
aF0.0
aF0.0
aF0.0
aF0.0
aF0.0
aF0.0
aF0.0
aF0.0
aF0.0
aF0.0
aF0.0
aF0.0
aF0.0
aF0.0
aF0.0
aF0.0
aF0.0
aF0.0
aF0.0
aF0.0
aF0.0
aF0.0
aF0.0
aF0.0
aF0.0
asS'l2EstimationHistory'
p44
S'[[0.62,0.63,0.27],[0.7195263574504557,0.48347917621398134,0.678408876739569],[0.46723112956993196,0.6534449334406508,0.6080364102433393],[0.5141621884497034,0.5582033248800168,0.5263959191885813],[0.612517377667155,0.5345070429061868,0.4289969916451855],[0.4938644085510032,0.621313347502779,0.6621772893139071],[0.4353961519748628,0.4175074317330624,0.6134007979643445],[0.38801647292239616,0.6706634729600599,0.6176443693219937],[0.5352722722219946,0.5301141142845154,0.6383063251277835],[0.44421747033530623,0.5665713101625443,0.6574962105579487],[0.5132683949310672,0.49540594667196275,0.43113244106041543],[0.4794615852879878,0.609632208943367,0.6260620434777596],[0.3908091575834918,0.6225510712713003,0.4108721173030004],[0.5049075839075376,0.560701173171401,0.46936070496892396],[0.3990090453745073,0.6208761855959892,0.5456791133949273],[0.5664607940512614,0.43779679723083975,0.5928263839218344],[0.45258990690266365,0.5972197785973549,0.4905399871374353],[0.6077746707556841,0.43697943091392516,0.4730505969220754],[0.6538343318802979,0.4429504558444023,0.4425972471414784],[0.5647600229861289,0.46668722182512284,0.6233927400943469],[0.5593313846002379,0.49241100549697875,0.5773988271538559],[0.5439542785551007,0.49457105100154874,0.5823223962986914],[0.4706119360626195,0.5708959467973551,0.545355399302753],[0.5251794033299768,0.7130960644406303,0.5820037682124559],[0.6051696200605051,0.5407007070863827,0.5285797960615733],[0.5388745973578665,0.5974003954041651,0.427995724474186],[0.62375097846018,0.4330683317142624,0.5523532481179083],[0.40636995970616585,0.4742636741729843,0.5731859423771978],[0.5161447416019351,0.45158509178862316,0.4642993629995448],[0.5278595132272146,0.5076606805225901,0.6329479508788719],[0.3913608096793469,0.6711058671207459,0.574734606514544],[0.5035362809758503,0.5654720434646097,0.5774952015220229],[0.48355276464538033,0.5694716577160029,0.6881592936969162],[0.5310626866078573,0.5763166458730663,0.439003552009219],[0.44516178570848863,0.5386669566442952,0.705906118303515],[0.423076537858628,0.5653522382910028,0.45032827073788695],[0.40578080021262164,0.6458379724616122,0.4502441301057951],[0.3998043887508008,0.6501887744628789,0.5625165048501366],[0.46227327491416476,0.5058153921353363,0.5696341195427858],[0.4866095192809479,0.44188765853068135,0.6151558531889616],[0.639813422726793,0.6073033459076517,0.589461752671425],[0.47611329812520564,0.4761241541310873,0.5771615103989083],[0.466945516087906,0.537598821502531,0.5695145088505499],[0.5712191740897399,0.4564457763456943,0.5855138808103141],[0.5690844922070563,0.5372144088337222,0.6250056843787096]]'
p45
sS'f1EstimationHistory'
p46
S'[[0.48,0.42,0.61]]'
p47
sS'trueParameters'
p48
(lp49
F0.578
aF0.921
aF0.96
asS'f2EstimationHistory'
p50
S'[[0.66,0.33,0.48]]'
p51
sS'l1TypeProbHistory'
p52
(lp53
F0.25
aF0.5
aF0.5
aF0.9896907216494846
aF0.9896907216494846
aF0.9896907216494846
aF0.9896907216494846
aF0.9896907216494846
aF0.5
aF0.5
aF0.5
aF0.5
aF0.5
aF0.9896907216494846
aF0.9998915048280351
aF0.9998915048280352
aF0.9998915048280352
aF0.9896907216494845
aF0.9896907216494845
aF0.9896907216494845
aF0.8275862068965516
aF0.8275862068965517
aF0.1935483870967741
aF0.1935483870967741
aF0.002493765586034912
aF0.1935483870967741
aF0.1935483870967741
aF0.1935483870967741
aF0.1935483870967741
aF0.1935483870967741
aF0.1935483870967741
aF0.1935483870967741
aF0.1935483870967741
aF0.1935483870967741
aF0.1935483870967741
aF0.1935483870967741
aF0.1935483870967741
aF0.1935483870967741
aF0.1935483870967741
aF0.1935483870967741
aF0.1935483870967741
aF0.1935483870967741
aF0.1935483870967741
aF0.1935483870967741
aF0.1935483870967741
assI1
(dp54
g32
(lp55
F0.25
aF0.5
aF0.5
aF0.5
aF0.5
aF0.5
aF0.5
aF0.5
aF0.5
aF0.9896907216494846
aF0.9896907216494846
aF0.9896907216494846
aF0.9896907216494846
aF0.9896907216494846
aF0.9896907216494846
aF0.9896907216494846
aF0.9896907216494846
aF0.9896907216494846
aF0.9896907216494846
aF0.9896907216494846
aF0.9896907216494846
aF0.9896907216494846
aF0.8275862068965518
aF0.8275862068965518
aF0.8275862068965517
aF0.8275862068965517
aF0.8275862068965517
aF0.8275862068965517
aF0.8275862068965517
aF0.8275862068965517
aF0.8275862068965517
aF0.8275862068965517
aF0.8275862068965517
aF0.8275862068965517
aF0.8275862068965517
aF0.8275862068965517
aF0.8275862068965517
aF0.8275862068965517
aF0.8275862068965517
aF0.8275862068965517
aF0.8275862068965517
aF0.8275862068965517
aF0.8275862068965517
aF0.8275862068965517
aF0.8275862068965517
asg34
g35
sg36
S'[[0.03,0.39,0.5],[0.5229684160263097,0.47334678298476696,0.5334693644084122],[0.6432868868112565,0.5738132286640626,0.6231997299411465],[0.6052906550467014,0.5103429419888602,0.5203527397534422],[0.5451952189207077,0.4848757670034042,0.6611490432074105],[0.3709500327706337,0.5742701270463247,0.5941902575038329],[0.4722971223294735,0.4250716363783801,0.592391109318088],[0.4008821792900562,0.55388690473232,0.4769081834463931],[0.37933476120233534,0.6261577811873955,0.39003707698618195],[0.7600226655602456,0.6364325351073443,0.6163596402041484],[0.4786579445004463,0.5124625628301515,0.5945351803307936],[0.4931340616196394,0.6540109056671563,0.37980772688415587],[0.5450514554977417,0.6473307154277481,0.5460094222579059],[0.37447205521166327,0.6036457006392916,0.6667540484891041],[0.35126914642751217,0.5918772115082601,0.5856596845497437],[0.597850676625967,0.6546300877249813,0.4948622027935789],[0.5410703048110008,0.5748207098904831,0.4647231732459459],[0.3328166179358959,0.518966492231274,0.5002559934185051],[0.4047533694654703,0.5890427700980836,0.5530617893410205],[0.5830773642286659,0.6599112813033348,0.6632061360224961],[0.2898431722074747,0.5357532304687771,0.4984260511814024],[0.48311350028961897,0.5447392690679791,0.518197427383161],[0.5502889925614,0.45596230012550903,0.5488306381998178],[0.49982516653835773,0.536333027067802,0.4694351680868703],[0.5094782156869769,0.673472369854891,0.5436347734283808],[0.4034730140119791,0.6619322502693892,0.5677270741745444],[0.6617821423336864,0.6273841727910605,0.6169883815148155],[0.4234056672081351,0.5723248538475778,0.71289336730972],[0.42929540053009985,0.28124653724351106,0.5262211107152153],[0.5515527412295341,0.5432855344127451,0.580994806822798],[0.5944148797541857,0.6114513900040012,0.5272527097535298],[0.4315326243638992,0.49406210260098343,0.6190649946302019],[0.5894935054704546,0.5702041666469398,0.5832343298122085],[0.5655910313129425,0.5315250340587241,0.6135221074441652],[0.49512427002191545,0.4849202312752471,0.5751607636161251],[0.6284634472802282,0.66436223759941,0.54473680124494],[0.4758121704682708,0.38503579285121337,0.48885969483985664],[0.4251469746232033,0.46874656892863625,0.5315207037544707],[0.6051742993295193,0.3918909997428241,0.40733766972951696],[0.5645044321194291,0.5280432467995326,0.45028086004937873],[0.49530909638851883,0.5437426641470762,0.6651526386152586],[0.6407687500119209,0.5670697069236262,0.592862408940052],[0.45977810937911273,0.6119021015854881,0.5808058318718042],[0.3794598372653127,0.5968366525554786,0.6613686949067119],[0.5642734156921506,0.47851969367277886,0.69617514926853]]'
p56
sg38
S'l1'
p57
sg40
(lp58
F0.25
aF0.0
aF0.0
aF0.0
aF0.0
aF0.0
aF0.0
aF0.0
aF0.0
aF0.0
aF0.0
aF0.0
aF0.0
aF0.0
aF0.0
aF0.0
aF0.0
aF0.0
aF0.0
aF0.0
aF0.0
aF0.0
aF0.0
aF0.0
aF0.0
aF0.0
aF0.0
aF0.0
aF0.0
aF0.0
aF0.0
aF0.0
aF0.0
aF0.0
aF0.0
aF0.0
aF0.0
aF0.0
aF0.0
aF0.0
aF0.0
aF0.0
aF0.0
aF0.0
aF0.0
asg42
(lp59
F0.25
aF0.0
aF0.0
aF0.0
aF0.0
aF0.0
aF0.0
aF0.0
aF0.0
aF0.0
aF0.0
aF0.0
aF0.0
aF0.0
aF0.0
aF0.0
aF0.0
aF0.0
aF0.0
aF0.0
aF0.0
aF0.0
aF0.0
aF0.0
aF0.0
aF0.0
aF0.0
aF0.0
aF0.0
aF0.0
aF0.0
aF0.0
aF0.0
aF0.0
aF0.0
aF0.0
aF0.0
aF0.0
aF0.0
aF0.0
aF0.0
aF0.0
aF0.0
aF0.0
aF0.0
asg44
S'[[0.93,0.32,0.66],[0.7132914660803867,0.7013847722257311,0.6458705931901931],[0.4470146358013153,0.5820039914713627,0.5173065503443253],[0.4628935419023037,0.6663350506851131,0.5413654380055697],[0.5775034427642822,0.6056829543089202,0.5670295511646558],[0.6276473045349121,0.47557731144145415,0.5022095486370877],[0.39673779904842377,0.6101970086094174,0.5650694753656162],[0.46751282215118406,0.4637026444079346,0.5153143128465086],[0.38876955062150953,0.5150405243799571,0.5993636602499477],[0.6136789418756962,0.6392592517554789,0.2744666910130209],[0.5673582099378109,0.5796511339217709,0.6297925660357999],[0.512593325227499,0.6027716423229772,0.681654915371754],[0.4444408629089594,0.5724209271233606,0.6308900753358617],[0.47751754336059093,0.6483910015655747,0.45511714256782926],[0.5103553913533687,0.5608988798837613,0.6517392482252202],[0.5761938013136387,0.44543038267771734,0.5367217832933484],[0.41454161070287227,0.49850428560667914,0.4642318810941413],[0.4782367434352636,0.6025354457604136,0.5884059094466785],[0.6879313440993429,0.6450595916450481,0.5595766133292442],[0.5207918807864189,0.5020779617399074,0.627716895742789],[0.5043442053720355,0.5619614611212059,0.4003881688937779],[0.43043615128844975,0.46068577172481806,0.6195801053048489],[0.5191842082887888,0.5082001194227862,0.6397590533887179],[0.6564702672883869,0.4116995203627579,0.5600795821138994],[0.4260847318917513,0.4193396538013456,0.5424487254254712],[0.5184844866394996,0.3579573607630224,0.46061984703207],[0.588824606873095,0.6145093017759081,0.48491092988992035],[0.4398567583411932,0.3788116558462432,0.5611816862127312],[0.4094268558546901,0.5283337103193566,0.5210566289715765],[0.4899205397814512,0.519189941327852,0.6249142155959235],[0.44117002189159393,0.6614324571749041,0.5444269423337591],[0.5026104809716344,0.5698790468431398,0.5918637003969627],[0.5069064732640982,0.6059649467267454,0.5697510418514634],[0.4394178619608283,0.46235621072784017,0.5375145893753208],[0.5163151917979121,0.5875494767172539,0.5453100780831067],[0.3673075754195452,0.6035994962269373,0.6024119357823043],[0.49402353446930647,0.5234209811678656,0.6447257302597124],[0.3625617306679487,0.4659005665156165,0.6784806513123434],[0.4343341406434774,0.5304975825571613,0.6821142300290177],[0.4067669386044145,0.467620746409937,0.5357421686206769],[0.48006227537989615,0.5677358168486104,0.5709208166625076],[0.5810047324746848,0.4590750904595999,0.5683556853004397],[0.4464023871347308,0.5689121715451104,0.5859213882999782],[0.5050753250718116,0.49704697740115533,0.5237210970940104],[0.47964356541633607,0.6055937254388807,0.4335936732257232]]'
p60
sg46
S'[[0.51,0.25,0.84]]'
p61
sg48
(lp62
F0.613
aF0.862
aF0.626
asg50
S'[[0.17,0.84,0.87]]'
p63
sg52
(lp64
F0.25
aF0.5
aF0.5
aF0.5
aF0.5
aF0.5
aF0.5
aF0.5
aF0.5
aF0.010309278350515465
aF0.010309278350515465
aF0.010309278350515465
aF0.010309278350515465
aF0.010309278350515465
aF0.010309278350515465
aF0.010309278350515465
aF0.010309278350515465
aF0.010309278350515465
aF0.010309278350515465
aF0.010309278350515465
aF0.010309278350515465
aF0.010309278350515465
aF0.17241379310344832
aF0.1724137931034483
aF0.17241379310344826
aF0.17241379310344826
aF0.17241379310344826
aF0.17241379310344826
aF0.17241379310344826
aF0.17241379310344826
aF0.17241379310344826
aF0.17241379310344826
aF0.17241379310344826
aF0.17241379310344826
aF0.17241379310344826
aF0.17241379310344826
aF0.17241379310344826
aF0.17241379310344826
aF0.17241379310344826
aF0.17241379310344826
aF0.17241379310344826
aF0.17241379310344826
aF0.17241379310344826
aF0.17241379310344826
aF0.17241379310344826
assa.