(lp0
(dp1
S'iterationMax'
p2
I50
sS'CPU_Time'
p3
ccopy_reg
_reconstructor
p4
(cpsutil._pslinux
scputimes
p5
c__builtin__
tuple
p6
(F13624885.18
F1411.57
F570132.52
F221583954.95
F6880.14
F0.0
F1791.04
F0.0
F0.0
F0.0
tp7
tp8
Rp9
sS'itemsCounts'
p10
I15
sS'memory_usage'
p11
I77168640
sS'generatedDataNumber'
p12
I100
sS'typeSelectionMode'
p13
S'AS'
p14
sS'simHeight'
p15
I15
sS'mcts_mode'
p16
S'UCTH'
p17
sS'endTime'
p18
F1545586667.059035
sS'reuseTree'
p19
S'False'
p20
sS'beginTime'
p21
F1545586291.804162
sS'PF_add_threshold'
p22
F0.9
sS'PF_weight'
p23
F1.2
sS'timeSteps'
p24
I100
sS'agentsCounts'
p25
I7
sS'simWidth'
p26
I15
sS'estimationMode'
p27
S'MIN'
p28
sS'maxDepth'
p29
I50
sa(dp30
I0
(dp31
S'l2TypeProbHistory'
p32
(lp33
F0.25
aF0.5
aF0.9896907216494846
aF0.5
aF0.5
aF0.5
aF0.5
aF0.5
aF0.5
aF0.5
aF0.5
aF0.5
aF0.1724137931034483
aF0.5
aF0.5
aF0.9896907216494846
aF0.5
aF0.5
aF0.5
aF0.5
aF0.5
aF0.5
aF0.5
aF0.5
aF0.5
aF0.5
aF0.5
aF0.5
aF0.9523809523809524
aF0.5
aF0.5
aF0.5
aF0.5
aF0.5
aF0.5
aF0.5
aF0.5
aF0.9896907216494846
aF0.9523809523809524
aF0.9523809523809524
aF0.9523809523809524
aF0.5
aF0.9523809523809524
aF0.9523809523809524
aF0.9523809523809524
aF0.9523809523809524
aF0.5
aF0.5
aF0.1724137931034483
aF0.9523809523809524
aF0.5
aF0.5
aF0.9523809523809524
aF0.9523809523809524
aF0.9523809523809524
aF0.9523809523809524
aF0.9523809523809524
aF0.9523809523809524
aF0.9523809523809524
aF0.9523809523809524
aF0.9523809523809524
aF0.5
aF0.5
aF0.9523809523809524
aF0.9523809523809524
aF0.9523809523809524
aF0.9523809523809524
aF0.9523809523809524
aF0.1724137931034483
aF0.5
aF0.1724137931034483
aF0.5
aF0.5
aF0.9523809523809524
aF0.9523809523809524
aF0.5
aF0.5
aF0.5
aF0.1724137931034483
aF0.9523809523809524
aF0.1724137931034483
aF0.1724137931034483
aF0.8403361344537815
aF0.8403361344537815
aF0.8403361344537815
aF0.8403361344537815
aF0.8571428571428572
aF0.8695652173913044
aF0.25
aF0.25
aF0.25
aF0.25
aF0.26666666666666666
aF0.28125
aF0.28125
aF0.29411764705882354
aF0.29411764705882354
aF0.8928571428571429
aF0.29411764705882354
aF0.3055555555555556
aF0.8979591836734695
asS'maxProbability'
p34
S'l2'
p35
sS'l1EstimationHistory'
p36
S'[[0.24,0.34,0.4],[0.24,0.34,0.4],[0.24,0.34,0.4],[0.24,0.34,0.4],[0.24,0.34,0.4],[0.24,0.34,0.4],[0.24,0.34,0.4],[0.24,0.34,0.4],[0.24,0.34,0.4],[0.24,0.34,0.4],[0.24,0.34,0.4],[0.24,0.34,0.4],[0.24,0.34,0.4],[0.24,0.34,0.4],[0.24,0.34,0.4],[0.24,0.34,0.4],[0.24,0.34,0.4],[0.24,0.34,0.4],[0.49877374786935247,0.6208057813432062,0.8783103671173013],[0.49877374786935247,0.6208057813432062,0.8783103671173013],[0.49877374786935247,0.6208057813432062,0.8783103671173013],[0.49877374786935247,0.6208057813432062,0.8783103671173013],[0.49877374786935247,0.6208057813432062,0.8783103671173013],[0.49877374786935247,0.6208057813432062,0.8783103671173013],[0.49877374786935247,0.6208057813432062,0.8783103671173013],[0.49877374786935247,0.6208057813432062,0.8783103671173013],[0.49877374786935247,0.6208057813432062,0.8783103671173013],[0.49877374786935247,0.6208057813432062,0.8783103671173013],[0.49877374786935247,0.6208057813432062,0.8783103671173013],[0.5290703717222339,0.655747657876214,0.8802136665847455],[0.5290703717222339,0.655747657876214,0.8802136665847455],[0.5313772212541792,0.6584082068508087,0.8803585878639927],[0.5313772212541792,0.6584082068508087,0.8803585878639927],[0.5322262700402425,0.6593874366817355,0.8804119269459378],[0.5326675961902542,0.6598964294962281,0.88043965200964],[0.5326675961902542,0.6598964294962281,0.88043965200964],[0.5326675961902542,0.6598964294962281,0.88043965200964],[0.5329380258311124,0.6602083229655342,0.8804566409848449],[0.5329380258311124,0.6602083229655342,0.8804566409848449],[0.5329380258311124,0.6602083229655342,0.8804566409848449],[0.5329380258311124,0.6602083229655342,0.8804566409848449],[0.5329380258311124,0.6602083229655342,0.8804566409848449],[0.5329380258311124,0.6602083229655342,0.8804566409848449],[0.5329380258311124,0.6602083229655342,0.8804566409848449],[0.5331207225047048,0.6604190317442631,0.8804681183852061],[0.5331207225047048,0.6604190317442631,0.8804681183852061],[0.5331207225047048,0.6604190317442631,0.8804681183852061],[0.5341023338836169,0.6613687258922915,0.8806617745264185],[0.5341023338836169,0.6613687258922915,0.8806617745264185],[0.5341023338836169,0.6613687258922915,0.8806617745264185],[0.5341023338836169,0.6613687258922915,0.8806617745264185],[0.5348475084216004,0.662089670976248,0.8808087854807084],[0.5348475084216004,0.662089670976248,0.8808087854807084],[0.5348475084216004,0.662089670976248,0.8808087854807084],[0.5348475084216004,0.662089670976248,0.8808087854807084],[0.534660216900644,0.6646563601954589,0.8846289408886808],[0.534660216900644,0.6646563601954589,0.8846289408886808],[0.5344908063327288,0.666978004421893,0.8880843813372628],[0.5344908063327288,0.666978004421893,0.8880843813372628],[0.534336832709086,0.6690880969547973,0.8912249568851563],[0.5341962780157721,0.6710142931552247,0.8940918286422838],[0.5341962780157721,0.6710142931552247,0.8940918286422838],[0.534067461294705,0.6727796292875223,0.8967192828436767],[0.534067461294705,0.6727796292875223,0.8967192828436767],[0.534067461294705,0.6727796292875223,0.8967192828436767],[0.534067461294705,0.6727796292875223,0.8967192828436767],[0.534067461294705,0.6727796292875223,0.8967192828436767],[0.5342790733828848,0.6721898429426307,0.8991703192221885],[0.5342790733828848,0.6721898429426307,0.8991703192221885],[0.5342790733828848,0.6721898429426307,0.8991703192221885],[0.5342790733828848,0.6721898429426307,0.8991703192221885],[0.5342790733828848,0.6721898429426307,0.8991703192221885],[0.5344702200853606,0.6716570958960844,0.9013843114635134],[0.5344702200853606,0.6716570958960844,0.9013843114635134],[0.5344702200853606,0.6716570958960844,0.9013843114635134],[0.5344702200853606,0.6716570958960844,0.9013843114635134],[0.5350640759101779,0.6715596684902204,0.9035882419852989],[0.5355404257449128,0.6716505262089592,0.9056863337008527],[0.5355404257449128,0.6716505262089592,0.9056863337008527],[0.5355404257449128,0.6716505262089592,0.9056863337008527],[0.5355404257449128,0.6716505262089592,0.9056863337008527],[0.5355404257449128,0.6716505262089592,0.9056863337008527],[0.5359786999976197,0.6717341214909959,0.9076167208064899],[0.5359786999976197,0.6717341214909959,0.9076167208064899],[0.5359786999976197,0.6717341214909959,0.9076167208064899],[0.5359786999976197,0.6717341214909959,0.9076167208064899],[0.5363832884124242,0.6718112916246177,0.909398738011939],[0.5367579309130622,0.6718827499530738,0.9110488578809219],[0.5367579309130622,0.6718827499530738,0.9110488578809219],[0.5367579309130622,0.6718827499530738,0.9110488578809219],[0.5367579309130622,0.6718827499530738,0.9110488578809219],[0.5367579309130622,0.6718827499530738,0.9110488578809219],[0.5371058335541254,0.6719491079908125,0.9125812015405772],[0.5374297604999835,0.6720108929672995,0.9140079438043325],[0.5374297604999835,0.6720108929672995,0.9140079438043325],[0.5377321076209579,0.6720685618645591,0.915339637327625],[0.5377321076209579,0.6720685618645591,0.915339637327625],[0.5377321076209579,0.6720685618645591,0.915339637327625],[0.5377321076209579,0.6720685618645591,0.915339637327625],[0.5380149618548462,0.672122512739636,0.9165854740668369],[0.5380149618548462,0.672122512739636,0.9165854740668369]]'
p37
sS'trueType'
p38
S'l2'
p39
sS'f1TypeProbHistory'
p40
(lp41
F0.25
aF0.0
aF0.0
aF0.0
aF0.0
aF0.0
aF0.0
aF0.0
aF0.0
aF0.0
aF0.0
aF0.0
aF0.0
aF0.0
aF0.0
aF0.0
aF0.0
aF0.0
aF0.0
aF0.0
aF0.0
aF0.0
aF0.0
aF0.0
aF0.0
aF0.0
aF0.0
aF0.0
aF0.0
aF0.0
aF0.0
aF0.0
aF0.0
aF0.0
aF0.0
aF0.0
aF0.0
aF0.0
aF0.0
aF0.0
aF0.0
aF0.0
aF0.0
aF0.0
aF0.0
aF0.0
aF0.0
aF0.0
aF0.0
aF0.0
aF0.0
aF0.0
aF0.0
aF0.0
aF0.0
aF0.0
aF0.0
aF0.0
aF0.0
aF0.0
aF0.0
aF0.0
aF0.0
aF0.0
aF0.0
aF0.0
aF0.0
aF0.0
aF0.0
aF0.0
aF0.0
aF0.0
aF0.0
aF0.0
aF0.0
aF0.0
aF0.0
aF0.0
aF0.0
aF0.0
aF0.0
aF0.0
aF0.0
aF0.0
aF0.0
aF0.0
aF0.0
aF0.0
aF0.0
aF0.0
aF0.0
aF0.0
aF0.0
aF0.0
aF0.0
aF0.0
aF0.0
aF0.0
aF0.0
aF0.0
aF0.0
asS'f2TypeProbHistory'
p42
(lp43
F0.25
aF0.0
aF0.0
aF0.0
aF0.0
aF0.0
aF0.0
aF0.0
aF0.0
aF0.0
aF0.0
aF0.0
aF0.0
aF0.0
aF0.0
aF0.0
aF0.0
aF0.0
aF0.0
aF0.0
aF0.0
aF0.0
aF0.0
aF0.0
aF0.0
aF0.0
aF0.0
aF0.0
aF0.0
aF0.0
aF0.0
aF0.0
aF0.0
aF0.0
aF0.0
aF0.0
aF0.0
aF0.0
aF0.0
aF0.0
aF0.0
aF0.0
aF0.0
aF0.0
aF0.0
aF0.0
aF0.0
aF0.0
aF0.0
aF0.0
aF0.0
aF0.0
aF0.0
aF0.0
aF0.0
aF0.0
aF0.0
aF0.0
aF0.0
aF0.0
aF0.0
aF0.0
aF0.0
aF0.0
aF0.0
aF0.0
aF0.0
aF0.0
aF0.0
aF0.0
aF0.0
aF0.0
aF0.0
aF0.0
aF0.0
aF0.0
aF0.0
aF0.0
aF0.0
aF0.0
aF0.0
aF0.0
aF0.0
aF0.0
aF0.0
aF0.0
aF0.0
aF0.0
aF0.0
aF0.0
aF0.0
aF0.0
aF0.0
aF0.0
aF0.0
aF0.0
aF0.0
aF0.0
aF0.0
aF0.0
aF0.0
asS'l2EstimationHistory'
p44
S'[[0.55,0.69,0.44],[0.55,0.69,0.44],[0.55,0.69,0.44],[0.55,0.69,0.44],[0.55,0.69,0.44],[0.55,0.69,0.44],[0.55,0.69,0.44],[0.55,0.69,0.44],[0.55,0.69,0.44],[0.55,0.69,0.44],[0.55,0.69,0.44],[0.55,0.69,0.44],[0.55,0.69,0.44],[0.55,0.69,0.44],[0.55,0.69,0.44],[0.55,0.69,0.44],[0.55,0.69,0.44],[0.55,0.69,0.44],[0.3101788503688215,0.6645281911159987,0.7775741102298592],[0.3101788503688215,0.6645281911159987,0.7775741102298592],[0.3101788503688215,0.6645281911159987,0.7775741102298592],[0.3101788503688215,0.6645281911159987,0.7775741102298592],[0.3101788503688215,0.6645281911159987,0.7775741102298592],[0.3101788503688215,0.6645281911159987,0.7775741102298592],[0.3101788503688215,0.6645281911159987,0.7775741102298592],[0.3101788503688215,0.6645281911159987,0.7775741102298592],[0.3101788503688215,0.6645281911159987,0.7775741102298592],[0.3101788503688215,0.6645281911159987,0.7775741102298592],[0.3101788503688215,0.6645281911159987,0.7775741102298592],[0.2816090697181438,0.6502274974611029,0.7838955590997521],[0.2816090697181438,0.6502274974611029,0.7838955590997521],[0.303670805313199,0.6505961364604207,0.7911254174488113],[0.303670805313199,0.6505961364604207,0.7911254174488113],[0.319990445342418,0.6508688283229296,0.7964735318440057],[0.3325516228194532,0.6510787184231638,0.8005899592875797],[0.3325516228194532,0.6510787184231638,0.8005899592875797],[0.3325516228194532,0.6510787184231638,0.8005899592875797],[0.34251864407840504,0.6512452616548713,0.8038562549765026],[0.34251864407840504,0.6512452616548713,0.8038562549765026],[0.34251864407840504,0.6512452616548713,0.8038562549765026],[0.34251864407840504,0.6512452616548713,0.8038562549765026],[0.34251864407840504,0.6512452616548713,0.8038562549765026],[0.34251864407840504,0.6512452616548713,0.8038562549765026],[0.34251864407840504,0.6512452616548713,0.8038562549765026],[0.3534828190655529,0.6506926244146675,0.8053062905062636],[0.3534828190655529,0.6506926244146675,0.8053062905062636],[0.3534828190655529,0.6506926244146675,0.8053062905062636],[0.3586838860175901,0.651219776323554,0.8086727455382257],[0.3586838860175901,0.651219776323554,0.8086727455382257],[0.3586838860175901,0.651219776323554,0.8086727455382257],[0.3586838860175901,0.651219776323554,0.8086727455382257],[0.3636758648509525,0.6517257361959025,0.8119038656945309],[0.3636758648509525,0.6517257361959025,0.8119038656945309],[0.3636758648509525,0.6517257361959025,0.8119038656945309],[0.3636758648509525,0.6517257361959025,0.8119038656945309],[0.3654388102772732,0.6518287697475958,0.8127012700243472],[0.3654388102772732,0.6518287697475958,0.8127012700243472],[0.3671842139580584,0.6519307780898196,0.8134907399827227],[0.3671842139580584,0.6519307780898196,0.8134907399827227],[0.3689123364142814,0.6520317764484569,0.8142723934068569],[0.3706234330334972,0.6521317797493738,0.815046345812034],[0.3706234330334972,0.6521317797493738,0.815046345812034],[0.37231775419566193,0.6522308026257717,0.815812710448533],[0.37231775419566193,0.6522308026257717,0.815812710448533],[0.37231775419566193,0.6522308026257717,0.815812710448533],[0.37231775419566193,0.6522308026257717,0.815812710448533],[0.37231775419566193,0.6522308026257717,0.815812710448533],[0.3890444059505756,0.6541231859265106,0.8176655930012403],[0.3890444059505756,0.6541231859265106,0.8176655930012403],[0.3890444059505756,0.6541231859265106,0.8176655930012403],[0.3890444059505756,0.6541231859265106,0.8176655930012403],[0.3890444059505756,0.6541231859265106,0.8176655930012403],[0.4046968690606783,0.6558940400244497,0.8193994830964343],[0.4046968690606783,0.6558940400244497,0.8193994830964343],[0.4046968690606783,0.6558940400244497,0.8193994830964343],[0.4046968690606783,0.6558940400244497,0.8193994830964343],[0.4150360432213924,0.656799374041489,0.8215405982799641],[0.42281473133593067,0.6579335855197573,0.8236056665493062],[0.42281473133593067,0.6579335855197573,0.8236056665493062],[0.42281473133593067,0.6579335855197573,0.8236056665493062],[0.42281473133593067,0.6579335855197573,0.8236056665493062],[0.42281473133593067,0.6579335855197573,0.8236056665493062],[0.43032402765429434,0.6590285169468302,0.825599217302827],[0.43032402765429434,0.6590285169468302,0.825599217302827],[0.43032402765429434,0.6590285169468302,0.825599217302827],[0.43032402765429434,0.6590285169468302,0.825599217302827],[0.4363867171491994,0.6600338396150258,0.8269101169040844],[0.44229592083410674,0.6610137110764317,0.8281878291736645],[0.44229592083410674,0.6610137110764317,0.8281878291736645],[0.44229592083410674,0.6610137110764317,0.8281878291736645],[0.44229592083410674,0.6610137110764317,0.8281878291736645],[0.44229592083410674,0.6610137110764317,0.8281878291736645],[0.4480573944268915,0.6619690857513023,0.8294335986365051],[0.4536766094124469,0.6629008709280283,0.8306486083595224],[0.4536766094124469,0.6629008709280283,0.8306486083595224],[0.4591587703739644,0.663809929637029,0.8318339836990514],[0.4591587703739644,0.663809929637029,0.8318339836990514],[0.4591587703739644,0.663809929637029,0.8318339836990514],[0.4591587703739644,0.663809929637029,0.8318339836990514],[0.46450883107134927,0.6646970833168974,0.8329907957773871],[0.46450883107134927,0.6646970833168974,0.8329907957773871]]'
p45
sS'f1EstimationHistory'
p46
S'[[0.62,0.6,0.62]]'
p47
sS'trueParameters'
p48
(lp49
F0.421
aF0.75
aF0.604
asS'f2EstimationHistory'
p50
S'[[0.85,0.89,0.63]]'
p51
sS'l1TypeProbHistory'
p52
(lp53
F0.25
aF0.5
aF0.010309278350515465
aF0.5
aF0.5
aF0.5
aF0.5
aF0.5
aF0.5
aF0.5
aF0.5
aF0.5
aF0.8275862068965517
aF0.5
aF0.5
aF0.010309278350515465
aF0.5
aF0.5
aF0.5
aF0.5
aF0.5
aF0.5
aF0.5
aF0.5
aF0.5
aF0.5
aF0.5
aF0.5
aF0.047619047619047616
aF0.5
aF0.5
aF0.5
aF0.5
aF0.5
aF0.5
aF0.5
aF0.5
aF0.010309278350515465
aF0.047619047619047616
aF0.047619047619047616
aF0.047619047619047616
aF0.5
aF0.047619047619047616
aF0.047619047619047616
aF0.047619047619047616
aF0.047619047619047616
aF0.5
aF0.5
aF0.8275862068965517
aF0.047619047619047616
aF0.5
aF0.5
aF0.047619047619047616
aF0.047619047619047616
aF0.047619047619047616
aF0.047619047619047616
aF0.047619047619047616
aF0.047619047619047616
aF0.047619047619047616
aF0.047619047619047616
aF0.047619047619047616
aF0.5
aF0.5
aF0.047619047619047616
aF0.047619047619047616
aF0.047619047619047616
aF0.047619047619047616
aF0.047619047619047616
aF0.8275862068965517
aF0.5
aF0.8275862068965517
aF0.5
aF0.5
aF0.047619047619047616
aF0.047619047619047616
aF0.5
aF0.5
aF0.5
aF0.8275862068965517
aF0.047619047619047616
aF0.8275862068965517
aF0.8275862068965517
aF0.1596638655462185
aF0.1596638655462185
aF0.1596638655462185
aF0.1596638655462185
aF0.14285714285714288
aF0.13043478260869568
aF0.75
aF0.75
aF0.75
aF0.75
aF0.7333333333333333
aF0.71875
aF0.71875
aF0.7058823529411765
aF0.7058823529411765
aF0.10714285714285714
aF0.7058823529411765
aF0.6944444444444444
aF0.10204081632653061
assI1
(dp54
g32
(lp55
F0.25
aF0.9523809523809524
aF0.9523809523809524
aF0.9896907216494846
aF0.9523809523809524
aF0.9523809523809524
aF0.9523809523809524
aF0.9523809523809524
aF0.9523809523809524
aF0.9523809523809524
aF0.5
aF0.5
aF0.5
aF0.5
aF0.5
aF0.9523809523809524
aF0.1724137931034483
aF0.1724137931034483
aF0.9523809523809524
aF0.9523809523809524
aF0.5
aF0.5
aF0.5
aF0.5
aF0.5
aF0.5
aF0.5
aF0.5
aF0.5
aF0.047619047619047616
aF0.047619047619047616
aF0.047619047619047616
aF0.047619047619047616
aF0.047619047619047616
aF0.047619047619047616
aF0.047619047619047616
aF0.047619047619047616
aF0.0
aF0.0
aF0.0
aF0.0
aF0.0
aF0.0
aF0.0
aF0.0
aF0.0
aF0.0
aF0.0
aF0.0
aF0.0
aF0.0
aF0.0
aF0.0
aF0.0
aF0.0
aF0.0
aF0.0
aF0.0
aF0.0
aF0.0
aF0.0
aF0.0
aF0.0
aF0.0
aF0.0
aF0.0
aF0.0
aF0.0
aF0.0
aF0.0
aF0.0
aF0.0
aF0.0
aF0.0
aF0.0
aF0.0
aF0.0
aF0.0
aF0.0
aF0.0
aF0.0
aF0.0
aF0.0
aF0.0
aF0.0
aF0.0
aF0.0
aF0.0
aF0.0
aF0.0
aF0.0
aF0.0
aF0.0
aF0.0
aF0.0
aF0.0
aF0.0
aF0.0
aF0.0
aF0.0
aF0.0
asg34
S'l1'
p56
sg36
S'[[0.76,0.99,0.16],[0.76,0.99,0.16],[0.76,0.99,0.16],[0.76,0.99,0.16],[0.76,0.99,0.16],[0.76,0.99,0.16],[0.76,0.99,0.16],[0.76,0.99,0.16],[0.76,0.99,0.16],[0.76,0.99,0.16],[0.76,0.99,0.16],[0.76,0.99,0.16],[0.76,0.99,0.16],[0.76,0.99,0.16],[0.76,0.99,0.16],[0.76,0.99,0.16],[0.76,0.99,0.16],[0.76,0.99,0.16],[0.76,0.99,0.16],[0.76,0.99,0.16],[0.43962341031658564,0.7566701223069513,0.8345156124392563],[0.43962341031658553,0.7566701223069512,0.8345156124392563],[0.4396234103165856,0.7566701223069513,0.8345156124392563],[0.43962341031658564,0.7566701223069512,0.8345156124392563],[0.43962341031658564,0.7566701223069512,0.8345156124392563],[0.4396234103165856,0.7566701223069513,0.8345156124392563],[0.4396234103165856,0.7566701223069513,0.8345156124392563],[0.4396234103165856,0.7566701223069513,0.8345156124392563],[0.4396234103165856,0.7566701223069513,0.8345156124392563],[0.4396234103165856,0.7566701223069513,0.8345156124392563],[0.4396234103165856,0.7566701223069513,0.8345156124392563],[0.4396234103165856,0.7566701223069513,0.8345156124392563],[0.4396234103165856,0.7566701223069513,0.8345156124392563],[0.4396234103165856,0.7566701223069513,0.8345156124392563],[0.4396234103165856,0.7566701223069513,0.8345156124392563],[0.4396234103165856,0.7566701223069513,0.8345156124392563],[0.4396234103165856,0.7566701223069513,0.8345156124392564],[0.4396234103165856,0.7566701223069513,0.8345156124392564],[0.43997115219949445,0.7566647389766747,0.8375260434486869],[0.4402517289835237,0.7566603954173551,0.8399550204936792],[0.4404828859930934,0.7566568169167792,0.8419561663546105],[0.44067662333009555,0.7566538177035028,0.8436333669325708],[0.4408413468630056,0.7566512676477701,0.8450593925447502],[0.440983120150881,0.7566490728807014,0.8462867359368051],[0.44110642717016757,0.7566471639866544,0.8473542152735927],[0.441214655224571,0.7566454885273822,0.848291154730931],[0.4413104109009577,0.756644006150777,0.849120119752665],[0.4413104109009577,0.756644006150777,0.849120119752665],[0.4413104109009577,0.756644006150777,0.849120119752665],[0.4413104109009577,0.756644006150777,0.849120119752665],[0.4413104109009577,0.756644006150777,0.849120119752665],[0.441395732742659,0.756642685298512,0.8498587581815212],[0.441395732742659,0.756642685298512,0.8498587581815212],[0.4414722379940512,0.7566415009343144,0.8505210706393956],[0.4414722379940512,0.7566415009343144,0.8505210706393956],[0.4414722379940512,0.7566415009343144,0.8505210706393956],[0.4419993146978907,0.7567141045779836,0.85197498449085],[0.4419993146978907,0.7567141045779836,0.85197498449085],[0.4419993146978907,0.7567141045779836,0.85197498449085],[0.4419993146978907,0.7567141045779836,0.85197498449085],[0.4419993146978907,0.7567141045779836,0.85197498449085],[0.4419993146978907,0.7567141045779836,0.85197498449085],[0.4419993146978907,0.7567141045779836,0.85197498449085],[0.4419993146978907,0.7567141045779836,0.85197498449085],[0.4419993146978907,0.7567141045779836,0.85197498449085],[0.4424858470398964,0.7567811233259858,0.8533170588152695],[0.44205782877417693,0.7567637015416886,0.8549870501139702],[0.44205782877417693,0.7567637015416886,0.8549870501139702],[0.44205782877417693,0.7567637015416886,0.8549870501139702],[0.44205782877417693,0.7567637015416886,0.8549870501139702],[0.4416546231615427,0.7567472897159017,0.8565602303228909],[0.4412741333580709,0.7567318025000179,0.8580447806608867],[0.44091449231095364,0.7567171638987032,0.8594479857748825],[0.44091449231095364,0.7567171638987032,0.8594479857748825],[0.44091449231095364,0.7567171638987032,0.8594479857748825],[0.44091449231095364,0.7567171638987032,0.8594479857748825],[0.44091449231095364,0.7567171638987032,0.8594479857748825],[0.44091449231095364,0.7567171638987032,0.8594479857748825],[0.44091449231095364,0.7567171638987032,0.8594479857748825],[0.44091449231095364,0.7567171638987032,0.8594479857748825],[0.44057403211968266,0.756703306022792,0.8607763532827988],[0.44057403211968266,0.756703306022792,0.8607763532827988],[0.44025125817211413,0.7566901680365384,0.8620357146864076],[0.44025125817211413,0.7566901680365384,0.8620357146864076],[0.44025125817211413,0.7566901680365384,0.8620357146864076],[0.4399448272092326,0.7566776952647788,0.8632313109556564],[0.4399448272092326,0.7566776952647788,0.8632313109556564],[0.4399448272092326,0.7566776952647788,0.8632313109556564],[0.4396535286395798,0.7566658384323652,0.8643678654338315],[0.4396535286395798,0.7566658384323652,0.8643678654338315],[0.4396535286395798,0.7566658384323652,0.8643678654338315],[0.4396535286395798,0.7566658384323652,0.8643678654338315],[0.4396535286395798,0.7566658384323652,0.8643678654338315],[0.4396535286395798,0.7566658384323652,0.8643678654338315],[0.4396535286395798,0.7566658384323652,0.8643678654338315],[0.4396535286395798,0.7566658384323652,0.8643678654338315],[0.4393762685552114,0.7566545530135623,0.8654496462022145],[0.4391120560042251,0.7566437986732908,0.8664805196403211],[0.4391120560042251,0.7566437986732908,0.8664805196403211],[0.4391120560042251,0.7566437986732908,0.8664805196403211],[0.4391120560042251,0.7566437986732908,0.8664805196403211]]'
p57
sg38
S'f1'
p58
sg40
(lp59
F0.25
aF0.0
aF0.0
aF0.0
aF0.0
aF0.0
aF0.0
aF0.0
aF0.0
aF0.0
aF0.0
aF0.0
aF0.0
aF0.0
aF0.0
aF0.0
aF0.0
aF0.0
aF0.0
aF0.0
aF0.0
aF0.0
aF0.0
aF0.0
aF0.0
aF0.0
aF0.0
aF0.0
aF0.0
aF0.0
aF0.0
aF0.0
aF0.0
aF0.0
aF0.0
aF0.0
aF0.0
aF0.0
aF0.0
aF0.0
aF0.0
aF0.0
aF0.0
aF0.0
aF0.0
aF0.0
aF0.0
aF0.0
aF0.0
aF0.0
aF0.0
aF0.0
aF0.0
aF0.0
aF0.0
aF0.0
aF0.0
aF0.0
aF0.0
aF0.0
aF0.0
aF0.0
aF0.0
aF0.0
aF0.0
aF0.0
aF0.0
aF0.0
aF0.0
aF0.0
aF0.0
aF0.0
aF0.0
aF0.0
aF0.0
aF0.0
aF0.0
aF0.0
aF0.0
aF0.0
aF0.0
aF0.0
aF0.0
aF0.0
aF0.0
aF0.0
aF0.0
aF0.0
aF0.0
aF0.0
aF0.0
aF0.0
aF0.0
aF0.0
aF0.0
aF0.0
aF0.0
aF0.0
aF0.0
aF0.0
aF0.0
asg42
(lp60
F0.25
aF0.0
aF0.0
aF0.0
aF0.0
aF0.0
aF0.0
aF0.0
aF0.0
aF0.0
aF0.0
aF0.0
aF0.0
aF0.0
aF0.0
aF0.0
aF0.0
aF0.0
aF0.0
aF0.0
aF0.0
aF0.0
aF0.0
aF0.0
aF0.0
aF0.0
aF0.0
aF0.0
aF0.0
aF0.0
aF0.0
aF0.0
aF0.0
aF0.0
aF0.0
aF0.0
aF0.0
aF0.0
aF0.0
aF0.0
aF0.0
aF0.0
aF0.0
aF0.0
aF0.0
aF0.0
aF0.0
aF0.0
aF0.0
aF0.0
aF0.0
aF0.0
aF0.0
aF0.0
aF0.0
aF0.0
aF0.0
aF0.0
aF0.0
aF0.0
aF0.0
aF0.0
aF0.0
aF0.0
aF0.0
aF0.0
aF0.0
aF0.0
aF0.0
aF0.0
aF0.0
aF0.0
aF0.0
aF0.0
aF0.0
aF0.0
aF0.0
aF0.0
aF0.0
aF0.0
aF0.0
aF0.0
aF0.0
aF0.0
aF0.0
aF0.0
aF0.0
aF0.0
aF0.0
aF0.0
aF0.0
aF0.0
aF0.0
aF0.0
aF0.0
aF0.0
aF0.0
aF0.0
aF0.0
aF0.0
aF0.0
asg44
S'[[0.07,0.16,1.0],[0.07,0.16,1.0],[0.07,0.16,1.0],[0.07,0.16,1.0],[0.07,0.16,1.0],[0.07,0.16,1.0],[0.07,0.16,1.0],[0.07,0.16,1.0],[0.07,0.16,1.0],[0.07,0.16,1.0],[0.07,0.16,1.0],[0.07,0.16,1.0],[0.07,0.16,1.0],[0.07,0.16,1.0],[0.07,0.16,1.0],[0.07,0.16,1.0],[0.07,0.16,1.0],[0.07,0.16,1.0],[0.07,0.16,1.0],[0.07,0.16,1.0],[0.44232097850777885,0.8294811032993871,0.8351414965325231],[0.45804488039057484,0.8281512855101782,0.8274156238774228],[0.46373224915669264,0.8276702875864218,0.8246211593000459],[0.46666766529404363,0.8274220305935153,0.823178855002045],[0.46666766529404363,0.8274220305935153,0.823178855002045],[0.46845941280645276,0.8272704971043386,0.8222984874435251],[0.46845941280645276,0.8272704971043386,0.8222984874435251],[0.46845941280645276,0.8272704971043386,0.8222984874435251],[0.46845941280645276,0.8272704971043386,0.8222984874435251],[0.46845941280645276,0.8272704971043386,0.8222984874435251],[0.46845941280645276,0.8272704971043386,0.8222984874435251],[0.46845941280645276,0.8272704971043386,0.8222984874435251],[0.46845941280645276,0.8272704971043386,0.8222984874435251],[0.46845941280645276,0.8272704971043386,0.8222984874435251],[0.46845941280645276,0.8272704971043386,0.8222984874435251],[0.46845941280645276,0.8272704971043386,0.8222984874435251],[0.47727748671383846,0.8267683434657951,0.8222337481374696],[0.48427740105269124,0.8263697266599409,0.8221823571419411],[0.48427740105269124,0.8263697266599409,0.8221823571419411],[0.48427740105269124,0.8263697266599409,0.8221823571419411],[0.48427740105269124,0.8263697266599409,0.8221823571419411],[0.48427740105269124,0.8263697266599409,0.8221823571419411],[0.48427740105269124,0.8263697266599409,0.8221823571419411],[0.48427740105269124,0.8263697266599409,0.8221823571419411],[0.48427740105269124,0.8263697266599409,0.8221823571419411],[0.48427740105269124,0.8263697266599409,0.8221823571419411],[0.48427740105269124,0.8263697266599409,0.8221823571419411],[0.48427740105269124,0.8263697266599409,0.8221823571419411],[0.48427740105269124,0.8263697266599409,0.8221823571419411],[0.48427740105269124,0.8263697266599409,0.8221823571419411],[0.48427740105269124,0.8263697266599409,0.8221823571419411],[0.48427740105269124,0.8263697266599409,0.8221823571419411],[0.48427740105269124,0.8263697266599409,0.8221823571419411],[0.48427740105269124,0.8263697266599409,0.8221823571419411],[0.48427740105269124,0.8263697266599409,0.8221823571419411],[0.48427740105269124,0.8263697266599409,0.8221823571419411],[0.48427740105269124,0.8263697266599409,0.8221823571419411],[0.48427740105269124,0.8263697266599409,0.8221823571419411],[0.48427740105269124,0.8263697266599409,0.8221823571419411],[0.48427740105269124,0.8263697266599409,0.8221823571419411],[0.48427740105269124,0.8263697266599409,0.8221823571419411],[0.48427740105269124,0.8263697266599409,0.8221823571419411],[0.48427740105269124,0.8263697266599409,0.8221823571419411],[0.48427740105269124,0.8263697266599409,0.8221823571419411],[0.48427740105269124,0.8263697266599409,0.8221823571419411],[0.48427740105269124,0.8263697266599409,0.8221823571419411],[0.48427740105269124,0.8263697266599409,0.8221823571419411],[0.48427740105269124,0.8263697266599409,0.8221823571419411],[0.48427740105269124,0.8263697266599409,0.8221823571419411],[0.48427740105269124,0.8263697266599409,0.8221823571419411],[0.48427740105269124,0.8263697266599409,0.8221823571419411],[0.48427740105269124,0.8263697266599409,0.8221823571419411],[0.48427740105269124,0.8263697266599409,0.8221823571419411],[0.48427740105269124,0.8263697266599409,0.8221823571419411],[0.48427740105269124,0.8263697266599409,0.8221823571419411],[0.48427740105269124,0.8263697266599409,0.8221823571419411],[0.48427740105269124,0.8263697266599409,0.8221823571419411],[0.48427740105269124,0.8263697266599409,0.8221823571419411],[0.48427740105269124,0.8263697266599409,0.8221823571419411],[0.48427740105269124,0.8263697266599409,0.8221823571419411],[0.48427740105269124,0.8263697266599409,0.8221823571419411],[0.48427740105269124,0.8263697266599409,0.8221823571419411],[0.48427740105269124,0.8263697266599409,0.8221823571419411],[0.48427740105269124,0.8263697266599409,0.8221823571419411],[0.48427740105269124,0.8263697266599409,0.8221823571419411],[0.48427740105269124,0.8263697266599409,0.8221823571419411],[0.48427740105269124,0.8263697266599409,0.8221823571419411],[0.48427740105269124,0.8263697266599409,0.8221823571419411],[0.48427740105269124,0.8263697266599409,0.8221823571419411],[0.48427740105269124,0.8263697266599409,0.8221823571419411],[0.48427740105269124,0.8263697266599409,0.8221823571419411],[0.48427740105269124,0.8263697266599409,0.8221823571419411],[0.48427740105269124,0.8263697266599409,0.8221823571419411],[0.48427740105269124,0.8263697266599409,0.8221823571419411],[0.48427740105269124,0.8263697266599409,0.8221823571419411],[0.48427740105269124,0.8263697266599409,0.8221823571419411],[0.48427740105269124,0.8263697266599409,0.8221823571419411],[0.48427740105269124,0.8263697266599409,0.8221823571419411],[0.48427740105269124,0.8263697266599409,0.8221823571419411],[0.48427740105269124,0.8263697266599409,0.8221823571419411],[0.48427740105269124,0.8263697266599409,0.8221823571419411]]'
p61
sg46
S'[[0.34,0.7,0.22]]'
p62
sg48
(lp63
F0.068
aF0.739
aF0.218
asg50
S'[[0.53,0.77,0.65]]'
p64
sg52
(lp65
F0.25
aF0.047619047619047616
aF0.047619047619047616
aF0.010309278350515465
aF0.047619047619047616
aF0.047619047619047616
aF0.047619047619047616
aF0.047619047619047616
aF0.047619047619047616
aF0.047619047619047616
aF0.5
aF0.5
aF0.5
aF0.5
aF0.5
aF0.047619047619047616
aF0.8275862068965517
aF0.8275862068965517
aF0.047619047619047616
aF0.047619047619047616
aF0.5
aF0.5
aF0.5
aF0.5
aF0.5
aF0.5
aF0.5
aF0.5
aF0.5
aF0.9523809523809524
aF0.9523809523809524
aF0.9523809523809524
aF0.9523809523809524
aF0.9523809523809524
aF0.9523809523809524
aF0.9523809523809524
aF0.9523809523809524
aF1.0
aF1.0
aF1.0
aF1.0
aF1.0
aF1.0
aF1.0
aF1.0
aF1.0
aF1.0
aF1.0
aF1.0
aF1.0
aF1.0
aF1.0
aF1.0
aF1.0
aF1.0
aF1.0
aF1.0
aF1.0
aF1.0
aF1.0
aF1.0
aF1.0
aF1.0
aF1.0
aF1.0
aF1.0
aF1.0
aF1.0
aF1.0
aF1.0
aF1.0
aF1.0
aF1.0
aF1.0
aF1.0
aF1.0
aF1.0
aF1.0
aF1.0
aF1.0
aF1.0
aF1.0
aF1.0
aF1.0
aF1.0
aF1.0
aF1.0
aF1.0
aF1.0
aF1.0
aF1.0
aF1.0
aF1.0
aF1.0
aF1.0
aF1.0
aF1.0
aF1.0
aF1.0
aF1.0
aF1.0
assI2
(dp66
g32
(lp67
F0.25
aF0.25
aF0.25
aF0.25
aF0.25
aF0.25
aF0.25
aF0.25
aF0.25
aF0.25
aF0.25
aF0.25
aF0.25
aF0.25
aF0.25
aF0.49999999999999994
aF0.49999999999999994
aF0.5
aF0.5
aF0.5
aF0.5
aF0.010309278350515464
aF0.010309278350515464
aF0.49999999999999994
aF0.9523809523809524
aF0.9523809523809524
aF0.17241379310344832
aF0.9523809523809524
aF0.17241379310344832
aF0.5
aF0.9523809523809524
aF0.5
aF0.0
aF0.0
aF0.0
aF0.0
aF0.0
aF0.0
aF0.0
aF0.0
aF0.0
aF0.0
aF0.0
aF0.0
aF0.0
aF0.0
aF0.0
aF0.0
aF0.0
aF0.0
aF0.0
aF0.0
aF0.0
aF0.0
aF0.0
aF0.0
aF0.0
aF0.0
aF0.0
aF0.0
aF0.0
aF0.0
aF0.0
aF0.0
aF0.0
aF0.0
aF0.0
aF0.0
aF0.0
aF0.0
aF0.0
aF0.0
aF0.0
aF0.0
aF0.0
aF0.0
aF0.0
aF0.0
aF0.0
aF0.0
aF0.0
aF0.0
aF0.0
aF0.0
aF0.0
aF0.0
aF0.0
aF0.0
aF0.0
aF0.0
aF0.0
aF0.0
aF0.0
aF0.0
aF0.0
aF0.0
aF0.0
aF0.0
aF0.0
aF0.0
aF0.0
asg34
g56
sg36
S'[[0.88,0.61,0.82],[0.88,0.61,0.82],[0.88,0.61,0.82],[0.88,0.61,0.82],[0.88,0.61,0.82],[0.88,0.61,0.82],[0.88,0.61,0.82],[0.88,0.61,0.82],[0.88,0.61,0.82],[0.88,0.61,0.82],[0.88,0.61,0.82],[0.88,0.61,0.82],[0.88,0.61,0.82],[0.88,0.61,0.82],[0.88,0.61,0.82],[0.5869088251496364,0.5886943713235131,0.7802964692438235],[0.5869088251496364,0.5886943713235131,0.7802964692438235],[0.5869088251496364,0.5886943713235131,0.7802964692438235],[0.5869088251496364,0.5886943713235131,0.7802964692438235],[0.5869088251496364,0.5886943713235131,0.7802964692438235],[0.5869088251496364,0.5886943713235131,0.7802964692438235],[0.5869088251496364,0.5886943713235131,0.7802964692438235],[0.5869088251496364,0.5886943713235131,0.7802964692438235],[0.5869088251496364,0.5886943713235131,0.7802964692438235],[0.5869088251496364,0.5886943713235131,0.7802964692438235],[0.5869088251496364,0.5886943713235131,0.7802964692438235],[0.5869088251496364,0.5886943713235131,0.7802964692438235],[0.5869088251496364,0.5886943713235131,0.7802964692438235],[0.5869088251496364,0.5886943713235131,0.7802964692438235],[0.5869088251496364,0.5886943713235131,0.7802964692438235],[0.5869088251496364,0.5886943713235131,0.7802964692438235],[0.5869088251496364,0.5886943713235131,0.7802964692438235],[0.5869088251496364,0.5886943713235131,0.7802964692438235],[0.5869088251496364,0.5886943713235131,0.7802964692438236],[0.5869088251496364,0.5886943713235131,0.7802964692438235],[0.5869088251496365,0.5886943713235131,0.7802964692438235],[0.5869088251496365,0.5886943713235131,0.7802964692438233],[0.5869088251496366,0.5886943713235132,0.7802964692438233],[0.5869088251496364,0.5886943713235131,0.7802964692438235],[0.5869088251496364,0.5886943713235131,0.7802964692438235],[0.5869088251496365,0.588694371323513,0.7802964692438235],[0.5869088251496365,0.588694371323513,0.7802964692438233],[0.5869088251496364,0.5886943713235131,0.7802964692438236],[0.5869088251496364,0.5886943713235131,0.7802964692438235],[0.5869088251496363,0.588694371323513,0.7802964692438233],[0.5869088251496363,0.5886943713235131,0.7802964692438233],[0.595292264650385,0.5883747384676925,0.7847016220992751],[0.6031517391823371,0.5880750826653606,0.7888314529012614],[0.6105348819244738,0.5877935878207459,0.7927109909273696],[0.6174837221523671,0.5875286514964025,0.7963623208342949],[0.6174837221523671,0.5875286514964025,0.7963623208342949],[0.6240354857958094,0.5872788543905931,0.7998050033179673],[0.6240354857958094,0.5872788543905931,0.7998050033179673],[0.6240354857958094,0.5872788543905931,0.7998050033179673],[0.6240354857958094,0.5872788543905931,0.7998050033179673],[0.6240354857958094,0.5872788543905931,0.7998050033179673],[0.6240354857958094,0.5872788543905931,0.7998050033179673],[0.6240354857958094,0.5872788543905931,0.7998050033179673],[0.6302232625701715,0.5870429349017732,0.803056425663658],[0.6302232625701715,0.5870429349017732,0.803056425663658],[0.6302232625701715,0.5870429349017732,0.803056425663658],[0.6302232625701715,0.5870429349017732,0.803056425663658],[0.6302232625701715,0.5870429349017732,0.803056425663658],[0.6360765649242979,0.5868197678177542,0.8061320954501221],[0.6416217987334702,0.5866083463697364,0.8090458878794039],[0.6468826615780696,0.5864077670472578,0.811810255055902],[0.6518804812804394,0.5862172166909029,0.8144364038735755],[0.6566345048997664,0.5860359614738827,0.8169344478708745],[0.6611621464419826,0.5858633374576729,0.8193135373921117],[0.6654792000054911,0.5856987424654729,0.8215819715867796],[0.6696000238615674,0.5855416290638276,0.8237472951362353],[0.6735376999907069,0.585391498480033,0.8258163820834932],[0.6773041728098839,0.5852478953129252,0.8277955087286962],[0.6809103701899468,0.5851104029188858,0.8296904172187842],[0.6843663093458409,0.5849786393745979,0.8315063711884516],[0.6876811897606777,0.5848522539341586,0.8332482045879288],[0.6908634749589211,0.584730923911337,0.8349203646514269],[0.6939209646591942,0.584614351928626,0.836526949810474],[0.6968608586017644,0.5845022634837115,0.8380717432326349],[0.6996898131502755,0.5843944047914353,0.8395582425633933],[0.7024139916043971,0.5842905408655397,0.840989686363383],[0.7050391090238235,0.5841904538096766,0.8423690776615548],[0.7050391090238235,0.5841904538096766,0.8423690776615548],[0.7050391090238235,0.5841904538096766,0.8423690776615548],[0.7050391090238235,0.5841904538096766,0.8423690776615548],[0.7050391090238235,0.5841904538096766,0.8423690776615548],[0.7050391090238235,0.5841904538096766,0.8423690776615548],[0.7050391090238235,0.5841904538096766,0.8423690776615548],[0.7050391090238235,0.5841904538096766,0.8423690776615548],[0.7050391090238235,0.5841904538096766,0.8423690776615548],[0.7050391090238235,0.5841904538096766,0.8423690776615548],[0.7050391090238235,0.5841904538096766,0.8423690776615548],[0.7050391090238235,0.5841904538096766,0.8423690776615548],[0.7050391090238235,0.5841904538096766,0.8423690776615548],[0.7050391090238235,0.5841904538096766,0.8423690776615548],[0.7050391090238235,0.5841904538096766,0.8423690776615548],[0.7050391090238235,0.5841904538096766,0.8423690776615548],[0.7050391090238235,0.5841904538096766,0.8423690776615548],[0.707570472249699,0.584093941291523,0.8436992049847917],[0.707570472249699,0.584093941291523,0.8436992049847917],[0.707570472249699,0.584093941291523,0.8436992049847917]]'
p68
sg38
g56
sg40
(lp69
F0.25
aF0.25
aF0.25
aF0.25
aF0.25
aF0.25
aF0.25
aF0.25
aF0.25
aF0.25
aF0.25
aF0.25
aF0.25
aF0.25
aF0.25
aF0.0
aF0.0
aF0.0
aF0.0
aF0.0
aF0.0
aF0.0
aF0.0
aF0.0
aF0.0
aF0.0
aF0.0
aF0.0
aF0.0
aF0.0
aF0.0
aF0.0
aF0.0
aF0.0
aF0.0
aF0.0
aF0.0
aF0.0
aF0.0
aF0.0
aF0.0
aF0.0
aF0.0
aF0.0
aF0.0
aF0.0
aF0.0
aF0.0
aF0.0
aF0.0
aF0.0
aF0.0
aF0.0
aF0.0
aF0.0
aF0.0
aF0.0
aF0.0
aF0.0
aF0.0
aF0.0
aF0.0
aF0.0
aF0.0
aF0.0
aF0.0
aF0.0
aF0.0
aF0.0
aF0.0
aF0.0
aF0.0
aF0.0
aF0.0
aF0.0
aF0.0
aF0.0
aF0.0
aF0.0
aF0.0
aF0.0
aF0.0
aF0.0
aF0.0
aF0.0
aF0.0
aF0.0
aF0.0
aF0.0
aF0.0
aF0.0
aF0.0
aF0.0
aF0.0
aF0.0
aF0.0
aF0.0
aF0.0
aF0.0
aF0.0
aF0.0
asg42
(lp70
F0.25
aF0.25
aF0.25
aF0.25
aF0.25
aF0.25
aF0.25
aF0.25
aF0.25
aF0.25
aF0.25
aF0.25
aF0.25
aF0.25
aF0.25
aF0.0
aF0.0
aF0.0
aF0.0
aF0.0
aF0.0
aF0.0
aF0.0
aF0.0
aF0.0
aF0.0
aF0.0
aF0.0
aF0.0
aF0.0
aF0.0
aF0.0
aF0.0
aF0.0
aF0.0
aF0.0
aF0.0
aF0.0
aF0.0
aF0.0
aF0.0
aF0.0
aF0.0
aF0.0
aF0.0
aF0.0
aF0.0
aF0.0
aF0.0
aF0.0
aF0.0
aF0.0
aF0.0
aF0.0
aF0.0
aF0.0
aF0.0
aF0.0
aF0.0
aF0.0
aF0.0
aF0.0
aF0.0
aF0.0
aF0.0
aF0.0
aF0.0
aF0.0
aF0.0
aF0.0
aF0.0
aF0.0
aF0.0
aF0.0
aF0.0
aF0.0
aF0.0
aF0.0
aF0.0
aF0.0
aF0.0
aF0.0
aF0.0
aF0.0
aF0.0
aF0.0
aF0.0
aF0.0
aF0.0
aF0.0
aF0.0
aF0.0
aF0.0
aF0.0
aF0.0
aF0.0
aF0.0
aF0.0
aF0.0
aF0.0
aF0.0
asg44
S'[[0.7,0.67,0.52],[0.7,0.67,0.52],[0.7,0.67,0.52],[0.7,0.67,0.52],[0.7,0.67,0.52],[0.7,0.67,0.52],[0.7,0.67,0.52],[0.7,0.67,0.52],[0.7,0.67,0.52],[0.7,0.67,0.52],[0.7,0.67,0.52],[0.7,0.67,0.52],[0.7,0.67,0.52],[0.7,0.67,0.52],[0.7,0.67,0.52],[0.20497579508099908,0.7953568580098626,0.6276215482538094],[0.20497579508099908,0.7953568580098626,0.6276215482538094],[0.20497579508099908,0.7953568580098626,0.6276215482538094],[0.20497579508099908,0.7953568580098626,0.6276215482538094],[0.20497579508099908,0.7953568580098626,0.6276215482538094],[0.20497579508099908,0.7953568580098626,0.6276215482538094],[0.20497579508099908,0.7953568580098626,0.6276215482538094],[0.20497579508099908,0.7953568580098626,0.6276215482538094],[0.20497579508099908,0.7953568580098626,0.6276215482538094],[0.20497579508099908,0.7953568580098626,0.6276215482538094],[0.20497579508099908,0.7953568580098626,0.6276215482538094],[0.20497579508099908,0.7953568580098626,0.6276215482538094],[0.20497579508099908,0.7953568580098626,0.6276215482538094],[0.20497579508099908,0.7953568580098626,0.6276215482538094],[0.20497579508099908,0.7953568580098626,0.6276215482538094],[0.20497579508099908,0.7953568580098626,0.6276215482538094],[0.20497579508099908,0.7953568580098626,0.6276215482538094],[0.20771680631892916,0.7861571293082816,0.6879111171631137],[0.20771680631892916,0.7861571293082816,0.6879111171631137],[0.20771680631892916,0.7861571293082816,0.6879111171631137],[0.20771680631892916,0.7861571293082816,0.6879111171631137],[0.20771680631892916,0.7861571293082816,0.6879111171631137],[0.20771680631892916,0.7861571293082816,0.6879111171631137],[0.20771680631892916,0.7861571293082816,0.6879111171631137],[0.20771680631892916,0.7861571293082816,0.6879111171631137],[0.20771680631892916,0.7861571293082816,0.6879111171631137],[0.20771680631892916,0.7861571293082816,0.6879111171631137],[0.20771680631892916,0.7861571293082816,0.6879111171631137],[0.20771680631892916,0.7861571293082816,0.6879111171631137],[0.20771680631892916,0.7861571293082816,0.6879111171631137],[0.20771680631892916,0.7861571293082816,0.6879111171631137],[0.20771680631892916,0.7861571293082816,0.6879111171631137],[0.20771680631892916,0.7861571293082816,0.6879111171631137],[0.20771680631892916,0.7861571293082816,0.6879111171631137],[0.20771680631892916,0.7861571293082816,0.6879111171631137],[0.20771680631892916,0.7861571293082816,0.6879111171631137],[0.20771680631892916,0.7861571293082816,0.6879111171631137],[0.20771680631892916,0.7861571293082816,0.6879111171631137],[0.20771680631892916,0.7861571293082816,0.6879111171631137],[0.20771680631892916,0.7861571293082816,0.6879111171631137],[0.20771680631892916,0.7861571293082816,0.6879111171631137],[0.20771680631892916,0.7861571293082816,0.6879111171631137],[0.20771680631892916,0.7861571293082816,0.6879111171631137],[0.20771680631892916,0.7861571293082816,0.6879111171631137],[0.20771680631892916,0.7861571293082816,0.6879111171631137],[0.20771680631892916,0.7861571293082816,0.6879111171631137],[0.20771680631892916,0.7861571293082816,0.6879111171631137],[0.20771680631892916,0.7861571293082816,0.6879111171631137],[0.20771680631892916,0.7861571293082816,0.6879111171631137],[0.20771680631892916,0.7861571293082816,0.6879111171631137],[0.20771680631892916,0.7861571293082816,0.6879111171631137],[0.20771680631892916,0.7861571293082816,0.6879111171631137],[0.20771680631892916,0.7861571293082816,0.6879111171631137],[0.20771680631892916,0.7861571293082816,0.6879111171631137],[0.20771680631892916,0.7861571293082816,0.6879111171631137],[0.20771680631892916,0.7861571293082816,0.6879111171631137],[0.20771680631892916,0.7861571293082816,0.6879111171631137],[0.20771680631892916,0.7861571293082816,0.6879111171631137],[0.20771680631892916,0.7861571293082816,0.6879111171631137],[0.20771680631892916,0.7861571293082816,0.6879111171631137],[0.20771680631892916,0.7861571293082816,0.6879111171631137],[0.20771680631892916,0.7861571293082816,0.6879111171631137],[0.20771680631892916,0.7861571293082816,0.6879111171631137],[0.20771680631892916,0.7861571293082816,0.6879111171631137],[0.20771680631892916,0.7861571293082816,0.6879111171631137],[0.20771680631892916,0.7861571293082816,0.6879111171631137],[0.20771680631892916,0.7861571293082816,0.6879111171631137],[0.20771680631892916,0.7861571293082816,0.6879111171631137],[0.20771680631892916,0.7861571293082816,0.6879111171631137],[0.20771680631892916,0.7861571293082816,0.6879111171631137],[0.20771680631892916,0.7861571293082816,0.6879111171631137],[0.20771680631892916,0.7861571293082816,0.6879111171631137],[0.20771680631892916,0.7861571293082816,0.6879111171631137],[0.20771680631892916,0.7861571293082816,0.6879111171631137],[0.20771680631892916,0.7861571293082816,0.6879111171631137],[0.20771680631892916,0.7861571293082816,0.6879111171631137],[0.20771680631892916,0.7861571293082816,0.6879111171631137],[0.20771680631892916,0.7861571293082816,0.6879111171631137],[0.20771680631892916,0.7861571293082816,0.6879111171631137],[0.20771680631892916,0.7861571293082816,0.6879111171631137],[0.20771680631892916,0.7861571293082816,0.6879111171631137],[0.20771680631892916,0.7861571293082816,0.6879111171631137],[0.20771680631892916,0.7861571293082816,0.6879111171631137],[0.20771680631892916,0.7861571293082816,0.6879111171631137],[0.20771680631892916,0.7861571293082816,0.6879111171631137],[0.20771680631892916,0.7861571293082816,0.6879111171631137]]'
p71
sg46
S'[[0.64,0.51,0.9]]'
p72
sg48
(lp73
F0.068
aF0.739
aF0.218
asg50
S'[[0.32,0.5,0.73]]'
p74
sg52
(lp75
F0.25
aF0.25
aF0.25
aF0.25
aF0.25
aF0.25
aF0.25
aF0.25
aF0.25
aF0.25
aF0.25
aF0.25
aF0.25
aF0.25
aF0.25
aF0.49999999999999994
aF0.49999999999999994
aF0.5
aF0.5
aF0.5
aF0.5
aF0.9896907216494845
aF0.9896907216494845
aF0.49999999999999994
aF0.047619047619047616
aF0.047619047619047616
aF0.8275862068965517
aF0.047619047619047616
aF0.8275862068965517
aF0.5
aF0.047619047619047616
aF0.5
aF1.0
aF1.0
aF1.0
aF1.0
aF1.0
aF1.0
aF1.0
aF1.0
aF1.0
aF1.0
aF1.0
aF1.0
aF1.0
aF1.0
aF0.9999999999999999
aF1.0
aF1.0
aF1.0
aF1.0
aF1.0
aF1.0
aF1.0
aF1.0
aF1.0
aF1.0
aF1.0
aF1.0
aF1.0
aF1.0
aF1.0
aF1.0
aF1.0
aF1.0
aF1.0
aF1.0
aF1.0
aF1.0
aF1.0
aF1.0
aF1.0
aF1.0
aF1.0
aF1.0
aF1.0
aF1.0
aF1.0
aF1.0
aF1.0
aF0.9999999999999999
aF1.0
aF1.0
aF1.0
aF1.0
aF1.0
aF1.0
aF1.0
aF1.0
aF1.0
aF1.0
aF1.0
aF1.0
aF1.0
aF1.0
aF1.0
aF1.0
aF1.0
aF1.0
aF1.0
aF1.0
assI3
(dp76
g32
(lp77
F0.25
aF0.5
aF0.5
aF0.5
aF0.5
aF0.010309278350515465
aF0.5
aF0.5
aF0.5
aF0.5
aF0.5
aF0.5
aF0.5
aF0.5
aF0.5
aF0.5
aF0.5
aF0.5
aF0.5
aF0.047619047619047616
aF0.5
aF0.5
aF0.5
aF0.5
aF0.5
aF0.5
aF0.5
aF0.5
aF0.5
aF0.047619047619047616
aF0.5
aF0.5
aF0.5
aF0.5
aF0.5
aF0.5
aF0.5
aF0.5
aF0.0
aF0.0
aF0.0
aF0.0
aF0.0
aF0.0
aF0.0
aF0.0
aF0.0
aF0.0
aF0.0
aF0.0
aF0.0
aF0.0
aF0.0
aF0.0
aF0.0
aF0.0
aF0.0
aF0.0
aF0.0
aF0.0
aF0.0
aF0.0
aF0.0
aF0.0
aF0.25
aF0.25
aF0.25
aF0.25
aF0.25
aF0.25
aF0.25
aF0.25
aF0.25
aF0.25
aF0.25
aF0.25
aF0.25
aF0.25
aF0.25
aF0.25
aF0.25
aF0.25
aF0.25
aF0.25
aF0.25
aF0.25
aF0.25
aF0.25
aF0.25
aF0.25
aF0.25
aF0.0
aF0.0
aF0.0
aF0.0
aF0.0
aF0.0
aF0.0
aF0.0
aF0.25
aF0.25
asg34
g56
sg36
S'[[0.92,0.13,0.89],[0.92,0.13,0.89],[0.92,0.13,0.89],[0.92,0.13,0.89],[0.92,0.13,0.89],[0.7997745355811874,0.23962954792818345,0.8849952575781057],[0.7997745355811874,0.23962954792818345,0.8849952575781057],[0.7997745355811874,0.2396295479281835,0.8849952575781057],[0.7997745355811874,0.2396295479281835,0.8849952575781057],[0.7997745355811874,0.2396295479281835,0.8849952575781057],[0.7997745355811874,0.2396295479281835,0.8849952575781057],[0.7997745355811874,0.2396295479281835,0.8849952575781057],[0.7997745355811874,0.2396295479281835,0.8849952575781057],[0.7997745355811874,0.2396295479281835,0.8849952575781057],[0.7997745355811874,0.2396295479281835,0.8849952575781055],[0.7997745355811874,0.2396295479281835,0.8849952575781055],[0.7997745355811874,0.2396295479281835,0.8849952575781055],[0.7997745355811874,0.2396295479281835,0.8849952575781055],[0.7997745355811874,0.23962954792818347,0.8849952575781056],[0.7997745355811874,0.23962954792818347,0.8849952575781056],[0.7997745355811874,0.23962954792818347,0.8849952575781056],[0.7997745355811874,0.23962954792818347,0.8849952575781056],[0.7997745355811874,0.23962954792818347,0.8849952575781056],[0.7997745355811873,0.23962954792818353,0.8849952575781057],[0.7997745355811873,0.23962954792818353,0.8849952575781057],[0.7997745355811873,0.23962954792818353,0.8849952575781057],[0.7997745355811874,0.23962954792818347,0.8849952575781056],[0.7997745355811874,0.23962954792818347,0.8849952575781056],[0.7997745355811874,0.23962954792818347,0.8849952575781056],[0.7997745355811874,0.23962954792818347,0.8849952575781056],[0.7997745355811874,0.23962954792818347,0.8849952575781056],[0.7997745355811874,0.23962954792818347,0.8849952575781056],[0.7997745355811874,0.23962954792818347,0.8849952575781056],[0.7997745355811874,0.23962954792818347,0.8849952575781056],[0.7997745355811874,0.23962954792818347,0.8849952575781056],[0.7997745355811874,0.23962954792818347,0.8849952575781056],[0.7997745355811874,0.23962954792818347,0.8849952575781056],[0.7997745355811874,0.23962954792818347,0.8849952575781056],[0.7997745355811874,0.2396295479281835,0.8849952575781057],[0.7997745355811874,0.2396295479281835,0.8849952575781057],[0.8040730924870729,0.23922633455515127,0.889973964859289],[0.8040730924870729,0.23922633455515127,0.889973964859289],[0.8071003737384389,0.2398495716510181,0.8925855725726333],[0.8098700140322418,0.2404197672919176,0.8949749157997355],[0.8098700140322418,0.2404197672919176,0.8949749157997355],[0.8098700140322418,0.2404197672919176,0.8949749157997355],[0.8124135612408362,0.2409434163498865,0.8971692106001358],[0.8124135612408362,0.2409434163498865,0.8971692106001358],[0.8124135612408362,0.2409434163498865,0.8971692106001358],[0.8124135612408362,0.2409434163498865,0.8971692106001358],[0.8124135612408362,0.2409434163498865,0.8971692106001358],[0.8124135612408362,0.2409434163498865,0.8971692106001358],[0.8124135612408362,0.2409434163498865,0.8971692106001358],[0.8124135612408362,0.2409434163498865,0.8971692106001358],[0.8124135612408362,0.2409434163498865,0.8971692106001358],[0.8147576145507174,0.24142599489350489,0.8991914038475632],[0.8147576145507174,0.24142599489350489,0.8991914038475632],[0.8147576145507174,0.24142599489350489,0.8991914038475632],[0.8147576145507174,0.24142599489350489,0.8991914038475632],[0.8147576145507174,0.24142599489350489,0.8991914038475632],[0.8169247581768341,0.2418721524149634,0.9010609787366943],[0.8169247581768341,0.2418721524149634,0.9010609787366943],[0.8169247581768341,0.2418721524149634,0.9010609787366943],[0.8169247581768341,0.2418721524149634,0.9010609787366943],[0.8189342913574149,0.2422858621166795,0.9027945845429795],[0.8189342913574149,0.2422858621166795,0.9027945845429795],[0.8189342913574149,0.2422858621166795,0.9027945845429795],[0.8189342913574149,0.2422858621166795,0.9027945845429795],[0.8189342913574149,0.2422858621166795,0.9027945845429795],[0.8189342913574149,0.2422858621166795,0.9027945845429795],[0.8189342913574149,0.2422858621166795,0.9027945845429795],[0.8189342913574149,0.2422858621166795,0.9027945845429795],[0.8189342913574149,0.2422858621166795,0.9027945845429795],[0.8189342913574149,0.2422858621166795,0.9027945845429795],[0.8189342913574149,0.2422858621166795,0.9027945845429795],[0.8189342913574149,0.2422858621166795,0.9027945845429795],[0.8189342913574149,0.2422858621166795,0.9027945845429795],[0.8189342913574149,0.2422858621166795,0.9027945845429795],[0.8189342913574149,0.2422858621166795,0.9027945845429795],[0.8189342913574149,0.2422858621166795,0.9027945845429795],[0.8189342913574149,0.2422858621166795,0.9027945845429795],[0.8189342913574149,0.2422858621166795,0.9027945845429795],[0.8189342913574149,0.2422858621166795,0.9027945845429795],[0.8189342913574149,0.2422858621166795,0.9027945845429795],[0.8189342913574149,0.2422858621166795,0.9027945845429795],[0.8189342913574149,0.2422858621166795,0.9027945845429795],[0.8189342913574149,0.2422858621166795,0.9027945845429795],[0.8189342913574149,0.2422858621166795,0.9027945845429795],[0.8189342913574149,0.2422858621166795,0.9027945845429795],[0.8189342913574149,0.2422858621166795,0.9027945845429795],[0.8189342913574149,0.2422858621166795,0.9027945845429795],[0.8126149690396367,0.23138368625477443,0.8983094997628904],[0.8126149690396367,0.23138368625477443,0.8983094997628904],[0.8126149690396367,0.23138368625477443,0.8983094997628904],[0.8126149690396367,0.23138368625477443,0.8983094997628904],[0.8126149690396367,0.23138368625477443,0.8983094997628904],[0.8126149690396367,0.23138368625477443,0.8983094997628904],[0.8126149690396367,0.23138368625477443,0.8983094997628904],[0.8126149690396367,0.23138368625477443,0.8983094997628904],[0.8090055268150579,0.22915192989924665,0.9025105716068196],[0.8090055268150579,0.22915192989924665,0.9025105716068196]]'
p78
sg38
S'l2'
p79
sg40
(lp80
F0.25
aF0.0
aF0.0
aF0.0
aF0.0
aF0.0
aF0.0
aF0.0
aF0.0
aF0.0
aF0.0
aF0.0
aF0.0
aF0.0
aF0.0
aF0.0
aF0.0
aF0.0
aF0.0
aF0.0
aF0.0
aF0.0
aF0.0
aF0.0
aF0.0
aF0.0
aF0.0
aF0.0
aF0.0
aF0.0
aF0.0
aF0.0
aF0.0
aF0.0
aF0.0
aF0.0
aF0.0
aF0.0
aF0.0
aF0.0
aF0.0
aF0.0
aF0.0
aF0.0
aF0.0
aF0.0
aF0.0
aF0.0
aF0.0
aF0.0
aF0.0
aF0.0
aF0.0
aF0.0
aF0.0
aF0.0
aF0.0
aF0.0
aF0.0
aF0.0
aF0.0
aF0.0
aF0.0
aF0.0
aF0.25
aF0.25
aF0.25
aF0.25
aF0.25
aF0.25
aF0.25
aF0.25
aF0.25
aF0.25
aF0.25
aF0.25
aF0.25
aF0.25
aF0.25
aF0.25
aF0.25
aF0.25
aF0.25
aF0.25
aF0.25
aF0.25
aF0.25
aF0.25
aF0.25
aF0.25
aF0.25
aF0.0
aF0.0
aF0.0
aF0.0
aF0.0
aF0.0
aF0.0
aF0.0
aF0.25
aF0.25
asg42
(lp81
F0.25
aF0.0
aF0.0
aF0.0
aF0.0
aF0.0
aF0.0
aF0.0
aF0.0
aF0.0
aF0.0
aF0.0
aF0.0
aF0.0
aF0.0
aF0.0
aF0.0
aF0.0
aF0.0
aF0.0
aF0.0
aF0.0
aF0.0
aF0.0
aF0.0
aF0.0
aF0.0
aF0.0
aF0.0
aF0.0
aF0.0
aF0.0
aF0.0
aF0.0
aF0.0
aF0.0
aF0.0
aF0.0
aF0.0
aF0.0
aF0.0
aF0.0
aF0.0
aF0.0
aF0.0
aF0.0
aF0.0
aF0.0
aF0.0
aF0.0
aF0.0
aF0.0
aF0.0
aF0.0
aF0.0
aF0.0
aF0.0
aF0.0
aF0.0
aF0.0
aF0.0
aF0.0
aF0.0
aF0.0
aF0.25
aF0.25
aF0.25
aF0.25
aF0.25
aF0.25
aF0.25
aF0.25
aF0.25
aF0.25
aF0.25
aF0.25
aF0.25
aF0.25
aF0.25
aF0.25
aF0.25
aF0.25
aF0.25
aF0.25
aF0.25
aF0.25
aF0.25
aF0.25
aF0.25
aF0.25
aF0.25
aF0.0
aF0.0
aF0.0
aF0.0
aF0.0
aF0.0
aF0.0
aF0.0
aF0.25
aF0.25
asg44
S'[[0.38,0.27,0.76],[0.38,0.27,0.76],[0.38,0.27,0.76],[0.38,0.27,0.76],[0.38,0.27,0.76],[0.49473272899612947,0.5480913223893297,0.7366946081386977],[0.49473272899612947,0.5480913223893297,0.7366946081386977],[0.4956918950819883,0.5388899439403405,0.7579654840548385],[0.4956918950819883,0.5388899439403405,0.7579654840548385],[0.4956918950819883,0.5388899439403405,0.7579654840548385],[0.4892592203487873,0.5704741378729545,0.7633812059714482],[0.4892592203487873,0.5704741378729545,0.7633812059714482],[0.4892592203487873,0.5704741378729545,0.7633812059714482],[0.4892592203487873,0.5704741378729545,0.7633812059714482],[0.48530442132019297,0.5835555445725171,0.7676800866349407],[0.48530442132019297,0.5835555445725171,0.7676800866349407],[0.48530442132019297,0.5835555445725171,0.7676800866349407],[0.48530442132019297,0.5835555445725171,0.7676800866349407],[0.4816389978302762,0.5956797751721117,0.7716644150547629],[0.4816389978302762,0.5956797751721117,0.7716644150547629],[0.4816389978302762,0.5956797751721117,0.7716644150547629],[0.4816389978302762,0.5956797751721117,0.7716644150547629],[0.4816389978302762,0.5956797751721117,0.7716644150547629],[0.4782323101161182,0.6069481777293819,0.7753674967625978],[0.4782323101161182,0.6069481777293819,0.7753674967625978],[0.4782323101161182,0.6069481777293819,0.7753674967625978],[0.47505789656428926,0.6174482801122928,0.7788180956267164],[0.47505789656428926,0.6174482801122928,0.7788180956267164],[0.47505789656428926,0.6174482801122928,0.7788180956267164],[0.47505789656428926,0.6174482801122928,0.7788180956267164],[0.47505789656428926,0.6174482801122928,0.7788180956267164],[0.47505789656428926,0.6174482801122928,0.7788180956267164],[0.47505789656428926,0.6174482801122928,0.7788180956267164],[0.47505789656428926,0.6174482801122928,0.7788180956267164],[0.47505789656428926,0.6174482801122928,0.7788180956267164],[0.47505789656428926,0.6174482801122928,0.7788180956267164],[0.47505789656428926,0.6174482801122928,0.7788180956267164],[0.47505789656428926,0.6174482801122928,0.7788180956267164],[0.47209278500488855,0.6272560680523744,0.7820411824778165],[0.47209278500488855,0.6272560680523744,0.7820411824778165],[0.47209278500488855,0.6272560680523744,0.7820411824778165],[0.47209278500488855,0.6272560680523744,0.7820411824778165],[0.47209278500488855,0.6272560680523744,0.7820411824778165],[0.47209278500488855,0.6272560680523744,0.7820411824778165],[0.47209278500488855,0.6272560680523744,0.7820411824778165],[0.47209278500488855,0.6272560680523744,0.7820411824778165],[0.47209278500488855,0.6272560680523744,0.7820411824778165],[0.47209278500488855,0.6272560680523744,0.7820411824778165],[0.47209278500488855,0.6272560680523744,0.7820411824778165],[0.47209278500488855,0.6272560680523744,0.7820411824778165],[0.47209278500488855,0.6272560680523744,0.7820411824778165],[0.47209278500488855,0.6272560680523744,0.7820411824778165],[0.47209278500488855,0.6272560680523744,0.7820411824778165],[0.47209278500488855,0.6272560680523744,0.7820411824778165],[0.47209278500488855,0.6272560680523744,0.7820411824778165],[0.47209278500488855,0.6272560680523744,0.7820411824778165],[0.47209278500488855,0.6272560680523744,0.7820411824778165],[0.47209278500488855,0.6272560680523744,0.7820411824778165],[0.47209278500488855,0.6272560680523744,0.7820411824778165],[0.47209278500488855,0.6272560680523744,0.7820411824778165],[0.47209278500488855,0.6272560680523744,0.7820411824778165],[0.47209278500488855,0.6272560680523744,0.7820411824778165],[0.47209278500488855,0.6272560680523744,0.7820411824778165],[0.47209278500488855,0.6272560680523744,0.7820411824778165],[0.47209278500488855,0.6272560680523744,0.7820411824778165],[0.47209278500488855,0.6272560680523744,0.7820411824778165],[0.47209278500488855,0.6272560680523744,0.7820411824778165],[0.47209278500488855,0.6272560680523744,0.7820411824778165],[0.47209278500488855,0.6272560680523744,0.7820411824778165],[0.47209278500488855,0.6272560680523744,0.7820411824778165],[0.47209278500488855,0.6272560680523744,0.7820411824778165],[0.47209278500488855,0.6272560680523744,0.7820411824778165],[0.47209278500488855,0.6272560680523744,0.7820411824778165],[0.47209278500488855,0.6272560680523744,0.7820411824778165],[0.47209278500488855,0.6272560680523744,0.7820411824778165],[0.47209278500488855,0.6272560680523744,0.7820411824778165],[0.47209278500488855,0.6272560680523744,0.7820411824778165],[0.47209278500488855,0.6272560680523744,0.7820411824778165],[0.47209278500488855,0.6272560680523744,0.7820411824778165],[0.47209278500488855,0.6272560680523744,0.7820411824778165],[0.47209278500488855,0.6272560680523744,0.7820411824778165],[0.47209278500488855,0.6272560680523744,0.7820411824778165],[0.47209278500488855,0.6272560680523744,0.7820411824778165],[0.47209278500488855,0.6272560680523744,0.7820411824778165],[0.47209278500488855,0.6272560680523744,0.7820411824778165],[0.47209278500488855,0.6272560680523744,0.7820411824778165],[0.47209278500488855,0.6272560680523744,0.7820411824778165],[0.47209278500488855,0.6272560680523744,0.7820411824778165],[0.47209278500488855,0.6272560680523744,0.7820411824778165],[0.47209278500488855,0.6272560680523744,0.7820411824778165],[0.47209278500488855,0.6272560680523744,0.7820411824778165],[0.47209278500488855,0.6272560680523744,0.7820411824778165],[0.47209278500488855,0.6272560680523744,0.7820411824778165],[0.47209278500488855,0.6272560680523744,0.7820411824778165],[0.47209278500488855,0.6272560680523744,0.7820411824778165],[0.47209278500488855,0.6272560680523744,0.7820411824778165],[0.47209278500488855,0.6272560680523744,0.7820411824778165],[0.47209278500488855,0.6272560680523744,0.7820411824778165],[0.47209278500488855,0.6272560680523744,0.7820411824778165],[0.47209278500488855,0.6272560680523744,0.7820411824778165],[0.47209278500488855,0.6272560680523744,0.7820411824778165]]'
p82
sg46
S'[[0.82,0.76,0.57]]'
p83
sg48
(lp84
F0.545
aF0.317
aF0.743
asg50
S'[[0.16,0.3,0.94]]'
p85
sg52
(lp86
F0.25
aF0.5
aF0.5
aF0.5
aF0.5
aF0.9896907216494846
aF0.5
aF0.5
aF0.5
aF0.5
aF0.5
aF0.5
aF0.5
aF0.5
aF0.5
aF0.5
aF0.5
aF0.5
aF0.5
aF0.9523809523809524
aF0.5
aF0.5
aF0.5
aF0.5
aF0.5
aF0.5
aF0.5
aF0.5
aF0.5
aF0.9523809523809524
aF0.5
aF0.5
aF0.5
aF0.5
aF0.5
aF0.5
aF0.5
aF0.5
aF1.0
aF1.0
aF1.0
aF1.0
aF1.0
aF1.0
aF1.0
aF1.0
aF1.0
aF1.0
aF1.0
aF1.0
aF1.0
aF1.0
aF1.0
aF1.0
aF1.0
aF1.0
aF1.0
aF1.0
aF1.0
aF1.0
aF1.0
aF1.0
aF1.0
aF1.0
aF0.25
aF0.25
aF0.25
aF0.25
aF0.25
aF0.25
aF0.25
aF0.25
aF0.25
aF0.25
aF0.25
aF0.25
aF0.25
aF0.25
aF0.25
aF0.25
aF0.25
aF0.25
aF0.25
aF0.25
aF0.25
aF0.25
aF0.25
aF0.25
aF0.25
aF0.25
aF0.25
aF1.0
aF1.0
aF1.0
aF1.0
aF1.0
aF1.0
aF1.0
aF1.0
aF0.25
aF0.25
assI4
(dp87
g32
(lp88
F0.25
aF0.9896907216494846
aF0.5
aF0.9896907216494846
aF0.010309278350515465
aF0.010309278350515465
aF0.5
aF0.5
aF0.010309278350515465
aF0.5
aF0.5
aF0.5
aF0.5
aF0.5
aF0.5
aF0.5
aF0.5
aF0.5
aF0.9896907216494846
aF0.5
aF0.5
aF0.5
aF0.5
aF0.5
aF0.9896907216494846
aF0.010309278350515465
aF0.9896907216494846
aF0.9896907216494846
aF0.5
aF0.5
aF0.9523809523809524
aF0.9896907216494846
aF0.9896907216494846
aF0.9896907216494846
aF0.9896907216494846
aF0.9896907216494846
aF0.9896907216494846
aF0.9896907216494846
aF0.9896907216494846
aF0.9896907216494846
aF0.9896907216494846
aF0.9896907216494846
aF0.9896907216494846
aF0.9896907216494846
aF0.9896907216494846
aF0.5
aF0.9896907216494846
aF0.9896907216494846
aF0.9896907216494846
aF0.9896907216494846
aF0.9896907216494846
aF0.9896907216494846
aF0.9523809523809524
aF0.9523809523809524
aF0.9523809523809524
aF0.9523809523809524
aF0.5
aF0.0
aF0.0
aF0.0
aF0.0
aF0.0
aF0.0
aF0.0
aF0.0
aF0.0
aF0.0
aF0.0
aF0.0
aF0.0
aF0.0
aF0.0
aF0.0
aF0.0
aF0.0
aF0.0
aF0.0
aF0.0
aF0.0
aF0.0
aF0.0
aF0.0
aF0.0
aF0.0
aF0.0
aF0.0
aF0.0
aF0.0
aF0.0
aF0.0
aF0.0
aF0.0
aF0.0
aF0.0
aF0.0
aF0.0
aF0.0
aF0.0
aF0.0
aF0.0
aF0.0
asg34
g56
sg36
S'[[0.32,0.73,0.31],[0.32,0.73,0.31],[0.32,0.73,0.31],[0.32,0.73,0.31],[0.32,0.73,0.31],[0.32,0.73,0.31],[0.32,0.73,0.31],[0.4070348375243724,0.80938400577874,0.5990038764925693],[0.4070348375243724,0.80938400577874,0.5990038764925693],[0.4070348375243724,0.80938400577874,0.5990038764925693],[0.4070348375243724,0.80938400577874,0.5990038764925693],[0.4070348375243724,0.80938400577874,0.5990038764925693],[0.4070348375243724,0.80938400577874,0.5990038764925693],[0.4070348375243724,0.80938400577874,0.5990038764925693],[0.4070348375243724,0.80938400577874,0.5990038764925693],[0.4070348375243724,0.80938400577874,0.5990038764925693],[0.4070348375243724,0.80938400577874,0.5990038764925693],[0.4070348375243724,0.80938400577874,0.5990038764925693],[0.4070348375243724,0.80938400577874,0.5990038764925693],[0.4070348375243724,0.80938400577874,0.5990038764925693],[0.4070348375243724,0.80938400577874,0.5990038764925693],[0.4070348375243724,0.80938400577874,0.5990038764925693],[0.4070348375243724,0.80938400577874,0.5990038764925693],[0.40234650987948206,0.7994016658863266,0.5840211739222938],[0.40234650987948206,0.7994016658863266,0.5840211739222938],[0.40234650987948206,0.7994016658863266,0.5840211739222938],[0.40234650987948206,0.7994016658863266,0.5840211739222938],[0.40234650987948206,0.7994016658863266,0.5840211739222938],[0.40234650987948206,0.7994016658863266,0.5840211739222938],[0.40472791533112057,0.789035971524164,0.5842040627004147],[0.41146441741693945,0.7801777867726395,0.6128312578897266],[0.4159554188074855,0.7742723302716229,0.6319160546826011],[0.4191632769435897,0.7700541470566111,0.6455480523917971],[0.42156917054566784,0.7668905096453524,0.6557720506736943],[0.423440421125062,0.764429902769929,0.6637240493373919],[0.42493742158857734,0.76246141726959,0.6700856482683502],[0.42616224014963533,0.7608508382238584,0.6752905928482249],[0.4271829222838503,0.7595086890190819,0.6796280466647874],[0.4280465763974169,0.758373024307348,0.6832981998941862],[0.42878685135190236,0.757399597411576,0.6864440455193854],[0.42942842297912326,0.7565559607685737,0.6891704450612246],[0.4299897981529415,0.7558177787059467,0.691556044660334],[0.43048512918866344,0.7551664415918639,0.6936609854830774],[0.43092542344263857,0.7545874752682349,0.6955320439921829],[0.43131937093303735,0.7540694527681457,0.6972061489740139],[0.43131937093303735,0.7540694527681457,0.6972061489740139],[0.4316739236743962,0.7536032325180655,0.6987128434576618],[0.43123502358548876,0.7542272736713672,0.7007100375102432],[0.43082922788284916,0.7548042460272177,0.7025565916221191],[0.4304529272957591,0.7553392813536868,0.7042689296086299],[0.4301030188312929,0.7558367915780729,0.7058611714920143],[0.4297768200114136,0.7563005907271455,0.7073455237614427],[0.4297768200114136,0.7563005907271455,0.7073455237614427],[0.4297768200114136,0.7563005907271455,0.7073455237614427],[0.4297768200114136,0.7563005907271455,0.7073455237614427],[0.4297768200114136,0.7563005907271455,0.7073455237614427],[0.4297768200114136,0.7563005907271455,0.7073455237614427],[0.4294719999725411,0.7567339928918179,0.7087325929011622],[0.4294719999725411,0.7567339928918179,0.7087325929011622],[0.4289764043547285,0.7574657293444594,0.7111906330238746],[0.4289764043547285,0.7574657293444594,0.7111906330238746],[0.4289764043547285,0.7574657293444594,0.7111906330238746],[0.4289764043547285,0.7574657293444594,0.7111906330238746],[0.4289764043547285,0.7574657293444594,0.7111906330238746],[0.4289764043547285,0.7574657293444594,0.7111906330238746],[0.4289764043547285,0.7574657293444594,0.7111906330238746],[0.4289764043547285,0.7574657293444594,0.7111906330238746],[0.4289764043547285,0.7574657293444594,0.7111906330238746],[0.4289764043547285,0.7574657293444594,0.7111906330238746],[0.4289764043547285,0.7574657293444594,0.7111906330238746],[0.42849604220877496,0.758174973897942,0.7135731186346184],[0.42849604220877496,0.758174973897942,0.7135731186346184],[0.42849604220877496,0.758174973897942,0.7135731186346184],[0.42849604220877496,0.758174973897942,0.7135731186346184],[0.42849604220877496,0.758174973897942,0.7135731186346184],[0.42849604220877496,0.758174973897942,0.7135731186346184],[0.42849604220877496,0.758174973897942,0.7135731186346184],[0.42849604220877496,0.758174973897942,0.7135731186346184],[0.42849604220877496,0.758174973897942,0.7135731186346184],[0.42849604220877496,0.758174973897942,0.7135731186346184],[0.42803022180286027,0.7588627478796741,0.7158834805639067],[0.4275782926615355,0.7595300117029055,0.7181249450201548],[0.4275782926615355,0.7595300117029055,0.7181249450201548],[0.4275782926615355,0.7595300117029055,0.7181249450201548],[0.4275782926615355,0.7595300117029055,0.7181249450201548],[0.4275782926615355,0.7595300117029055,0.7181249450201548],[0.4275782926615355,0.7595300117029055,0.7181249450201548],[0.4275782926615355,0.7595300117029055,0.7181249450201548],[0.4275782926615355,0.7595300117029055,0.7181249450201548],[0.4275782926615355,0.7595300117029055,0.7181249450201548],[0.4275782926615355,0.7595300117029055,0.7181249450201548],[0.4275782926615355,0.7595300117029055,0.7181249450201548],[0.4275782926615355,0.7595300117029055,0.7181249450201548],[0.4275782926615355,0.7595300117029055,0.7181249450201548],[0.4275782926615355,0.7595300117029055,0.7181249450201548],[0.4275782926615355,0.7595300117029055,0.7181249450201548],[0.4275782926615355,0.7595300117029055,0.7181249450201548],[0.4275782926615355,0.7595300117029055,0.7181249450201548],[0.4275782926615355,0.7595300117029055,0.7181249450201548],[0.4275782926615355,0.7595300117029055,0.7181249450201548],[0.4275782926615355,0.7595300117029055,0.7181249450201548]]'
p89
sg38
g56
sg40
(lp90
F0.25
aF0.0
aF0.0
aF0.0
aF0.0
aF0.0
aF0.0
aF0.0
aF0.0
aF0.0
aF0.0
aF0.0
aF0.0
aF0.0
aF0.0
aF0.0
aF0.0
aF0.0
aF0.0
aF0.0
aF0.0
aF0.0
aF0.0
aF0.0
aF0.0
aF0.0
aF0.0
aF0.0
aF0.0
aF0.0
aF0.0
aF0.0
aF0.0
aF0.0
aF0.0
aF0.0
aF0.0
aF0.0
aF0.0
aF0.0
aF0.0
aF0.0
aF0.0
aF0.0
aF0.0
aF0.0
aF0.0
aF0.0
aF0.0
aF0.0
aF0.0
aF0.0
aF0.0
aF0.0
aF0.0
aF0.0
aF0.0
aF0.0
aF0.0
aF0.0
aF0.0
aF0.0
aF0.0
aF0.0
aF0.0
aF0.0
aF0.0
aF0.0
aF0.0
aF0.0
aF0.0
aF0.0
aF0.0
aF0.0
aF0.0
aF0.0
aF0.0
aF0.0
aF0.0
aF0.0
aF0.0
aF0.0
aF0.0
aF0.0
aF0.0
aF0.0
aF0.0
aF0.0
aF0.0
aF0.0
aF0.0
aF0.0
aF0.0
aF0.0
aF0.0
aF0.0
aF0.0
aF0.0
aF0.0
aF0.0
aF0.0
asg42
(lp91
F0.25
aF0.0
aF0.0
aF0.0
aF0.0
aF0.0
aF0.0
aF0.0
aF0.0
aF0.0
aF0.0
aF0.0
aF0.0
aF0.0
aF0.0
aF0.0
aF0.0
aF0.0
aF0.0
aF0.0
aF0.0
aF0.0
aF0.0
aF0.0
aF0.0
aF0.0
aF0.0
aF0.0
aF0.0
aF0.0
aF0.0
aF0.0
aF0.0
aF0.0
aF0.0
aF0.0
aF0.0
aF0.0
aF0.0
aF0.0
aF0.0
aF0.0
aF0.0
aF0.0
aF0.0
aF0.0
aF0.0
aF0.0
aF0.0
aF0.0
aF0.0
aF0.0
aF0.0
aF0.0
aF0.0
aF0.0
aF0.0
aF0.0
aF0.0
aF0.0
aF0.0
aF0.0
aF0.0
aF0.0
aF0.0
aF0.0
aF0.0
aF0.0
aF0.0
aF0.0
aF0.0
aF0.0
aF0.0
aF0.0
aF0.0
aF0.0
aF0.0
aF0.0
aF0.0
aF0.0
aF0.0
aF0.0
aF0.0
aF0.0
aF0.0
aF0.0
aF0.0
aF0.0
aF0.0
aF0.0
aF0.0
aF0.0
aF0.0
aF0.0
aF0.0
aF0.0
aF0.0
aF0.0
aF0.0
aF0.0
aF0.0
asg44
S'[[0.29,0.28,0.91],[0.29,0.28,0.91],[0.29,0.28,0.91],[0.29,0.28,0.91],[0.29,0.28,0.91],[0.29,0.28,0.91],[0.29,0.28,0.91],[0.4989443440550623,0.8258121173001155,0.5135752780998294],[0.4989443440550623,0.8258121173001155,0.5135752780998294],[0.4989443440550623,0.8258121173001155,0.5135752780998294],[0.4989443440550623,0.8258121173001155,0.5135752780998294],[0.4989443440550623,0.8258121173001155,0.5135752780998294],[0.4989443440550623,0.8258121173001155,0.5135752780998294],[0.4989443440550623,0.8258121173001155,0.5135752780998294],[0.4989443440550623,0.8258121173001155,0.5135752780998294],[0.4989443440550623,0.8258121173001155,0.5135752780998294],[0.4989443440550623,0.8258121173001155,0.5135752780998294],[0.4989443440550623,0.8258121173001155,0.5135752780998294],[0.4989443440550623,0.8258121173001155,0.5135752780998294],[0.4989443440550623,0.8258121173001155,0.5135752780998294],[0.4989443440550623,0.8258121173001155,0.5135752780998294],[0.4989443440550623,0.8258121173001155,0.5135752780998294],[0.4989443440550623,0.8258121173001155,0.5135752780998294],[0.39528281502864693,0.8335547604758199,0.5167060059320637],[0.39528281502864693,0.8335547604758199,0.5167060059320637],[0.39528281502864693,0.8335547604758199,0.5167060059320637],[0.39528281502864693,0.8335547604758199,0.5167060059320637],[0.39528281502864693,0.8335547604758199,0.5167060059320637],[0.39528281502864693,0.8335547604758199,0.5167060059320637],[0.44349855985193115,0.82947590863101,0.5305769924515173],[0.4600615991671462,0.8264473704751844,0.5479462343499789],[0.4733663356662534,0.8240146103172261,0.5618985762028414],[0.48428813428492334,0.8220175683965141,0.5733519911566839],[0.49341456874709977,0.8203488073394808,0.5829226529674288],[0.5011547093669202,0.818933528974655,0.5910395433638835],[0.5078021242521779,0.8177180546142753,0.5980105198220151],[0.513572956954764,0.8166628625871326,0.6040622466373161],[0.5186298722096077,0.8157382097798425,0.6093653062177347],[0.5258194423213342,0.8146935955641813,0.612024069981847],[0.5323985772348951,0.8137376750083405,0.6144570896527799],[0.5384418550061753,0.8128596122353284,0.616691944825628],[0.5440121806040508,0.812050267418465,0.6187518982892964],[0.5491629837719607,0.8113018774413655,0.6206567088142786],[0.553939938322845,0.8106078060916359,0.6224232669624475],[0.5583823201814494,0.8099623467430549,0.6240660973025735],[0.5583823201814494,0.8099623467430549,0.6240660973025735],[0.5625240897338325,0.8093605650947537,0.625597758672315],[0.5663947616427868,0.808798172790705,0.6270291658433098],[0.5700201092758216,0.8082714250693072,0.6283698500245938],[0.5734227393068269,0.8077770372761864,0.6296281713551501],[0.5766225635743947,0.8073121163051723,0.6308114934011041],[0.579637189009756,0.8068741039434127,0.631926327354366],[0.579637189009756,0.8068741039434127,0.631926327354366],[0.579637189009756,0.8068741039434127,0.631926327354366],[0.579637189009756,0.8068741039434127,0.631926327354366],[0.579637189009756,0.8068741039434127,0.631926327354366],[0.579637189009756,0.8068741039434127,0.631926327354366],[0.5824822417643786,0.8064607297770024,0.632978451897757],[0.5824822417643786,0.8064607297770024,0.632978451897757],[0.5824822417643786,0.8064607297770024,0.632978451897757],[0.5824822417643786,0.8064607297770024,0.632978451897757],[0.5824822417643786,0.8064607297770024,0.632978451897757],[0.5824822417643786,0.8064607297770024,0.632978451897757],[0.5824822417643786,0.8064607297770024,0.632978451897757],[0.5824822417643786,0.8064607297770024,0.632978451897757],[0.5824822417643786,0.8064607297770024,0.632978451897757],[0.5824822417643786,0.8064607297770024,0.632978451897757],[0.5824822417643786,0.8064607297770024,0.632978451897757],[0.5824822417643786,0.8064607297770024,0.632978451897757],[0.5824822417643786,0.8064607297770024,0.632978451897757],[0.5824822417643786,0.8064607297770024,0.632978451897757],[0.5824822417643786,0.8064607297770024,0.632978451897757],[0.5824822417643786,0.8064607297770024,0.632978451897757],[0.5824822417643786,0.8064607297770024,0.632978451897757],[0.5824822417643786,0.8064607297770024,0.632978451897757],[0.5824822417643786,0.8064607297770024,0.632978451897757],[0.5824822417643786,0.8064607297770024,0.632978451897757],[0.5824822417643786,0.8064607297770024,0.632978451897757],[0.5824822417643786,0.8064607297770024,0.632978451897757],[0.5824822417643786,0.8064607297770024,0.632978451897757],[0.5824822417643786,0.8064607297770024,0.632978451897757],[0.5824822417643786,0.8064607297770024,0.632978451897757],[0.5824822417643786,0.8064607297770024,0.632978451897757],[0.5824822417643786,0.8064607297770024,0.632978451897757],[0.5824822417643786,0.8064607297770024,0.632978451897757],[0.5824822417643786,0.8064607297770024,0.632978451897757],[0.5824822417643786,0.8064607297770024,0.632978451897757],[0.5824822417643786,0.8064607297770024,0.632978451897757],[0.5824822417643786,0.8064607297770024,0.632978451897757],[0.5824822417643786,0.8064607297770024,0.632978451897757],[0.5824822417643786,0.8064607297770024,0.632978451897757],[0.5824822417643786,0.8064607297770024,0.632978451897757],[0.5824822417643786,0.8064607297770024,0.632978451897757],[0.5824822417643786,0.8064607297770024,0.632978451897757],[0.5824822417643786,0.8064607297770024,0.632978451897757],[0.5824822417643786,0.8064607297770024,0.632978451897757],[0.5824822417643786,0.8064607297770024,0.632978451897757],[0.5824822417643786,0.8064607297770024,0.632978451897757],[0.5824822417643786,0.8064607297770024,0.632978451897757],[0.5824822417643786,0.8064607297770024,0.632978451897757],[0.5824822417643786,0.8064607297770024,0.632978451897757]]'
p92
sg46
S'[[0.11,0.44,0.81]]'
p93
sg48
(lp94
F0.228
aF0.291
aF0.49
asg50
S'[[0.96,0.17,0.25]]'
p95
sg52
(lp96
F0.25
aF0.010309278350515465
aF0.5
aF0.010309278350515465
aF0.9896907216494846
aF0.9896907216494846
aF0.5
aF0.5
aF0.9896907216494846
aF0.5
aF0.5
aF0.5
aF0.5
aF0.5
aF0.5
aF0.5
aF0.5
aF0.5
aF0.010309278350515465
aF0.5
aF0.5
aF0.5
aF0.5
aF0.5
aF0.010309278350515465
aF0.9896907216494846
aF0.010309278350515465
aF0.010309278350515465
aF0.5
aF0.5
aF0.047619047619047616
aF0.010309278350515465
aF0.010309278350515465
aF0.010309278350515465
aF0.010309278350515465
aF0.010309278350515465
aF0.010309278350515465
aF0.010309278350515465
aF0.010309278350515465
aF0.010309278350515465
aF0.010309278350515465
aF0.010309278350515465
aF0.010309278350515465
aF0.010309278350515465
aF0.010309278350515465
aF0.5
aF0.010309278350515465
aF0.010309278350515465
aF0.010309278350515465
aF0.010309278350515465
aF0.010309278350515465
aF0.010309278350515465
aF0.047619047619047616
aF0.047619047619047616
aF0.047619047619047616
aF0.047619047619047616
aF0.5
aF1.0
aF1.0
aF1.0
aF1.0
aF1.0
aF1.0
aF1.0
aF1.0
aF1.0
aF1.0
aF1.0
aF1.0
aF1.0
aF1.0
aF1.0
aF1.0
aF1.0
aF1.0
aF1.0
aF1.0
aF1.0
aF1.0
aF1.0
aF1.0
aF1.0
aF1.0
aF1.0
aF1.0
aF1.0
aF1.0
aF1.0
aF1.0
aF1.0
aF1.0
aF1.0
aF1.0
aF1.0
aF1.0
aF1.0
aF1.0
aF1.0
aF1.0
aF1.0
aF1.0
assI5
(dp97
g32
(lp98
F0.25
aF0.25
aF0.25
aF0.25
aF0.25
aF0.25
aF0.25
aF0.25
aF0.25
aF0.25
aF0.25
aF0.25
aF0.25
aF0.25
aF0.25
aF0.25
aF0.25
aF0.25
aF0.25
aF0.25
aF0.25
aF0.25
aF0.25
aF0.25
aF0.25
aF0.25
aF0.25
aF0.25
aF0.25
aF0.25
aF0.25
aF0.25
aF0.25
aF0.25
aF0.25
aF0.25
aF0.25
aF0.25
aF0.25
aF0.25
aF0.25
aF0.25
aF0.25
aF0.25
aF0.25
aF0.25
aF0.25
aF0.25
aF0.25
aF0.25
aF0.25
aF0.25
aF0.25
aF0.25
aF0.25
aF0.25
aF0.25
aF0.25
aF0.25
aF0.25
aF0.25
aF0.25
aF0.25
aF0.25
aF0.25
aF0.25
aF0.25
aF0.25
aF0.25
aF0.25
aF0.25
aF0.25
aF0.25
aF0.25
aF0.25
aF0.25
aF0.25
aF0.25
aF0.25
aF0.25
aF0.25
aF0.25
aF0.25
aF0.25
aF0.25
aF0.25
aF0.25
aF0.25
aF0.25
aF0.25
aF0.25
aF0.25
aF0.25
aF0.25
aF0.25
aF0.25
aF0.25
aF0.25
aF0.25
aF0.25
aF0.25
asg34
g56
sg36
S'[[0.61,0.77,0.4],[0.61,0.77,0.4],[0.61,0.77,0.4],[0.61,0.77,0.4],[0.61,0.77,0.4],[0.61,0.77,0.4],[0.61,0.77,0.4],[0.61,0.77,0.4],[0.61,0.77,0.4],[0.61,0.77,0.4],[0.61,0.77,0.4],[0.61,0.77,0.4],[0.61,0.77,0.4],[0.61,0.77,0.4],[0.61,0.77,0.4],[0.61,0.77,0.4],[0.61,0.77,0.4],[0.61,0.77,0.4],[0.61,0.77,0.4],[0.61,0.77,0.4],[0.61,0.77,0.4],[0.61,0.77,0.4],[0.61,0.77,0.4],[0.61,0.77,0.4],[0.61,0.77,0.4],[0.61,0.77,0.4],[0.61,0.77,0.4],[0.61,0.77,0.4],[0.61,0.77,0.4],[0.61,0.77,0.4],[0.61,0.77,0.4],[0.61,0.77,0.4],[0.61,0.77,0.4],[0.61,0.77,0.4],[0.61,0.77,0.4],[0.61,0.77,0.4],[0.61,0.77,0.4],[0.61,0.77,0.4],[0.61,0.77,0.4],[0.61,0.77,0.4],[0.61,0.77,0.4],[0.61,0.77,0.4],[0.61,0.77,0.4],[0.61,0.77,0.4],[0.61,0.77,0.4],[0.61,0.77,0.4],[0.61,0.77,0.4],[0.61,0.77,0.4],[0.61,0.77,0.4],[0.61,0.77,0.4],[0.61,0.77,0.4],[0.61,0.77,0.4],[0.61,0.77,0.4],[0.61,0.77,0.4],[0.61,0.77,0.4],[0.61,0.77,0.4],[0.61,0.77,0.4],[0.61,0.77,0.4],[0.61,0.77,0.4],[0.61,0.77,0.4],[0.61,0.77,0.4],[0.61,0.77,0.4],[0.61,0.77,0.4],[0.61,0.77,0.4],[0.61,0.77,0.4],[0.61,0.77,0.4],[0.61,0.77,0.4],[0.61,0.77,0.4],[0.61,0.77,0.4],[0.61,0.77,0.4],[0.61,0.77,0.4],[0.61,0.77,0.4],[0.61,0.77,0.4],[0.61,0.77,0.4],[0.61,0.77,0.4],[0.61,0.77,0.4],[0.61,0.77,0.4],[0.61,0.77,0.4],[0.61,0.77,0.4],[0.61,0.77,0.4],[0.61,0.77,0.4],[0.61,0.77,0.4],[0.61,0.77,0.4],[0.61,0.77,0.4],[0.61,0.77,0.4],[0.61,0.77,0.4],[0.61,0.77,0.4],[0.61,0.77,0.4],[0.61,0.77,0.4],[0.61,0.77,0.4],[0.61,0.77,0.4],[0.61,0.77,0.4],[0.61,0.77,0.4],[0.61,0.77,0.4],[0.61,0.77,0.4],[0.61,0.77,0.4],[0.61,0.77,0.4],[0.61,0.77,0.4],[0.61,0.77,0.4],[0.61,0.77,0.4],[0.61,0.77,0.4]]'
p99
sg38
S'f1'
p100
sg40
(lp101
F0.25
aF0.25
aF0.25
aF0.25
aF0.25
aF0.25
aF0.25
aF0.25
aF0.25
aF0.25
aF0.25
aF0.25
aF0.25
aF0.25
aF0.25
aF0.25
aF0.25
aF0.25
aF0.25
aF0.25
aF0.25
aF0.25
aF0.25
aF0.25
aF0.25
aF0.25
aF0.25
aF0.25
aF0.25
aF0.25
aF0.25
aF0.25
aF0.25
aF0.25
aF0.25
aF0.25
aF0.25
aF0.25
aF0.25
aF0.25
aF0.25
aF0.25
aF0.25
aF0.25
aF0.25
aF0.25
aF0.25
aF0.25
aF0.25
aF0.25
aF0.25
aF0.25
aF0.25
aF0.25
aF0.25
aF0.25
aF0.25
aF0.25
aF0.25
aF0.25
aF0.25
aF0.25
aF0.25
aF0.25
aF0.25
aF0.25
aF0.25
aF0.25
aF0.25
aF0.25
aF0.25
aF0.25
aF0.25
aF0.25
aF0.25
aF0.25
aF0.25
aF0.25
aF0.25
aF0.25
aF0.25
aF0.25
aF0.25
aF0.25
aF0.25
aF0.25
aF0.25
aF0.25
aF0.25
aF0.25
aF0.25
aF0.25
aF0.25
aF0.25
aF0.25
aF0.25
aF0.25
aF0.25
aF0.25
aF0.25
aF0.25
asg42
(lp102
F0.25
aF0.25
aF0.25
aF0.25
aF0.25
aF0.25
aF0.25
aF0.25
aF0.25
aF0.25
aF0.25
aF0.25
aF0.25
aF0.25
aF0.25
aF0.25
aF0.25
aF0.25
aF0.25
aF0.25
aF0.25
aF0.25
aF0.25
aF0.25
aF0.25
aF0.25
aF0.25
aF0.25
aF0.25
aF0.25
aF0.25
aF0.25
aF0.25
aF0.25
aF0.25
aF0.25
aF0.25
aF0.25
aF0.25
aF0.25
aF0.25
aF0.25
aF0.25
aF0.25
aF0.25
aF0.25
aF0.25
aF0.25
aF0.25
aF0.25
aF0.25
aF0.25
aF0.25
aF0.25
aF0.25
aF0.25
aF0.25
aF0.25
aF0.25
aF0.25
aF0.25
aF0.25
aF0.25
aF0.25
aF0.25
aF0.25
aF0.25
aF0.25
aF0.25
aF0.25
aF0.25
aF0.25
aF0.25
aF0.25
aF0.25
aF0.25
aF0.25
aF0.25
aF0.25
aF0.25
aF0.25
aF0.25
aF0.25
aF0.25
aF0.25
aF0.25
aF0.25
aF0.25
aF0.25
aF0.25
aF0.25
aF0.25
aF0.25
aF0.25
aF0.25
aF0.25
aF0.25
aF0.25
aF0.25
aF0.25
aF0.25
asg44
S'[[0.07,0.46,0.93],[0.07,0.46,0.93],[0.07,0.46,0.93],[0.07,0.46,0.93],[0.07,0.46,0.93],[0.07,0.46,0.93],[0.07,0.46,0.93],[0.07,0.46,0.93],[0.07,0.46,0.93],[0.07,0.46,0.93],[0.07,0.46,0.93],[0.07,0.46,0.93],[0.07,0.46,0.93],[0.07,0.46,0.93],[0.07,0.46,0.93],[0.07,0.46,0.93],[0.07,0.46,0.93],[0.07,0.46,0.93],[0.07,0.46,0.93],[0.07,0.46,0.93],[0.07,0.46,0.93],[0.07,0.46,0.93],[0.07,0.46,0.93],[0.07,0.46,0.93],[0.07,0.46,0.93],[0.07,0.46,0.93],[0.07,0.46,0.93],[0.07,0.46,0.93],[0.07,0.46,0.93],[0.07,0.46,0.93],[0.07,0.46,0.93],[0.07,0.46,0.93],[0.07,0.46,0.93],[0.07,0.46,0.93],[0.07,0.46,0.93],[0.07,0.46,0.93],[0.07,0.46,0.93],[0.07,0.46,0.93],[0.07,0.46,0.93],[0.07,0.46,0.93],[0.07,0.46,0.93],[0.07,0.46,0.93],[0.07,0.46,0.93],[0.07,0.46,0.93],[0.07,0.46,0.93],[0.07,0.46,0.93],[0.07,0.46,0.93],[0.07,0.46,0.93],[0.07,0.46,0.93],[0.07,0.46,0.93],[0.07,0.46,0.93],[0.07,0.46,0.93],[0.07,0.46,0.93],[0.07,0.46,0.93],[0.07,0.46,0.93],[0.07,0.46,0.93],[0.07,0.46,0.93],[0.07,0.46,0.93],[0.07,0.46,0.93],[0.07,0.46,0.93],[0.07,0.46,0.93],[0.07,0.46,0.93],[0.07,0.46,0.93],[0.07,0.46,0.93],[0.07,0.46,0.93],[0.07,0.46,0.93],[0.07,0.46,0.93],[0.07,0.46,0.93],[0.07,0.46,0.93],[0.07,0.46,0.93],[0.07,0.46,0.93],[0.07,0.46,0.93],[0.07,0.46,0.93],[0.07,0.46,0.93],[0.07,0.46,0.93],[0.07,0.46,0.93],[0.07,0.46,0.93],[0.07,0.46,0.93],[0.07,0.46,0.93],[0.07,0.46,0.93],[0.07,0.46,0.93],[0.07,0.46,0.93],[0.07,0.46,0.93],[0.07,0.46,0.93],[0.07,0.46,0.93],[0.07,0.46,0.93],[0.07,0.46,0.93],[0.07,0.46,0.93],[0.07,0.46,0.93],[0.07,0.46,0.93],[0.07,0.46,0.93],[0.07,0.46,0.93],[0.07,0.46,0.93],[0.07,0.46,0.93],[0.07,0.46,0.93],[0.07,0.46,0.93],[0.07,0.46,0.93],[0.07,0.46,0.93],[0.07,0.46,0.93],[0.07,0.46,0.93],[0.07,0.46,0.93]]'
p103
sg46
S'[[0.45,0.97,0.67]]'
p104
sg48
(lp105
F0.228
aF0.291
aF0.49
asg50
S'[[0.67,0.62,0.75]]'
p106
sg52
(lp107
F0.25
aF0.25
aF0.25
aF0.25
aF0.25
aF0.25
aF0.25
aF0.25
aF0.25
aF0.25
aF0.25
aF0.25
aF0.25
aF0.25
aF0.25
aF0.25
aF0.25
aF0.25
aF0.25
aF0.25
aF0.25
aF0.25
aF0.25
aF0.25
aF0.25
aF0.25
aF0.25
aF0.25
aF0.25
aF0.25
aF0.25
aF0.25
aF0.25
aF0.25
aF0.25
aF0.25
aF0.25
aF0.25
aF0.25
aF0.25
aF0.25
aF0.25
aF0.25
aF0.25
aF0.25
aF0.25
aF0.25
aF0.25
aF0.25
aF0.25
aF0.25
aF0.25
aF0.25
aF0.25
aF0.25
aF0.25
aF0.25
aF0.25
aF0.25
aF0.25
aF0.25
aF0.25
aF0.25
aF0.25
aF0.25
aF0.25
aF0.25
aF0.25
aF0.25
aF0.25
aF0.25
aF0.25
aF0.25
aF0.25
aF0.25
aF0.25
aF0.25
aF0.25
aF0.25
aF0.25
aF0.25
aF0.25
aF0.25
aF0.25
aF0.25
aF0.25
aF0.25
aF0.25
aF0.25
aF0.25
aF0.25
aF0.25
aF0.25
aF0.25
aF0.25
aF0.25
aF0.25
aF0.25
aF0.25
aF0.25
aF0.25
assI6
(dp108
g32
(lp109
F0.25
aF0.010309278350515465
aF0.010309278350515465
aF0.010309278350515465
aF0.010309278350515465
aF0.5
aF0.5
aF0.5
aF0.9896907216494846
aF0.5
aF0.9523809523809524
aF0.9523809523809524
aF0.9523809523809524
aF0.1724137931034483
aF0.5
aF0.9523809523809524
aF0.9523809523809524
aF0.9523809523809524
aF0.1724137931034483
aF0.9523809523809524
aF0.9523809523809524
aF0.1724137931034483
aF0.9523809523809524
aF0.9523809523809524
aF0.5
aF0.5
aF0.5
aF0.5
aF0.5
aF0.5
aF0.5
aF0.5
aF0.5
aF0.5
aF0.5
aF0.5
aF0.5
aF0.5
aF0.5
aF0.5
aF0.5
aF0.5
aF0.5
aF0.5
aF0.5
aF0.5
aF0.5
aF0.5
aF0.5
aF0.5
aF0.5
aF0.5
aF0.5
aF0.5
aF0.5
aF0.5
aF0.5
aF0.5
aF0.5
aF0.5
aF0.5
aF0.5
aF0.5
aF0.5
aF0.5
aF0.5
aF0.5
aF0.5
aF0.5
aF0.5
aF0.5
aF0.5
aF0.5
aF0.5
aF0.5
aF0.5
aF0.5
aF0.5
aF0.5
aF0.5
aF0.5
aF0.5
aF0.9523809523809524
aF0.9523809523809524
aF0.9523809523809524
aF0.9523809523809524
aF0.9523809523809524
aF0.9523809523809524
aF0.9523809523809524
aF0.9523809523809524
aF0.9523809523809524
aF0.1724137931034483
aF0.1724137931034483
aF0.1724137931034483
aF0.1724137931034483
aF0.1724137931034483
aF0.5
aF0.5
aF0.25
aF0.25
aF0.25
asg34
g56
sg36
S'[[0.1,0.58,0.82],[0.1,0.58,0.82],[0.1,0.58,0.82],[0.1,0.58,0.82],[0.1,0.58,0.82],[0.1,0.58,0.82],[0.1,0.58,0.82],[0.5058811629559417,0.6037814244475253,0.5085754179246385],[0.5058811629559417,0.6037814244475253,0.5085754179246385],[0.5058811629559417,0.6037814244475253,0.5085754179246385],[0.5058811629559417,0.6037814244475253,0.5085754179246385],[0.5058811629559417,0.6037814244475253,0.5085754179246385],[0.5058811629559417,0.6037814244475253,0.5085754179246385],[0.5058811629559417,0.6037814244475253,0.5085754179246385],[0.5058811629559417,0.6037814244475253,0.5085754179246385],[0.5058811629559417,0.6037814244475253,0.5085754179246385],[0.5058811629559417,0.6037814244475253,0.5085754179246385],[0.5058811629559417,0.6037814244475253,0.5085754179246385],[0.5058811629559417,0.6037814244475253,0.5085754179246385],[0.5058811629559417,0.6037814244475253,0.5085754179246385],[0.5058811629559417,0.6037814244475253,0.5085754179246385],[0.5058811629559417,0.6037814244475253,0.5085754179246385],[0.5058811629559417,0.6037814244475253,0.5085754179246385],[0.5058811629559417,0.6037814244475251,0.5085754179246383],[0.500413685557534,0.6037878653112905,0.5526785515975433],[0.49673954074580406,0.6037921935717406,0.5823158574257354],[0.49410072196349625,0.6037953021849162,0.6036017574879078],[0.4921136596274212,0.6037976430080906,0.6196302966913507],[0.4905634313705905,0.6037994692267065,0.6321351355873345],[0.48932025315496774,0.6038009337305241,0.6421631706440172],[0.4883011202441386,0.6038021343017856,0.650383955426748],[0.48745047301614813,0.6038031363915078,0.6572456588542696],[0.48672971977827906,0.6038039854619429,0.6630595788906237],[0.4861112187298655,0.6038047140760188,0.6680486867418899],[0.48557465158447277,0.6038053461693285,0.6723768788519541],[0.48510474884199256,0.6038058997298329,0.676167325881677],[0.4846898133247382,0.6038063885371828,0.6795143825313185],[0.48432073321505104,0.6038068233253917,0.6824915488234521],[0.4839903051730451,0.603807212580225,0.6851569301399091],[0.48369275953327756,0.6038075630985335,0.6875570671991459],[0.4834234205321932,0.6038078803885167,0.6897296768146167],[0.48317845879169263,0.6038081689613052,0.6917056484737204],[0.48317845879169263,0.6038081689613052,0.6917056484737204],[0.482954708099472,0.6038084325467983,0.6935105222700507],[0.4827495278088323,0.6038086742557626,0.695165598848467],[0.482560698134162,0.6038088967031767,0.6966887839988655],[0.48238633951867205,0.6038091021032189,0.6980952390723177],[0.4822248498559006,0.6038092923432221,0.6993978873806727],[0.48207485511704157,0.6038094690418361,0.7006078124587453],[0.4819351701590599,0.6038096335951976,0.7017345742037064],[0.48180476734577365,0.6038097872138947,0.7027864619915472],[0.4816827512232244,0.6038099309528012,0.7037706989569541],[0.4815683379289799,0.6038100657353321,0.7046936080871304],[0.48146083833416653,0.6038101923733032,0.7055607482057561],[0.4813596441519244,0.603810311583296,0.7063770260284394],[0.481264216420651,0.6038104240002247,0.707146789062061],[0.4811740759015157,0.6038105301886478,0.7078739030627386],[0.4810887950290399,0.6038106306522514,0.708561816966075],[0.48100799112938286,0.6038107258418373,0.7092136175915158],[0.4809313206793652,0.6038108161620869,0.7098320759516499],[0.48085847442454305,0.6038109019773119,0.7104196866320208],[0.48078917321001496,0.6038109836163656,0.7109787014217148],[0.4807231644054471,0.6038110613768548,0.7115111581507166],[0.48066021882780313,0.6038111355287648,0.7120189055125548],[0.4806001280827735,0.60381120631759,0.7125036245095306],[0.48054270225991397,0.6038112739670514,0.7129668470447693],[0.48048776792778164,0.6038113386814569,0.7134099720943523],[0.48043516638448147,0.6038114006477623,0.713834279819199],[0.4803847521264503,0.6038114600373754,0.7142409439165419],[0.48033639150436486,0.6038115170077396,0.7146310424619812],[0.48028996154002573,0.603811571703727,0.715005567453026],[0.4802453488821667,0.603811624258869,0.7153654332320108],[0.48020244888252134,0.6038116747964448,0.7157114839389559],[0.48016116477629406,0.6038117234304462,0.7160445001222586],[0.480121406953525,0.6038117702664368,0.7163652046161878],[0.4800830923098029,0.6038118154023163,0.7166742677783319],[0.48004614366642234,0.6038118589290035,0.7169723121668691],[0.4800104892514727,0.603811900931048,0.7172599167263334],[0.479976062234519,0.6038119414871783,0.7175376205410974],[0.4799428003085227,0.6038119806707942,0.7178059262077758],[0.47991064531350514,0.6038120185504098,0.7180653028709367],[0.47987954289716694,0.603812055190054,0.7183161889606928],[0.4798494422082992,0.603812090649631,0.7185589946657828],[0.4798202956193491,0.6038121249852478,0.7187941041714845],[0.47979205847495526,0.6038121582495098,0.7190218776880433],[0.4797646888636602,0.6038121904917899,0.7192426532921411],[0.47973814741034526,0.6038122217584733,0.7194567486012075],[0.47971239708722707,0.6038122520931799,0.7196644622980077],[0.47968740304150725,0.6038122815369676,0.719866075520905],[0.4796631324379862,0.6038123101285171,0.7200618531333971],[0.47963955431514993,0.6038123379043022,0.7202520448849901],[0.4796166394534022,0.6038123648987443,0.7204368864741024],[0.4793875666807848,0.6038526480302826,0.7211730241611485],[0.4791602098090859,0.6038926294155171,0.7219036477082166],[0.47893454963045945,0.6039323124322051,0.7226288188407546],[0.4787105672226778,0.603971700407877,0.7233485983663589],[0.4787105672226778,0.603971700407877,0.7233485983663589],[0.4787105672226778,0.603971700407877,0.7233485983663589],[0.4784882439438427,0.6040107966207661,0.7240630461917736],[0.4784882439438427,0.6040107966207661,0.7240630461917736],[0.4784882439438427,0.6040107966207661,0.7240630461917736]]'
p110
sg38
S'l1'
p111
sg40
(lp112
F0.25
aF0.0
aF0.0
aF0.0
aF0.0
aF0.0
aF0.0
aF0.0
aF0.0
aF0.0
aF0.0
aF0.0
aF0.0
aF0.0
aF0.0
aF0.0
aF0.0
aF0.0
aF0.0
aF0.0
aF0.0
aF0.0
aF0.0
aF0.0
aF0.0
aF0.0
aF0.0
aF0.0
aF0.0
aF0.0
aF0.0
aF0.0
aF0.0
aF0.0
aF0.0
aF0.0
aF0.0
aF0.0
aF0.0
aF0.0
aF0.0
aF0.0
aF0.0
aF0.0
aF0.0
aF0.0
aF0.0
aF0.0
aF0.0
aF0.0
aF0.0
aF0.0
aF0.0
aF0.0
aF0.0
aF0.0
aF0.0
aF0.0
aF0.0
aF0.0
aF0.0
aF0.0
aF0.0
aF0.0
aF0.0
aF0.0
aF0.0
aF0.0
aF0.0
aF0.0
aF0.0
aF0.0
aF0.0
aF0.0
aF0.0
aF0.0
aF0.0
aF0.0
aF0.0
aF0.0
aF0.0
aF0.0
aF0.0
aF0.0
aF0.0
aF0.0
aF0.0
aF0.0
aF0.0
aF0.0
aF0.0
aF0.0
aF0.0
aF0.0
aF0.0
aF0.0
aF0.0
aF0.0
aF0.25
aF0.25
aF0.25
asg42
(lp113
F0.25
aF0.0
aF0.0
aF0.0
aF0.0
aF0.0
aF0.0
aF0.0
aF0.0
aF0.0
aF0.0
aF0.0
aF0.0
aF0.0
aF0.0
aF0.0
aF0.0
aF0.0
aF0.0
aF0.0
aF0.0
aF0.0
aF0.0
aF0.0
aF0.0
aF0.0
aF0.0
aF0.0
aF0.0
aF0.0
aF0.0
aF0.0
aF0.0
aF0.0
aF0.0
aF0.0
aF0.0
aF0.0
aF0.0
aF0.0
aF0.0
aF0.0
aF0.0
aF0.0
aF0.0
aF0.0
aF0.0
aF0.0
aF0.0
aF0.0
aF0.0
aF0.0
aF0.0
aF0.0
aF0.0
aF0.0
aF0.0
aF0.0
aF0.0
aF0.0
aF0.0
aF0.0
aF0.0
aF0.0
aF0.0
aF0.0
aF0.0
aF0.0
aF0.0
aF0.0
aF0.0
aF0.0
aF0.0
aF0.0
aF0.0
aF0.0
aF0.0
aF0.0
aF0.0
aF0.0
aF0.0
aF0.0
aF0.0
aF0.0
aF0.0
aF0.0
aF0.0
aF0.0
aF0.0
aF0.0
aF0.0
aF0.0
aF0.0
aF0.0
aF0.0
aF0.0
aF0.0
aF0.0
aF0.25
aF0.25
aF0.25
asg44
S'[[0.54,0.97,0.61],[0.54,0.97,0.61],[0.54,0.97,0.61],[0.54,0.97,0.61],[0.54,0.97,0.61],[0.54,0.97,0.61],[0.54,0.97,0.61],[0.5577471963673494,0.6277841810710197,0.533100193944264],[0.5577471963673494,0.6277841810710197,0.533100193944264],[0.5577471963673494,0.6277841810710197,0.533100193944264],[0.5577471963673494,0.6277841810710197,0.533100193944264],[0.5577471963673494,0.6277841810710197,0.533100193944264],[0.5577471963673494,0.6277841810710197,0.533100193944264],[0.5577471963673494,0.6277841810710197,0.533100193944264],[0.5577471963673494,0.6277841810710197,0.533100193944264],[0.5577471963673494,0.6277841810710197,0.533100193944264],[0.5577471963673494,0.6277841810710197,0.533100193944264],[0.5577471963673494,0.6277841810710197,0.533100193944264],[0.5577471963673494,0.6277841810710197,0.533100193944264],[0.5577471963673494,0.6277841810710197,0.533100193944264],[0.5577471963673494,0.6277841810710197,0.533100193944264],[0.5577471963673494,0.6277841810710197,0.533100193944264],[0.5577471963673494,0.6277841810710197,0.533100193944264],[0.6025905961287078,0.623480911739202,0.5732526197657672],[0.6282842262017484,0.6347377463791043,0.6031329837038256],[0.6474376595289242,0.6431292049288498,0.6254074368212871],[0.6622661240402858,0.6496258179996205,0.6426521747186767],[0.6740859145928206,0.654804277693713,0.6563979802890599],[0.6837283753067305,0.6590288106020519,0.6676116637806879],[0.6917443968640773,0.6625407716945261,0.6769338825869816],[0.6985134817347258,0.6655064277281709,0.6848059784678514],[0.7043055852838372,0.6680440509322177,0.6915418955617918],[0.709317982585953,0.6702400710126428,0.697371054585394],[0.7136981856337478,0.6721591155874287,0.7024650043627759],[0.7175587035741773,0.6738504769075789,0.7069545872174178],[0.7209868435052785,0.6753524057598724,0.7109413367923398],[0.7240513928376265,0.6766950391278317,0.7145052492911336],[0.7268072825249902,0.6779024432357087,0.7177102065742216],[0.7303298111839985,0.6787171950316275,0.7202053602328841],[0.7335440222360916,0.6794606337600698,0.7224821196982282],[0.7364886977701895,0.6801417296182026,0.7245679559379667],[0.7391963772854465,0.6807680089082764,0.7264859180336622],[0.7391963772854465,0.6807680089082764,0.7264859180336622],[0.7416945651554228,0.681345833320975,0.7282554884778532],[0.7440066682678584,0.6818806168090777,0.7298932473433333],[0.7461527316594732,0.6823769957378915,0.7314133933638958],[0.7481500211591215,0.6828389636491095,0.7328281566447311],[0.7500134889167497,0.6832699789364606,0.7341481284159629],[0.7517561483918738,0.6836730515795748,0.7353825266525927],[0.753389378700585,0.684050813538663,0.7365394116561533],[0.7549231733740626,0.6844055762917185,0.7376258622607148],[0.7563663450239968,0.6847393781731016,0.7386481208059223],[0.7583384808283838,0.684490478039609,0.73918127426649],[0.7602110417534471,0.6842541450937822,0.7396875083377444],[0.761991383535826,0.684029450979761,0.7401688115929044],[0.7636861548186512,0.6838155565828353,0.7406269814472819],[0.7653013801221,0.6836117015578648,0.7410636465888075],[0.7668425313988939,0.6834171952983704,0.7414802863225688],[0.7683145899658937,0.683231409120248,0.7418782473135961],[0.7697221002887865,0.6830537694736879,0.7422587581271851],[0.7710692168433548,0.6828837520288868,0.7426229418975209],[0.7723597450712435,0.6827208765070883,0.7429718273997914],[0.7735971772806133,0.6825647021496151,0.7433063587556827],[0.7747847242049469,0.6824148237348843,0.7436274039650881],[0.7759253428205253,0.6822708680676073,0.7439357624263719],[0.7770217609300103,0.6821324908761343,0.7442321715823746],[0.7780764989424083,0.6819993740636401,0.7445173128084763],[0.7790918892154836,0.681871223266949,0.7447918166416874],[0.7800700932730646,0.6817477656835649,0.7450562674352285],[0.7810131171647389,0.6816287481331497,0.7453112075109197],[0.7820405685596772,0.6812850527634885,0.7458147542812303],[0.7830361918378316,0.6809520042978248,0.7463027023132545],[0.7840014433858612,0.6806291155565665,0.746775765371947],[0.7849376920704756,0.6803159286366417,0.7472346143293456],[0.7858462257153976,0.6800120127448738,0.747679880338884],[0.786728257011516,0.6797169622209606,0.748112157731918],[0.7875849289172699,0.6794303947309783,0.7485320066644157],[0.7884173195998315,0.6791519496144944,0.7489399555385964],[0.7892264469620069,0.6788812863702615,0.7493365032215336],[0.7900132727948201,0.678618083267127,0.7497221210803071],[0.7907787065913972,0.678362036068241,0.7500972548511614],[0.7915236090539504,0.6781128568579253,0.7504623263582545],[0.7917392084397137,0.6776266784437084,0.7513250172873717],[0.791952660777652,0.6771453416402552,0.7521791171035015],[0.7921639979809453,0.6766687744830793,0.7530247535027912],[0.7923732513334254,0.6761969064268779,0.7538620516631397],[0.7925804515050144,0.675729668310721,0.7546911343059703],[0.7927856285667101,0.675266992324258,0.7555121217561942],[0.7929888120051342,0.6748088119749105,0.7563251320004237],[0.7931900307366596,0.6743550620560159,0.7571302807435005],[0.7933893131211296,0.6739056786158919,0.7579276814633882],[0.7935866869751816,0.6734605989277881,0.7587174454644899],[0.7937821795851919,0.673019761460699,0.7594996819294414],[0.7939758177198503,0.6725831058510051,0.7602744979694288],[0.7941676276423797,0.6721505728749194,0.7610419986730829],[0.7943576351224109,0.6717221044217103,0.761802287153993],[0.7943576351224109,0.6717221044217103,0.761802287153993],[0.7943576351224109,0.6717221044217103,0.761802287153993],[0.7945458654475235,0.6712976434676738,0.76255546459689],[0.7945458654475235,0.6712976434676738,0.76255546459689],[0.7945458654475235,0.6712976434676738,0.76255546459689]]'
p114
sg46
S'[[0.54,0.88,0.96]]'
p115
sg48
(lp116
F0.674
aF0.435
aF0.12
asg50
S'[[0.23,0.63,0.84]]'
p117
sg52
(lp118
F0.25
aF0.9896907216494846
aF0.9896907216494846
aF0.9896907216494846
aF0.9896907216494846
aF0.5
aF0.5
aF0.5
aF0.010309278350515465
aF0.5
aF0.047619047619047616
aF0.047619047619047616
aF0.047619047619047616
aF0.8275862068965517
aF0.5
aF0.047619047619047616
aF0.047619047619047616
aF0.047619047619047616
aF0.8275862068965517
aF0.047619047619047616
aF0.047619047619047616
aF0.8275862068965517
aF0.047619047619047616
aF0.047619047619047616
aF0.5
aF0.5
aF0.5
aF0.5
aF0.5
aF0.5
aF0.5
aF0.5
aF0.5
aF0.5
aF0.5
aF0.5
aF0.5
aF0.5
aF0.5
aF0.5
aF0.5
aF0.5
aF0.5
aF0.5
aF0.5
aF0.5
aF0.5
aF0.5
aF0.5
aF0.5
aF0.5
aF0.5
aF0.5
aF0.5
aF0.5
aF0.5
aF0.5
aF0.5
aF0.5
aF0.5
aF0.5
aF0.5
aF0.5
aF0.5
aF0.5
aF0.5
aF0.5
aF0.5
aF0.5
aF0.5
aF0.5
aF0.5
aF0.5
aF0.5
aF0.5
aF0.5
aF0.5
aF0.5
aF0.5
aF0.5
aF0.5
aF0.5
aF0.047619047619047616
aF0.047619047619047616
aF0.047619047619047616
aF0.047619047619047616
aF0.047619047619047616
aF0.047619047619047616
aF0.047619047619047616
aF0.047619047619047616
aF0.047619047619047616
aF0.8275862068965517
aF0.8275862068965517
aF0.8275862068965517
aF0.8275862068965517
aF0.8275862068965517
aF0.5
aF0.5
aF0.25
aF0.25
aF0.25
assa.