(lp0
(dp1
S'iterationMax'
p2
I100
sS'CPU_Time'
p3
F1544014077.349626
sS'itemsCounts'
p4
I10
sS'memory_usage'
p5
I747134976
sS'generatedDataNumber'
p6
I100
sS'typeSelectionMode'
p7
S'AS'
p8
sS'simHeight'
p9
I10
sS'mcts_mode'
p10
S'UCTH'
p11
sS'endTime'
p12
F1544014077.349626
sS'reuseTree'
p13
S'False'
p14
sS'beginTime'
p15
F1544013963.344348
sS'PF_add_threshold'
p16
F0.9
sS'PF_weight'
p17
F1.2
sS'timeSteps'
p18
I30
sS'agentsCounts'
p19
I1
sS'simWidth'
p20
I10
sS'estimationMode'
p21
S'ABU'
p22
sS'maxDepth'
p23
I100
sa(dp24
I0
(dp25
S'l2TypeProbHistory'
p26
(lp27
F0.25
aF0.010309278350515465
aF0.5
aF0.5
aF0.5
aF0.5
aF0.5
aF0.047619047619047616
aF0.8275862068965517
aF0.8275862068965517
aF0.8275862068965517
aF0.8275862068965517
aF0.9896907216494846
aF0.9896907216494846
aF0.9896907216494846
aF0.9896907216494846
aF0.9896907216494846
aF0.9896907216494846
aF0.9896907216494846
aF0.9896907216494846
aF0.9994794377928162
aF0.9994794377928162
aF0.9975062344139651
aF0.9998750156230471
aF0.9999937500390622
aF0.9999937500390622
aF0.9999937500390623
aF0.9999937500390623
aF0.9999937500390621
aF0.999875015623047
aF0.9998750156230471
asS'maxProbability'
p28
S'l2'
p29
sS'l1EstimationHistory'
p30
S'[[0.23,0.95,0.74],[0.41616744412845863,0.39828855526271995,0.421549551736918],[0.18028857699696305,0.25680866060954827,0.2727591589603062],[0.17236940826019226,0.28870453486247605,0.34700247382655286],[0.261125680743348,0.259845344453031,0.31203814193046026],[0.12614914801363222,0.3535578777369426,0.2730344769213733],[0.228177459416573,0.3901349396117714,0.23093102687587025],[0.20370849342527309,0.29715611216067195,0.3252419753854083],[0.2391746598595185,0.2705662478835228,0.27404436105090973],[0.17656736775819376,0.2994800970776085,0.23713340642322525],[0.16684981151400596,0.31285362143467793,0.21881395456796487],[0.215479000232569,0.3323303099707554,0.37097167484069726],[0.1932583981055805,0.4297881708001764,0.2690671967893306],[0.10749755464424174,0.25725033588171975,0.20565254757194124],[0.22923121805014174,0.25854900832709526,0.30095795261346636],[0.19528522657648867,0.2931325265422302,0.2027949188943104],[0.19065959873074717,0.29442213294857444,0.3028853623730693],[0.2564398096053372,0.23917777245876004,0.29345151208335346],[0.20688940358412267,0.3656707418307283,0.32503876118611963],[0.16579999242130766,0.2836849046315281,0.40165892620190674],[0.27582699170020447,0.27203676744462774,0.28020660258980834],[0.19705698495112373,0.31871393915729296,0.3867230514992545],[0.2560756929333824,0.26582720594942166,0.24660365424593583],[0.17172723572990678,0.28453621526977463,0.20396067651993915],[0.2049712574700031,0.40488218388647557,0.22235866235831803],[0.3022837011226871,0.34077565163684265,0.3077362498493935],[0.10348894015997738,0.36518307496639313,0.23898299511098572],[0.19885681611476647,0.27522051364478417,0.30836954096534663],[0.20457075063282731,0.30110876762647437,0.23100249659769304],[0.2921531565169576,0.27465509787620623,0.29301792576980784],[0.2686087248518654,0.25295919293726243,0.3327618673874907]]'
p31
sS'trueType'
p32
S'l1'
p33
sS'f1TypeProbHistory'
p34
(lp35
F0.25
aF0.0
aF0.0
aF0.0
aF0.0
aF0.0
aF0.0
aF0.0
aF0.0
aF0.0
aF0.0
aF0.0
aF0.0
aF0.0
aF0.0
aF0.0
aF0.0
aF0.0
aF0.0
aF0.0
aF0.0
aF0.0
aF0.0
aF0.0
aF0.0
aF0.0
aF0.0
aF0.0
aF0.0
aF0.0
aF0.0
asS'f2TypeProbHistory'
p36
(lp37
F0.25
aF0.0
aF0.0
aF0.0
aF0.0
aF0.0
aF0.0
aF0.0
aF0.0
aF0.0
aF0.0
aF0.0
aF0.0
aF0.0
aF0.0
aF0.0
aF0.0
aF0.0
aF0.0
aF0.0
aF0.0
aF0.0
aF0.0
aF0.0
aF0.0
aF0.0
aF0.0
aF0.0
aF0.0
aF0.0
aF0.0
asS'l2EstimationHistory'
p38
S'[[0.32,0.77,0.72],[0.2168676755025228,0.2670492199354153,0.26462790249456186],[0.1715479172981149,0.3874744482899869,0.39008197014326706],[0.1454053767500219,0.39899460509454493,0.35031615240490777],[0.23025587047248264,0.3294144709582768,0.2347227411867328],[0.256867853464372,0.3016909939179347,0.2559030854948768],[0.22872305894264358,0.2888923221450935,0.27617139916120526],[0.25467350571232705,0.4180002323516172,0.3908892718792463],[0.23366750101026015,0.2909204069903789,0.36204260748545986],[0.24542741080438782,0.2519639783195914,0.25612957513194207],[0.23394908015889007,0.3676327426423417,0.2035742728118073],[0.2663476041919145,0.30816341308546574,0.2222780929743399],[0.30295157162389075,0.21469046922815327,0.36197594027529495],[0.3361967191475066,0.3060617703579873,0.27837660840781286],[0.21186806717235304,0.31742001317211765,0.36826399890211353],[0.29896837360704664,0.3737224645247462,0.37019847913171977],[0.301216466090839,0.18636155066889135,0.28043247408263594],[0.30666685446511804,0.2760539642069604,0.37229472487294524],[0.09300443609606794,0.3224641108072008,0.3143855092129073],[0.30198250757567435,0.3003600880120403,0.2950752384789711],[0.15489379099072537,0.2124838069773281,0.39828277724098277],[0.21723403459623927,0.36035272055882317,0.34586469261273195],[0.13790072507032866,0.3032227059204797,0.2966820143783932],[0.1980201901156909,0.2383612231859998,0.21872700014551838],[0.1935880109801176,0.2377906909415221,0.18101251580261815],[0.20830323949211058,0.3602601482898014,0.3192460694663858],[0.20459363639476674,0.3633692908541571,0.2215064880321171],[0.15689619943658267,0.29032049200831056,0.3782071721405368],[0.1451956810247425,0.2744727015421363,0.20308607819525534],[0.3306985822238241,0.25486136513980756,0.25015667039503875],[0.3381871861091042,0.36509877892672793,0.3099412732896486]]'
p39
sS'f1EstimationHistory'
p40
S'[[0.54,0.77,0.16]]'
p41
sS'trueParameters'
p42
(lp43
F1.0
aF0.834
aF0.296
asS'f2EstimationHistory'
p44
S'[[0.06,0.94,0.15]]'
p45
sS'l1TypeProbHistory'
p46
(lp47
F0.25
aF0.9896907216494846
aF0.5
aF0.5
aF0.5
aF0.5
aF0.5
aF0.9523809523809524
aF0.17241379310344832
aF0.17241379310344832
aF0.17241379310344832
aF0.17241379310344832
aF0.010309278350515467
aF0.010309278350515467
aF0.010309278350515469
aF0.010309278350515469
aF0.010309278350515469
aF0.010309278350515469
aF0.010309278350515469
aF0.010309278350515469
aF0.0005205622071837587
aF0.0005205622071837587
aF0.002493765586034914
aF0.00012498437695288096
aF6.249960937744142e-06
aF6.2499609377441425e-06
aF6.249960937744143e-06
aF6.249960937744143e-06
aF6.2499609377441425e-06
aF0.00012498437695288099
aF0.00012498437695288099
assa.