(lp0
(dp1
S'iterationMax'
p2
I50
sS'CPU_Time'
p3
ccopy_reg
_reconstructor
p4
(cpsutil._pslinux
scputimes
p5
c__builtin__
tuple
p6
(F13721439.47
F1475.82
F571177.76
F237351416.08
F6911.16
F0.0
F1822.15
F0.0
F0.0
F0.0
tp7
tp8
Rp9
sS'itemsCounts'
p10
I10
sS'memory_usage'
p11
I199856128
sS'generatedDataNumber'
p12
I100
sS'typeSelectionMode'
p13
S'AS'
p14
sS'simHeight'
p15
I10
sS'mcts_mode'
p16
S'UCTH'
p17
sS'endTime'
p18
F1547570134.654256
sS'reuseTree'
p19
S'False'
p20
sS'beginTime'
p21
F1547570055.661026
sS'PF_add_threshold'
p22
F0.9
sS'PF_weight'
p23
F1.2
sS'timeSteps'
p24
I54
sS'agentsCounts'
p25
I2
sS'simWidth'
p26
I10
sS'estimationMode'
p27
S'AGA'
p28
sS'maxDepth'
p29
I50
sa(dp30
I0
(dp31
S'l2TypeProbHistory'
p32
(lp33
F0.25
aF0.5
aF0.5
aF0.5
aF0.010309278350515465
aF0.00010849517196484758
aF0.00010849517196484759
aF0.0001084951719648476
aF0.0001084951719648476
aF0.0001084951719648476
aF0.0001084951719648476
aF0.0001084951719648476
aF0.0001084951719648476
aF0.0001084951719648476
aF0.0001084951719648476
aF0.00010849517196484759
aF0.00010849517196484762
aF0.00010849517196484762
aF0.00010849517196484762
aF0.00010849517196484762
aF0.00010849517196484759
aF0.00010849517196484762
aF0.00010849517196484762
aF1.1302793937633447e-06
aF1.1773756854048407e-08
aF1.1773756854048407e-08
aF1.1773756854048407e-08
aF1.1773756854048405e-08
aF1.1773756854048407e-08
aF1.1773756854048407e-08
aF1.1773756854048407e-08
aF1.1773756854048407e-08
aF1.130279393763345e-06
aF1.130279393763345e-06
aF1.1773756854048407e-08
aF1.1773756854048408e-08
aF1.1773756854048408e-08
aF1.130279393763345e-06
aF1.130279393763345e-06
aF0.0001084951719648476
aF0.0001084951719648476
aF0.0001084951719648476
aF0.010309278350515467
aF0.17241379310344834
aF0.8064516129032259
aF0.9881422924901186
aF0.9994003597841294
aF0.9994003597841294
aF0.9994003597841296
aF0.9994003597841296
aF0.999970000899973
aF0.999970000899973
aF0.999970000899973
aF0.999970000899973
aF0.999970000899973
asS'maxProbability'
p34
S'l2'
p35
sS'l1EstimationHistory'
p36
S'[[0.41,0.2,0.46],[0.41,0.2,0.4600000000000001],[0.41,0.2,0.46000000000000013],[0.41,0.2,0.4600000000000002],[0.41,0.2,0.46000000000000024],[0.41,0.2,0.4600000000000003],[0.41,0.2,0.46000000000000035],[0.41,0.2,0.4600000000000004],[0.41,0.2,0.46000000000000046],[0.41,0.2,0.4600000000000005],[0.41,0.2,0.4600000000000006],[0.41,0.2,0.46000000000000063],[0.41,0.2,0.4600000000000007],[0.41,0.2,0.46000000000000074],[0.41,0.2,0.4600000000000008],[0.41,0.2,0.46000000000000085],[0.41,0.2,0.4600000000000009],[0.41,0.2,0.46000000000000096],[0.41,0.2,0.460000000000001],[0.41,0.2,0.4600000000000011],[0.41,0.2,0.46000000000000113],[0.41,0.2,0.4600000000000012],[0.41,0.2,0.46000000000000124],[0.41,0.2,0.4600000000000013],[0.41,0.2,0.46000000000000135],[0.41,0.2,0.4600000000000014],[0.41,0.2,0.46000000000000146],[0.41,0.2,0.4600000000000015],[0.41,0.2,0.4600000000000016],[0.41,0.2,0.46000000000000163],[0.41,0.2,0.4600000000000017],[0.41,0.2,0.46000000000000174],[0.41,0.2,0.4600000000000018],[0.41,0.2,0.46000000000000185],[0.41,0.2,0.4600000000000019],[0.41,0.2,0.46000000000000196],[0.41,0.2,0.460000000000002],[0.41,0.2,0.4600000000000021],[0.41,0.2,0.46000000000000213],[0.41,0.2,0.4600000000000022],[0.41,0.2,0.46000000000000224],[0.41,0.2,0.4600000000000023],[0.41,0.2,0.46000000000000235],[0.41,0.2,0.4600000000000024],[0.41,0.2,0.46000000000000246],[0.41,0.2,0.4600000000000025],[0.41,0.2,0.4600000000000026],[0.41,0.2,0.46000000000000263],[0.41,0.2,0.4600000000000027],[0.41,0.2,0.46000000000000274],[0.41,0.2,0.4600000000000028],[0.41,0.2,0.46000000000000285],[0.41,0.2,0.4600000000000029],[0.41,0.2,0.46000000000000296],[0.41,0.2,0.460000000000003]]'
p37
sS'trueType'
p38
S'l1'
p39
sS'f1TypeProbHistory'
p40
(lp41
F0.25
aF0.0
aF0.0
aF0.0
aF0.0
aF0.0
aF0.0
aF0.0
aF0.0
aF0.0
aF0.0
aF0.0
aF0.0
aF0.0
aF0.0
aF0.0
aF0.0
aF0.0
aF0.0
aF0.0
aF0.0
aF0.0
aF0.0
aF0.0
aF0.0
aF0.0
aF0.0
aF0.0
aF0.0
aF0.0
aF0.0
aF0.0
aF0.0
aF0.0
aF0.0
aF0.0
aF0.0
aF0.0
aF0.0
aF0.0
aF0.0
aF0.0
aF0.0
aF0.0
aF0.0
aF0.0
aF0.0
aF0.0
aF0.0
aF0.0
aF0.0
aF0.0
aF0.0
aF0.0
aF0.0
asS'f2TypeProbHistory'
p42
(lp43
F0.25
aF0.0
aF0.0
aF0.0
aF0.0
aF0.0
aF0.0
aF0.0
aF0.0
aF0.0
aF0.0
aF0.0
aF0.0
aF0.0
aF0.0
aF0.0
aF0.0
aF0.0
aF0.0
aF0.0
aF0.0
aF0.0
aF0.0
aF0.0
aF0.0
aF0.0
aF0.0
aF0.0
aF0.0
aF0.0
aF0.0
aF0.0
aF0.0
aF0.0
aF0.0
aF0.0
aF0.0
aF0.0
aF0.0
aF0.0
aF0.0
aF0.0
aF0.0
aF0.0
aF0.0
aF0.0
aF0.0
aF0.0
aF0.0
aF0.0
aF0.0
aF0.0
aF0.0
aF0.0
aF0.0
asS'l2EstimationHistory'
p44
S'[[0.13,0.64,0.38],[0.13,0.64,0.38],[0.13,0.64,0.38],[0.13,0.64,0.38],[0.13,0.64,0.38],[0.13,0.64,0.38],[0.13,0.64,0.38],[0.13,0.64,0.38],[0.13,0.64,0.38],[0.13,0.64,0.38],[0.13,0.64,0.38],[0.13,0.64,0.38],[0.13,0.64,0.38],[0.13,0.64,0.38],[0.13,0.64,0.38],[0.13,0.64,0.38],[0.13,0.64,0.38],[0.13,0.64,0.38],[0.13,0.64,0.38],[0.13,0.64,0.38],[0.13,0.64,0.38],[0.13,0.64,0.38],[0.13,0.64,0.38],[0.13,0.64,0.38],[0.13,0.64,0.38],[0.13,0.64,0.38],[0.13,0.64,0.38],[0.13,0.64,0.38],[0.13,0.64,0.38],[0.13,0.64,0.38],[0.13,0.64,0.38],[0.13,0.64,0.38],[0.13,0.64,0.38],[0.13,0.64,0.38],[0.13,0.64,0.38],[0.13,0.64,0.38],[0.13,0.64,0.38],[0.13,0.64,0.38],[0.13,0.64,0.38],[0.13,0.64,0.38],[0.13,0.64,0.38],[0.13,0.64,0.38],[0.13,0.64,0.38],[0.13,0.64,0.38],[0.13,0.64,0.38],[0.13,0.64,0.38],[0.13,0.64,0.38],[0.13,0.64,0.38],[0.13,0.64,0.38],[0.13,0.64,0.38],[0.13,0.64,0.38],[0.13,0.64,0.38],[0.13,0.64,0.38],[0.13,0.64,0.38],[0.13,0.64,0.38]]'
p45
sS'f1EstimationHistory'
p46
S'[[0.66,0.42,0.17]]'
p47
sS'trueParameters'
p48
(lp49
F0.824
aF0.636
aF0.606
asS'f2EstimationHistory'
p50
S'[[0.99,0.47,0.31]]'
p51
sS'l1TypeProbHistory'
p52
(lp53
F0.25
aF0.5
aF0.5
aF0.5
aF0.9896907216494846
aF0.9998915048280351
aF0.9998915048280352
aF0.9998915048280352
aF0.9998915048280352
aF0.9998915048280352
aF0.9998915048280352
aF0.9998915048280352
aF0.9998915048280352
aF0.9998915048280352
aF0.9998915048280352
aF0.9998915048280351
aF0.9998915048280352
aF0.9998915048280352
aF0.9998915048280352
aF0.9998915048280352
aF0.9998915048280351
aF0.9998915048280352
aF0.9998915048280352
aF0.9999988697206061
aF0.9999999882262431
aF0.9999999882262433
aF0.9999999882262433
aF0.999999988226243
aF0.9999999882262431
aF0.9999999882262431
aF0.9999999882262433
aF0.9999999882262433
aF0.9999988697206064
aF0.9999988697206064
aF0.999999988226243
aF0.9999999882262431
aF0.9999999882262431
aF0.9999988697206064
aF0.9999988697206064
aF0.9998915048280352
aF0.9998915048280352
aF0.9998915048280352
aF0.9896907216494845
aF0.8275862068965516
aF0.1935483870967741
aF0.011857707509881417
aF0.0005996402158704773
aF0.0005996402158704773
aF0.0005996402158704773
aF0.0005996402158704773
aF2.9999100026999167e-05
aF2.9999100026999167e-05
aF2.999910002699917e-05
aF2.999910002699917e-05
aF2.9999100026999174e-05
assI1
(dp54
g32
(lp55
F0.25
aF0.1724137931034483
aF0.04159733777038271
aF0.008961215857767584
aF0.008961215857767584
aF0.008961215857767584
aF0.15314873805439846
aF0.1531487380543985
aF0.7834043619954877
aF0.4297186546024589
aF0.9377738299583478
aF0.9966932111318352
aF0.9966932111318353
aF0.9966932111318353
aF0.9966932111318352
aF0.9843243899771651
aF0.999204371129354
aF0.996192492998383
aF0.996192492998383
aF0.996192492998383
aF0.9999601884650213
aF0.9999980093479627
aF0.9999999792640005
aF0.9999999004672099
aF0.9999999950233599
aF0.9999999761121285
aF0.9999999988056063
aF0.9999999999402803
aF0.9999999999402803
aF0.9999999999970142
aF0.999999999997014
aF0.999999999997014
aF0.999999999999969
aF0.9999999999999998
aF1.0
aF1.0
aF1.0
aF1.0
aF1.0
aF1.0
aF1.0
aF1.0
aF1.0
aF1.0
aF1.0
aF1.0
aF1.0
aF1.0
aF1.0
aF1.0
aF1.0
aF1.0
aF1.0
aF1.0
aF1.0
asg34
g35
sg36
S'[[0.98,0.4,0.7],[0.9799999999999999,0.4,0.7],[0.9799999999999998,0.4,0.7],[0.9799999999999996,0.4,0.7],[0.9799999999999995,0.4,0.7],[0.9799999999999994,0.4,0.7],[0.9799999999999993,0.4,0.7],[0.9799999999999992,0.4,0.7],[0.9799999999999991,0.4,0.7],[0.979999999999999,0.4,0.7],[0.9799999999999989,0.4,0.7],[0.9799999999999988,0.4,0.7],[0.9799999999999986,0.4,0.7],[0.9799999999999985,0.4,0.7],[0.9799999999999984,0.4,0.7],[0.9799999999999983,0.4,0.7],[0.9799999999999982,0.4,0.7],[0.9799999999999981,0.4,0.7],[0.979999999999998,0.4,0.7],[0.9799999999999979,0.4,0.7],[0.9799999999999978,0.4,0.7],[0.9799999999999977,0.4,0.7],[0.9799999999999975,0.4,0.7],[0.9799999999999974,0.4,0.7],[0.9799999999999973,0.4,0.7],[0.9799999999999972,0.4,0.7],[0.9799999999999971,0.4,0.7],[0.979999999999997,0.4,0.7],[0.9799999999999969,0.4,0.7],[0.9799999999999968,0.4,0.7],[0.9799999999999967,0.4,0.7],[0.9799999999999965,0.4,0.7],[0.9799999999999964,0.4,0.7],[0.9799999999999963,0.4,0.7],[0.9799999999999962,0.4,0.7],[0.9799999999999961,0.4,0.7],[0.979999999999996,0.4,0.7],[0.9799999999999959,0.4,0.7],[0.9799999999999958,0.4,0.7],[0.9799999999999957,0.4,0.7],[0.9799999999999955,0.4,0.7],[0.9799999999999954,0.4,0.7],[0.9799999999999953,0.4,0.7],[0.9799999999999952,0.4,0.7],[0.9799999999999951,0.4,0.7],[0.979999999999995,0.4,0.7],[0.9799999999999949,0.4,0.7],[0.9799999999999948,0.4,0.7],[0.9799999999999947,0.4,0.7],[0.9799999999999945,0.4,0.7],[0.9799999999999944,0.4,0.7],[0.9799999999999943,0.4,0.7],[0.9799999999999942,0.4,0.7],[0.9799999999999941,0.4,0.7],[0.979999999999994,0.4,0.7]]'
p56
sg38
S'l1'
p57
sg40
(lp58
F0.25
aF0.0
aF0.0
aF0.0
aF0.0
aF0.0
aF0.0
aF0.0
aF0.0
aF0.0
aF0.0
aF0.0
aF0.0
aF0.0
aF0.0
aF0.0
aF0.0
aF0.0
aF0.0
aF0.0
aF0.0
aF0.0
aF0.0
aF0.0
aF0.0
aF0.0
aF0.0
aF0.0
aF0.0
aF0.0
aF0.0
aF0.0
aF0.0
aF0.0
aF0.0
aF0.0
aF0.0
aF0.0
aF0.0
aF0.0
aF0.0
aF0.0
aF0.0
aF0.0
aF0.0
aF0.0
aF0.0
aF0.0
aF0.0
aF0.0
aF0.0
aF0.0
aF0.0
aF0.0
aF0.0
asg42
(lp59
F0.25
aF0.0
aF0.0
aF0.0
aF0.0
aF0.0
aF0.0
aF0.0
aF0.0
aF0.0
aF0.0
aF0.0
aF0.0
aF0.0
aF0.0
aF0.0
aF0.0
aF0.0
aF0.0
aF0.0
aF0.0
aF0.0
aF0.0
aF0.0
aF0.0
aF0.0
aF0.0
aF0.0
aF0.0
aF0.0
aF0.0
aF0.0
aF0.0
aF0.0
aF0.0
aF0.0
aF0.0
aF0.0
aF0.0
aF0.0
aF0.0
aF0.0
aF0.0
aF0.0
aF0.0
aF0.0
aF0.0
aF0.0
aF0.0
aF0.0
aF0.0
aF0.0
aF0.0
aF0.0
aF0.0
asg44
S'[[0.71,0.2,0.21],[0.71,0.2,0.21],[0.71,0.2,0.21],[0.71,0.2,0.21],[0.71,0.2,0.21],[0.71,0.2,0.21],[0.71,0.2,0.21],[0.71,0.2,0.21],[0.71,0.2,0.21],[0.71,0.2,0.21],[0.71,0.2,0.21],[0.71,0.2,0.21],[0.71,0.2,0.21],[0.71,0.2,0.21],[0.71,0.2,0.21],[0.71,0.2,0.21],[0.71,0.2,0.21],[0.71,0.2,0.21],[0.71,0.2,0.21],[0.71,0.2,0.21],[0.71,0.2,0.21],[0.71,0.2,0.21],[0.71,0.2,0.21],[0.71,0.2,0.21],[0.71,0.2,0.21],[0.71,0.2,0.21],[0.71,0.2,0.21],[0.71,0.2,0.21],[0.71,0.2,0.21],[0.71,0.2,0.21],[0.71,0.2,0.21],[0.71,0.2,0.21],[0.71,0.2,0.21],[0.71,0.2,0.21],[0.71,0.2,0.21],[0.71,0.2,0.21],[0.71,0.2,0.21],[0.71,0.2,0.21],[0.71,0.2,0.21],[0.71,0.2,0.21],[0.71,0.2,0.21],[0.71,0.2,0.21],[0.71,0.2,0.21],[0.71,0.2,0.21],[0.71,0.2,0.21],[0.71,0.2,0.21],[0.71,0.2,0.21],[0.71,0.2,0.21],[0.71,0.2,0.21],[0.71,0.2,0.21],[0.71,0.2,0.21],[0.71,0.2,0.21],[0.71,0.2,0.21],[0.71,0.2,0.21],[0.71,0.2,0.21]]'
p60
sg46
S'[[0.91,0.83,0.93]]'
p61
sg48
(lp62
F0.376
aF0.749
aF0.807
asg50
S'[[0.08,0.98,0.15]]'
p63
sg52
(lp64
F0.25
aF0.8275862068965517
aF0.9584026622296173
aF0.9910387841422323
aF0.9910387841422323
aF0.9910387841422323
aF0.8468512619456015
aF0.8468512619456015
aF0.21659563800451231
aF0.5702813453975412
aF0.06222617004165211
aF0.003306788868164755
aF0.003306788868164755
aF0.003306788868164755
aF0.003306788868164755
aF0.015675610022835056
aF0.0007956288706459495
aF0.0038075070016169994
aF0.0038075070016169994
aF0.003807507001617
aF3.981153497858048e-05
aF1.9906520372965765e-06
aF2.07359995700183e-08
aF9.953279009322262e-08
aF4.976639975233049e-09
aF2.388787142936956e-08
aF1.1943935985734226e-09
aF5.971967999643349e-11
aF5.971967999643349e-11
aF2.985983999991081e-12
aF2.9859839999910804e-12
aF2.9859839999910804e-12
aF3.1103999999999e-14
aF3.239999999999995e-16
aF3.374999999999996e-18
aF3.515624999999996e-20
aF3.662109374999996e-22
aF3.814697265624996e-24
aF3.973642985026038e-26
aF4.139211442735456e-28
aF4.311678586182767e-30
aF4.491331860607049e-32
aF4.678470688132343e-34
aF4.678470688132343e-34
aF4.678470688132343e-34
aF4.678470688132343e-34
aF4.678470688132343e-34
aF2.3392353440661713e-35
aF1.1696176720330856e-36
aF1.1696176720330856e-36
aF1.1696176720330856e-36
aF1.1696176720330856e-36
aF5.614164825758811e-36
aF5.614164825758811e-36
aF5.614164825758811e-36
assa.