(lp0
(dp1
S'iterationMax'
p2
I50
sS'CPU_Time'
p3
ccopy_reg
_reconstructor
p4
(cpsutil._pslinux
scputimes
p5
c__builtin__
tuple
p6
(F13569404.37
F848.21
F797502.62
F237057364.27
F21774.72
F0.0
F1569.54
F0.0
F0.0
F0.0
tp7
tp8
Rp9
sS'itemsCounts'
p10
I10
sS'memory_usage'
p11
I198258688
sS'generatedDataNumber'
p12
I100
sS'typeSelectionMode'
p13
S'AS'
p14
sS'simHeight'
p15
I10
sS'mcts_mode'
p16
S'UCTH'
p17
sS'endTime'
p18
F1547570263.135278
sS'reuseTree'
p19
S'False'
p20
sS'beginTime'
p21
F1547570183.660454
sS'PF_add_threshold'
p22
F0.9
sS'PF_weight'
p23
F1.2
sS'timeSteps'
p24
I43
sS'agentsCounts'
p25
I2
sS'simWidth'
p26
I10
sS'estimationMode'
p27
S'AGA'
p28
sS'maxDepth'
p29
I50
sa(dp30
I0
(dp31
S'l2TypeProbHistory'
p32
(lp33
F0.25
aF0.9523809523809524
aF0.9523809523809524
aF0.9975062344139652
aF0.9998750156230471
aF0.9999986979183622
aF0.999999986436632
aF0.9999999864366322
aF0.9999999864366322
aF0.9999999864366322
aF0.9999999864366322
aF0.9999999864366322
aF0.9999999864366322
aF0.9999999864366322
aF0.9999999864366322
aF0.9999999864366322
aF0.9999999864366322
aF0.9999999864366322
aF0.9999999864366322
aF0.9999999864366322
aF0.9999999864366322
aF0.9999999864366322
aF0.9999999864366322
aF0.9999999864366322
aF0.9999999864366322
aF0.9999999864366322
aF0.9999999864366322
aF0.9999999864366322
aF0.9999999864366322
aF0.9999999864366322
aF0.9999999864366322
aF0.9999999864366322
aF0.9999999864366322
aF0.9999999864366322
aF0.9999999864366322
aF0.9999999864366322
aF0.9999999864366322
aF0.9999999864366322
aF0.9999999348958375
aF0.9999999967447917
aF0.9999999843750004
aF0.99999999921875
aF0.9999999992187499
aF0.9999999992187499
asS'maxProbability'
p34
S'l2'
p35
sS'l1EstimationHistory'
p36
S'[[0.32,0.9,0.55],[0.32,0.9000000000000001,0.55],[0.32,0.9000000000000002,0.55],[0.32,0.9000000000000004,0.55],[0.32,0.9000000000000005,0.55],[0.32,0.9000000000000006,0.55],[0.32,0.9000000000000007,0.55],[0.32,0.9000000000000008,0.55],[0.32,0.9000000000000009,0.55],[0.32,0.900000000000001,0.55],[0.32,0.9000000000000011,0.55],[0.32,0.9000000000000012,0.55],[0.32,0.9000000000000014,0.55],[0.32,0.9000000000000015,0.55],[0.32,0.9000000000000016,0.55],[0.32,0.9000000000000017,0.55],[0.32,0.9000000000000018,0.55],[0.32,0.9000000000000019,0.55],[0.32,0.900000000000002,0.55],[0.32,0.9000000000000021,0.55],[0.32,0.9000000000000022,0.55],[0.32,0.9000000000000024,0.55],[0.32,0.9000000000000025,0.55],[0.32,0.9000000000000026,0.55],[0.32,0.9000000000000027,0.55],[0.32,0.9000000000000028,0.55],[0.32,0.9000000000000029,0.55],[0.32,0.900000000000003,0.55],[0.32,0.9000000000000031,0.55],[0.32,0.9000000000000032,0.55],[0.32,0.9000000000000034,0.55],[0.32,0.9000000000000035,0.55],[0.32,0.9000000000000036,0.55],[0.32,0.9000000000000037,0.55],[0.32,0.9000000000000038,0.55],[0.32,0.9000000000000039,0.55],[0.32,0.900000000000004,0.55],[0.32,0.9000000000000041,0.55],[0.32,0.9000000000000042,0.55],[0.32,0.9000000000000044,0.55],[0.32,0.9000000000000045,0.55],[0.32,0.9000000000000046,0.55],[0.32,0.9000000000000047,0.55],[0.32,0.9000000000000048,0.55]]'
p37
sS'trueType'
p38
S'l1'
p39
sS'f1TypeProbHistory'
p40
(lp41
F0.25
aF0.0
aF0.0
aF0.0
aF0.0
aF0.0
aF0.0
aF0.0
aF0.0
aF0.0
aF0.0
aF0.0
aF0.0
aF0.0
aF0.0
aF0.0
aF0.0
aF0.0
aF0.0
aF0.0
aF0.0
aF0.0
aF0.0
aF0.0
aF0.0
aF0.0
aF0.0
aF0.0
aF0.0
aF0.0
aF0.0
aF0.0
aF0.0
aF0.0
aF0.0
aF0.0
aF0.0
aF0.0
aF0.0
aF0.0
aF0.0
aF0.0
aF0.0
aF0.0
asS'f2TypeProbHistory'
p42
(lp43
F0.25
aF0.0
aF0.0
aF0.0
aF0.0
aF0.0
aF0.0
aF0.0
aF0.0
aF0.0
aF0.0
aF0.0
aF0.0
aF0.0
aF0.0
aF0.0
aF0.0
aF0.0
aF0.0
aF0.0
aF0.0
aF0.0
aF0.0
aF0.0
aF0.0
aF0.0
aF0.0
aF0.0
aF0.0
aF0.0
aF0.0
aF0.0
aF0.0
aF0.0
aF0.0
aF0.0
aF0.0
aF0.0
aF0.0
aF0.0
aF0.0
aF0.0
aF0.0
aF0.0
asS'l2EstimationHistory'
p44
S'[[0.13,0.18,0.53],[0.13,0.18,0.53],[0.13,0.18,0.53],[0.13,0.18,0.53],[0.13,0.18,0.53],[0.13,0.18,0.53],[0.13,0.18,0.53],[0.13,0.18,0.53],[0.13,0.18,0.53],[0.13,0.18,0.53],[0.13,0.18,0.53],[0.13,0.18,0.53],[0.13,0.18,0.53],[0.13,0.18,0.53],[0.13,0.18,0.53],[0.13,0.18,0.53],[0.13,0.18,0.53],[0.13,0.18,0.53],[0.13,0.18,0.53],[0.13,0.18,0.53],[0.13,0.18,0.53],[0.13,0.18,0.53],[0.13,0.18,0.53],[0.13,0.18,0.53],[0.13,0.18,0.53],[0.13,0.18,0.53],[0.13,0.18,0.53],[0.13,0.18,0.53],[0.13,0.18,0.53],[0.13,0.18,0.53],[0.13,0.18,0.53],[0.13,0.18,0.53],[0.13,0.18,0.53],[0.13,0.18,0.53],[0.13,0.18,0.53],[0.13,0.18,0.53],[0.13,0.18,0.53],[0.13,0.18,0.53],[0.13,0.18,0.53],[0.13,0.18,0.53],[0.13,0.18,0.53],[0.13,0.18,0.53],[0.13,0.18,0.53],[0.13,0.18,0.53]]'
p45
sS'f1EstimationHistory'
p46
S'[[0.3,0.7,0.15]]'
p47
sS'trueParameters'
p48
(lp49
F0.536
aF0.28
aF0.317
asS'f2EstimationHistory'
p50
S'[[0.95,0.99,0.44]]'
p51
sS'l1TypeProbHistory'
p52
(lp53
F0.25
aF0.047619047619047616
aF0.047619047619047616
aF0.0024937655860349127
aF0.00012498437695288085
aF1.3020816379145336e-06
aF1.35633678715906e-08
aF1.3563367871590601e-08
aF1.3563367871590601e-08
aF1.3563367871590601e-08
aF1.3563367871590601e-08
aF1.3563367871590601e-08
aF1.3563367871590601e-08
aF1.3563367871590601e-08
aF1.3563367871590601e-08
aF1.3563367871590601e-08
aF1.3563367871590601e-08
aF1.3563367871590601e-08
aF1.3563367871590601e-08
aF1.3563367871590601e-08
aF1.3563367871590601e-08
aF1.3563367871590601e-08
aF1.3563367871590601e-08
aF1.3563367871590601e-08
aF1.3563367871590601e-08
aF1.3563367871590601e-08
aF1.3563367871590601e-08
aF1.3563367871590601e-08
aF1.3563367871590601e-08
aF1.3563367871590601e-08
aF1.3563367871590601e-08
aF1.3563367871590601e-08
aF1.3563367871590601e-08
aF1.3563367871590601e-08
aF1.3563367871590601e-08
aF1.3563367871590601e-08
aF1.3563367871590601e-08
aF1.3563367871590601e-08
aF6.51041624281144e-08
aF3.2552083227369507e-09
aF1.5624999755859372e-08
aF7.81249999389648e-10
aF7.812499993896479e-10
aF7.812499993896479e-10
assI1
(dp54
g32
(lp55
F0.25
aF0.5
aF0.010309278350515465
aF0.00010849517196484758
aF1.1302793937633445e-06
aF1.1773756854048403e-08
aF1.1773756854048403e-08
aF1.1773756854048403e-08
aF1.1773756854048403e-08
aF5.886878492869342e-10
aF5.886878492869342e-10
aF5.886878492869343e-10
aF5.886878492869343e-10
aF5.886878492869342e-10
aF5.886878492869343e-10
aF6.132165100311227e-12
aF6.132165100311227e-12
aF6.387671979529625e-14
aF6.387671979529626e-14
aF6.387671979529626e-14
aF6.387671979529626e-14
aF6.653824978677114e-16
aF3.326912489338559e-17
aF1.6634562446692794e-18
aF1.7327669215304995e-20
aF1.804965543260937e-22
aF1.804965543260937e-22
aF1.7327669215304995e-20
aF1.7327669215304995e-20
aF1.6634562446692794e-18
aF1.6634562446692794e-18
aF1.7327669215304995e-20
aF1.7327669215304995e-20
aF1.7327669215304995e-20
aF1.7327669215304995e-20
aF1.7327669215304995e-20
aF1.7327669215304995e-20
aF1.7327669215304995e-20
aF1.7327669215304995e-20
aF1.7327669215304995e-20
aF1.7327669215304995e-20
aF1.7327669215304995e-20
aF1.7327669215304995e-20
aF1.7327669215304995e-20
asg34
S'l1'
p56
sg36
S'[[0.31,0.45,0.72],[0.31,0.45,0.7199999999999999],[0.31,0.45,0.7199999999999998],[0.31,0.45,0.7199999999999996],[0.31,0.45,0.7199999999999995],[0.31,0.45,0.7199999999999994],[0.31,0.45,0.7199999999999993],[0.31,0.45,0.7199999999999992],[0.31,0.45,0.7199999999999991],[0.31,0.45,0.719999999999999],[0.31,0.45,0.7199999999999989],[0.31,0.45,0.7199999999999988],[0.31,0.45,0.7199999999999986],[0.31,0.45,0.7199999999999985],[0.31,0.45,0.7199999999999984],[0.31,0.45,0.7199999999999983],[0.31,0.45,0.7199999999999982],[0.31,0.45,0.7199999999999981],[0.31,0.45,0.719999999999998],[0.31,0.45,0.7199999999999979],[0.31,0.45,0.7199999999999978],[0.31,0.45,0.7199999999999976],[0.31,0.45,0.7199999999999975],[0.31,0.45,0.7199999999999974],[0.31,0.45,0.7199999999999973],[0.31,0.45,0.7199999999999972],[0.31,0.45,0.7199999999999971],[0.31,0.45,0.719999999999997],[0.31,0.45,0.7199999999999969],[0.31,0.45,0.7199999999999968],[0.31,0.45,0.7199999999999966],[0.31,0.45,0.7199999999999965],[0.31,0.45,0.7199999999999964],[0.31,0.45,0.7199999999999963],[0.31,0.45,0.7199999999999962],[0.31,0.45,0.7199999999999961],[0.31,0.45,0.719999999999996],[0.31,0.45,0.7199999999999959],[0.31,0.45,0.7199999999999958],[0.31,0.45,0.7199999999999956],[0.31,0.45,0.7199999999999955],[0.31,0.45,0.7199999999999954],[0.31,0.45,0.7199999999999953],[0.31,0.45,0.7199999999999952]]'
p57
sg38
S'l1'
p58
sg40
(lp59
F0.25
aF0.0
aF0.0
aF0.0
aF0.0
aF0.0
aF0.0
aF0.0
aF0.0
aF0.0
aF0.0
aF0.0
aF0.0
aF0.0
aF0.0
aF0.0
aF0.0
aF0.0
aF0.0
aF0.0
aF0.0
aF0.0
aF0.0
aF0.0
aF0.0
aF0.0
aF0.0
aF0.0
aF0.0
aF0.0
aF0.0
aF0.0
aF0.0
aF0.0
aF0.0
aF0.0
aF0.0
aF0.0
aF0.0
aF0.0
aF0.0
aF0.0
aF0.0
aF0.0
asg42
(lp60
F0.25
aF0.0
aF0.0
aF0.0
aF0.0
aF0.0
aF0.0
aF0.0
aF0.0
aF0.0
aF0.0
aF0.0
aF0.0
aF0.0
aF0.0
aF0.0
aF0.0
aF0.0
aF0.0
aF0.0
aF0.0
aF0.0
aF0.0
aF0.0
aF0.0
aF0.0
aF0.0
aF0.0
aF0.0
aF0.0
aF0.0
aF0.0
aF0.0
aF0.0
aF0.0
aF0.0
aF0.0
aF0.0
aF0.0
aF0.0
aF0.0
aF0.0
aF0.0
aF0.0
asg44
S'[[0.64,0.13,0.47],[0.6399999999999999,0.13,0.47],[0.6399999999999998,0.13,0.47],[0.6399999999999997,0.13,0.47],[0.6399999999999996,0.13,0.47],[0.6399999999999995,0.13,0.47],[0.6399999999999993,0.13,0.47],[0.6399999999999992,0.13,0.47],[0.6399999999999991,0.13,0.47],[0.639999999999999,0.13,0.47],[0.6399999999999989,0.13,0.47],[0.6399999999999988,0.13,0.47],[0.6399999999999987,0.13,0.47],[0.6399999999999986,0.13,0.47],[0.6399999999999985,0.13,0.47],[0.6399999999999983,0.13,0.47],[0.6399999999999982,0.13,0.47],[0.6399999999999981,0.13,0.47],[0.639999999999998,0.13,0.47],[0.6399999999999979,0.13,0.47],[0.6399999999999978,0.13,0.47],[0.6399999999999977,0.13,0.47],[0.6399999999999976,0.13,0.47],[0.6399999999999975,0.13,0.47],[0.6399999999999973,0.13,0.47],[0.6399999999999972,0.13,0.47],[0.6399999999999971,0.13,0.47],[0.639999999999997,0.13,0.47],[0.6399999999999969,0.13,0.47],[0.6399999999999968,0.13,0.47],[0.6399999999999967,0.13,0.47],[0.6399999999999966,0.13,0.47],[0.6399999999999965,0.13,0.47],[0.6399999999999963,0.13,0.47],[0.6399999999999962,0.13,0.47],[0.6399999999999961,0.13,0.47],[0.639999999999996,0.13,0.47],[0.6399999999999959,0.13,0.47],[0.6399999999999958,0.13,0.47],[0.6399999999999957,0.13,0.47],[0.6399999999999956,0.13,0.47],[0.6399999999999955,0.13,0.47],[0.6399999999999954,0.13,0.47],[0.6399999999999952,0.13,0.47]]'
p61
sg46
S'[[0.81,0.9,0.39]]'
p62
sg48
(lp63
F0.65
aF0.61
aF0.357
asg50
S'[[0.74,0.91,0.71]]'
p64
sg52
(lp65
F0.25
aF0.5
aF0.9896907216494846
aF0.9998915048280351
aF0.9999988697206061
aF0.9999999882262431
aF0.9999999882262433
aF0.9999999882262433
aF0.9999999882262433
aF0.9999999994113121
aF0.9999999994113121
aF0.9999999994113122
aF0.9999999994113122
aF0.999999999411312
aF0.9999999994113122
aF0.9999999999938679
aF0.9999999999938678
aF0.999999999999936
aF0.9999999999999362
aF0.9999999999999362
aF0.9999999999999362
aF0.9999999999999993
aF1.0
aF1.0
aF1.0
aF1.0
aF1.0
aF1.0
aF1.0
aF1.0
aF1.0
aF1.0
aF1.0
aF1.0
aF1.0
aF1.0
aF1.0
aF1.0
aF1.0
aF1.0
aF1.0
aF1.0
aF1.0
aF1.0
assa.