(lp0
(dp1
S'iterationMax'
p2
I50
sS'CPU_Time'
p3
ccopy_reg
_reconstructor
p4
(cpsutil._pslinux
scputimes
p5
c__builtin__
tuple
p6
(F13722368.8
F1475.82
F571188.85
F237358684.4
F6911.23
F0.0
F1822.2
F0.0
F0.0
F0.0
tp7
tp8
Rp9
sS'itemsCounts'
p10
I10
sS'memory_usage'
p11
I187219968
sS'generatedDataNumber'
p12
I100
sS'typeSelectionMode'
p13
S'AS'
p14
sS'simHeight'
p15
I10
sS'mcts_mode'
p16
S'UCTH'
p17
sS'endTime'
p18
F1547571161.009617
sS'reuseTree'
p19
S'False'
p20
sS'beginTime'
p21
F1547571107.765086
sS'PF_add_threshold'
p22
F0.9
sS'PF_weight'
p23
F1.2
sS'timeSteps'
p24
I38
sS'agentsCounts'
p25
I2
sS'simWidth'
p26
I10
sS'estimationMode'
p27
S'ABU'
p28
sS'maxDepth'
p29
I50
sa(dp30
I0
(dp31
S'l2TypeProbHistory'
p32
(lp33
F0.25
aF0.5
aF0.5
aF0.5
aF0.5
aF0.5
aF0.5
aF0.9896907216494846
aF0.9896907216494846
aF0.9896907216494846
aF0.9896907216494846
aF0.9896907216494846
aF0.9998915048280351
aF0.9999988697206061
aF0.9999999882262431
aF0.9999999998773567
aF0.9999999999987225
aF0.9999999999987226
aF0.9999999999999867
aF0.9999999999999868
aF0.9999999999999999
aF0.9999999999999999
aF0.9999999999999999
aF1.0
aF1.0
aF1.0
aF1.0
aF1.0
aF1.0
aF1.0
aF1.0
aF1.0
aF1.0
aF1.0
aF1.0
aF1.0
aF1.0
aF1.0
aF1.0
asS'maxProbability'
p34
S'l2'
p35
sS'l1EstimationHistory'
p36
S'[[0.83,0.93,0.98],[0.5273985826265716,0.601016552746296,0.47010362399949585],[0.682792729904818,0.5011277765035629,0.5611471546581981],[0.46198986051545543,0.6612679593265056,0.5590665094184143],[0.6947146221995354,0.5179579675197601,0.5689242526677224],[0.5743341319262981,0.5719786944000896,0.5508047552466202],[0.5083922497928143,0.545009758323431,0.44684676350668734],[0.5612140588462353,0.5632463417947292,0.45245147543287006],[0.549736562371254,0.5077114485204219,0.5526894908663145],[0.626050417125225,0.5007523303369485,0.6838694826617125],[0.4689374452240932,0.4225563742220402,0.5179317858614253],[0.4677427792337032,0.5730223968625069,0.5350727539477408],[0.4858394929035067,0.41608728244900706,0.6677454857346491],[0.41542376976944356,0.4919103659191248,0.6126362101342697],[0.5304913759688047,0.6346137255430222,0.5711433691439957],[0.45937264606008393,0.6766036376357079,0.6251316420483725],[0.3903547643978453,0.5369491226971149,0.626944300533362],[0.47810769249196117,0.6088061465549479,0.5285511727480559],[0.5133409481002199,0.5774631187319755,0.6071182654277256],[0.5567324074757831,0.6210071705281734,0.4670387301858068],[0.5659760774039265,0.5685172162950038,0.7528474355181679],[0.5419467893159242,0.49815568405090904,0.5008570060093241],[0.3647231440753551,0.5921747073531151,0.6605603967694795],[0.6867821130056688,0.5312955170869827,0.5096657086100682],[0.48007852095546066,0.6345511816442013,0.5078546200982688],[0.44211101487728977,0.7028199021751068,0.5090242139574934],[0.42192253695096715,0.37813867405056956,0.597762410304218],[0.5838658211419221,0.6449969694018364,0.6279080266931658],[0.4902230244064354,0.5005746580660343,0.5643321359247411],[0.5106969490345202,0.5990829800967417,0.5447839958754019],[0.5223334395171007,0.3597208492457867,0.44136845478245723],[0.597101885765976,0.4771244503557682,0.5634127606413664],[0.430597629926128,0.5747677251696587,0.47106087021286536],[0.5929886881200768,0.6644006151048384,0.6507537915569819],[0.44755838043363816,0.5902045108377934,0.4995259016105572],[0.569266671609369,0.6107783012092114,0.5288326928433063],[0.5076123943025397,0.391873649507761,0.6153762276326686],[0.6391356968472726,0.6294167513646493,0.48327114637987645],[0.4200009353470853,0.6285414606332779,0.5703040758097664]]'
p37
sS'trueType'
p38
S'l1'
p39
sS'f1TypeProbHistory'
p40
(lp41
F0.25
aF0.0
aF0.0
aF0.0
aF0.0
aF0.0
aF0.0
aF0.0
aF0.0
aF0.0
aF0.0
aF0.0
aF0.0
aF0.0
aF0.0
aF0.0
aF0.0
aF0.0
aF0.0
aF0.0
aF0.0
aF0.0
aF0.0
aF0.0
aF0.0
aF0.0
aF0.0
aF0.0
aF0.0
aF0.0
aF0.0
aF0.0
aF0.0
aF0.0
aF0.0
aF0.0
aF0.0
aF0.0
aF0.0
asS'f2TypeProbHistory'
p42
(lp43
F0.25
aF0.0
aF0.0
aF0.0
aF0.0
aF0.0
aF0.0
aF0.0
aF0.0
aF0.0
aF0.0
aF0.0
aF0.0
aF0.0
aF0.0
aF0.0
aF0.0
aF0.0
aF0.0
aF0.0
aF0.0
aF0.0
aF0.0
aF0.0
aF0.0
aF0.0
aF0.0
aF0.0
aF0.0
aF0.0
aF0.0
aF0.0
aF0.0
aF0.0
aF0.0
aF0.0
aF0.0
aF0.0
aF0.0
asS'l2EstimationHistory'
p44
S'[[0.2,0.68,0.15],[0.5845138683425086,0.55847008228302,0.6879098152273218],[0.5608835913528485,0.5284722305834293,0.5291212477169763],[0.4866123139858246,0.5261850267648697,0.5742078274833837],[0.4937114633619785,0.5749957457184791,0.5671061138435272],[0.6432084091007709,0.47097839644508505,0.5178531637018992],[0.6433746963739395,0.4605269216001034,0.5420239382637109],[0.4105689153075218,0.49960833191871645,0.5713607088696947],[0.631182250380516,0.5400064937770367,0.6441210490906563],[0.5702622398734093,0.44919236670887086,0.5753017212087816],[0.5775027332082782,0.5913553617894649,0.5533174663562012],[0.5440628862130665,0.6191085167229176,0.6426835241373443],[0.38945895778958395,0.5547594033181668,0.4925294328760713],[0.45820744508259886,0.4992051041619764,0.4357183488434778],[0.34916418992757614,0.4868017502129078,0.45686166575304304],[0.6118261025450586,0.5592196643352508,0.6480398069990753],[0.6321483806131546,0.5512823730707168,0.7121260036521674],[0.37453825788760214,0.653906668041216,0.5634368090399398],[0.46492676196922955,0.4054925501346588,0.44786097662065716],[0.39023405491742874,0.5687692619860172,0.46214189665958044],[0.5556108952191832,0.5710534192621708,0.5242724527477443],[0.6258961814544128,0.5529534648604904,0.5913614576696825],[0.3402664624594918,0.45538040101528166,0.6168421222586391],[0.40585882869743595,0.5124176941812039,0.5314663268009344],[0.4081929627623418,0.6506538040935993,0.5037957691693316],[0.36833933547113545,0.5391090514953075,0.7017553851134056],[0.3371404969655726,0.515799954533577,0.7316269053865009],[0.547968897036655,0.5952007792890072,0.4331179615947606],[0.4339062590654582,0.5394243113696575,0.698121677085893],[0.5132807772775895,0.4716437503853048,0.6020982212664661],[0.5532524695503831,0.8146857485175133,0.5897377641140241],[0.4222181615275469,0.4089591778814793,0.5694808132576854],[0.49987992080411925,0.44866412654519083,0.5329749105904589],[0.6408101902179741,0.5860325354171598,0.4689389561597029],[0.637435483505908,0.5869720935821533,0.5224306819126177],[0.6036483085246582,0.5579003371298313,0.53418126054535],[0.4083123588640558,0.48177644088864324,0.5027849982743782],[0.6345539541764548,0.5505564540612242,0.46449502925152925],[0.5642425062914628,0.5100583083927631,0.6375847020822004]]'
p45
sS'f1EstimationHistory'
p46
S'[[0.71,0.12,0.91]]'
p47
sS'trueParameters'
p48
(lp49
F0.75
aF0.505
aF0.3
asS'f2EstimationHistory'
p50
S'[[0.43,0.16,0.27]]'
p51
sS'l1TypeProbHistory'
p52
(lp53
F0.25
aF0.5
aF0.5
aF0.5
aF0.5
aF0.5
aF0.5
aF0.010309278350515465
aF0.010309278350515465
aF0.010309278350515465
aF0.010309278350515465
aF0.010309278350515465
aF0.00010849517196484758
aF1.1302793937633445e-06
aF1.1773756854048403e-08
aF1.2264330199193523e-10
aF1.2775343959043744e-12
aF1.2775343959043744e-12
aF1.3307649957354056e-14
aF1.3307649957354056e-14
aF1.3862135372243989e-16
aF1.3862135372243989e-16
aF1.443972434608749e-18
aF1.4439724346087491e-18
aF1.504137952717447e-20
aF1.504137952717447e-20
aF1.504137952717447e-20
aF1.5041379527174474e-20
aF1.5041379527174474e-20
aF1.5041379527174474e-20
aF1.5041379527174474e-20
aF1.5041379527174474e-20
aF1.5041379527174474e-20
aF1.5041379527174474e-20
aF1.5041379527174474e-20
aF1.5041379527174474e-20
aF1.5041379527174474e-20
aF1.5041379527174474e-20
aF1.5041379527174474e-20
assI1
(dp54
g32
(lp55
F0.25
aF0.9896907216494846
aF0.5
aF0.010309278350515465
aF0.010309278350515465
aF0.5
aF0.5
aF0.5
aF0.5
aF0.9896907216494846
aF0.9896907216494846
aF0.9896907216494846
aF0.9896907216494846
aF0.9896907216494846
aF0.9896907216494846
aF0.9896907216494846
aF0.8275862068965518
aF0.8275862068965518
aF0.8275862068965517
aF0.8275862068965517
aF0.8275862068965517
aF0.8275862068965517
aF0.9978345604157645
aF0.9999773948975763
aF0.9999773948975763
aF0.9978345604157645
aF0.9978345604157643
aF0.9978345604157643
aF0.9978345604157643
aF0.9978345604157643
aF0.8275862068965516
aF0.8275862068965517
aF0.8275862068965517
aF0.8275862068965517
aF0.8275862068965517
aF0.8275862068965517
aF0.8275862068965517
aF0.8275862068965517
aF0.8275862068965517
asg34
g35
sg36
S'[[0.25,0.12,0.47],[0.47708446979522706,0.6089000895619392,0.5886473410916897],[0.5045729008512706,0.5428112119219893,0.5944420166852993],[0.5719581601461383,0.47723606748693853,0.618345230803199],[0.4494158936253025,0.45051049541974963,0.5858543992350029],[0.4422947468049604,0.44984924790920866,0.5044334997863364],[0.6049707390446184,0.7710072166169198,0.4711908666168479],[0.4472299250148265,0.5853286599091513,0.48950808625517206],[0.32027147005556145,0.6006290277434444,0.4848776358549916],[0.4508171691063412,0.6475312316869758,0.5650086209147807],[0.42102943671847387,0.4680918795666491,0.5363810301600572],[0.5827219129009655,0.4879666216648507,0.6211921110596054],[0.39850409733195785,0.4438647293036473,0.5861297496652613],[0.6068618647147648,0.43357161219272733,0.6429990649319466],[0.6008549455895736,0.49520730293631904,0.6378546174135307],[0.42199893123696075,0.5583500026681683,0.5955904287104399],[0.5111256106720248,0.45696949213668725,0.5707841383865071],[0.5582136740336485,0.5253561649343961,0.6692771789114286],[0.5149832109479715,0.39746215155936365,0.5218140433646992],[0.5305092913229259,0.525012069796202,0.5407191694651244],[0.3801386110201369,0.6387879130819071,0.5466172252340021],[0.5214684509266481,0.40074130752866155,0.46108058284380027],[0.5265724486276775,0.5162364956184937,0.5820989123160751],[0.5032129085431766,0.4624567375961003,0.4747981305393457],[0.43935904322576824,0.5353340305944864,0.6504544923275593],[0.6233776650804558,0.49880762502667475,0.5084149236283122],[0.5560394821443632,0.5646353282970495,0.4013153480820132],[0.6200729687877333,0.4584412865125578,0.4717157863939382],[0.46586602790444714,0.5419316701770802,0.6526995229624705],[0.46936234697830725,0.6669220621752395,0.48731679263878913],[0.5616732239783203,0.4935530187764944,0.5231948958027803],[0.3413079282826338,0.5395609481481503,0.5866832370003869],[0.3902206395646254,0.36637005803658307,0.6726707536111103],[0.6425464702174756,0.6103091657769643,0.6327836890405021],[0.4899825493000125,0.6183407005866199,0.5702055468979859],[0.46496470500983966,0.5353602267079691,0.4171476314146356],[0.36986192384754696,0.5431360749175437,0.5559286720485327],[0.30118538466083505,0.5676290088878904,0.46748012292083185],[0.5834137067049675,0.521317405694764,0.5468080561455183]]'
p56
sg38
S'l2'
p57
sg40
(lp58
F0.25
aF0.0
aF0.0
aF0.0
aF0.0
aF0.0
aF0.0
aF0.0
aF0.0
aF0.0
aF0.0
aF0.0
aF0.0
aF0.0
aF0.0
aF0.0
aF0.0
aF0.0
aF0.0
aF0.0
aF0.0
aF0.0
aF0.0
aF0.0
aF0.0
aF0.0
aF0.0
aF0.0
aF0.0
aF0.0
aF0.0
aF0.0
aF0.0
aF0.0
aF0.0
aF0.0
aF0.0
aF0.0
aF0.0
asg42
(lp59
F0.25
aF0.0
aF0.0
aF0.0
aF0.0
aF0.0
aF0.0
aF0.0
aF0.0
aF0.0
aF0.0
aF0.0
aF0.0
aF0.0
aF0.0
aF0.0
aF0.0
aF0.0
aF0.0
aF0.0
aF0.0
aF0.0
aF0.0
aF0.0
aF0.0
aF0.0
aF0.0
aF0.0
aF0.0
aF0.0
aF0.0
aF0.0
aF0.0
aF0.0
aF0.0
aF0.0
aF0.0
aF0.0
aF0.0
asg44
S'[[0.8,0.76,0.34],[0.4825184369258812,0.4211955492864966,0.5091063406035482],[0.32909466364732565,0.6347549102852529,0.558247912194658],[0.43467583493871065,0.5662232416446099,0.4347604192972736],[0.3484942747666199,0.47354667033992204,0.5301156141987784],[0.6109836496190462,0.4902106511031737,0.5649618947843577],[0.5570649033255222,0.599830074611945,0.5642005209315161],[0.4354249348213369,0.5715918830002897,0.4407983788214292],[0.6409278368460413,0.3976919135850296,0.5177345568887786],[0.48368824207559513,0.41607541694262806,0.47053065383069237],[0.38168165297951145,0.6116024462119679,0.4651892450915275],[0.37771070610255997,0.4972249573427656,0.6429789183617505],[0.6860189766925127,0.5151861903037152,0.46296162758126647],[0.4049510086224594,0.47685292594190043,0.5249768560052083],[0.5117962960610394,0.5764677738600492,0.6090541006191215],[0.5871278638297194,0.6604712365340074,0.42261688568221734],[0.36935955283143435,0.6756258667820186,0.4370544099461583],[0.47409491873475407,0.5936952189012545,0.614863320344177],[0.6132899775825685,0.5076612671363177,0.5512361497912882],[0.46500080711733827,0.620970377844003,0.5245670787595897],[0.3816543572612455,0.7280372429261635,0.5585297103162798],[0.41398843377256683,0.48986122000715754,0.5488172779824672],[0.39854883102476574,0.507895769866449,0.5440676070141615],[0.5569946200519565,0.446723720433285,0.5063963238218173],[0.42262754059988994,0.4272216141453112,0.6604982516759196],[0.5252930870376686,0.6020954394569801,0.6378771407797765],[0.3325527251070642,0.6349234281121752,0.5333036329103245],[0.4721181191723122,0.5667790250828384,0.5874951122913511],[0.519021054248349,0.6291280914646944,0.6188522810055399],[0.5479379675381255,0.6901459802810972,0.28508539003595085],[0.4405289340384105,0.6165609210229899,0.48520050856544933],[0.58942998059624,0.6434250874517087,0.5523232327377584],[0.4603787840083672,0.5612449531476514,0.48403735191377406],[0.42880927004140384,0.5792228656530718,0.4188567221720704],[0.5331580543129804,0.5492806312732635,0.6741383777475976],[0.5671906430679965,0.5721504276604098,0.5624600288872427],[0.5310802266063542,0.46782531380168135,0.5333129444970278],[0.441213482647555,0.537532068607731,0.38545433742773544],[0.4562927106735127,0.38823043674015445,0.665531281972606]]'
p60
sg46
S'[[0.8,0.31,0.68]]'
p61
sg48
(lp62
F0.545
aF0.721
aF0.908
asg50
S'[[0.79,0.17,0.74]]'
p63
sg52
(lp64
F0.25
aF0.010309278350515465
aF0.5
aF0.9896907216494846
aF0.9896907216494846
aF0.5
aF0.5
aF0.5
aF0.5
aF0.010309278350515465
aF0.010309278350515465
aF0.010309278350515465
aF0.010309278350515465
aF0.010309278350515465
aF0.010309278350515465
aF0.010309278350515465
aF0.17241379310344832
aF0.1724137931034483
aF0.17241379310344826
aF0.17241379310344826
aF0.17241379310344826
aF0.17241379310344826
aF0.0021654395842356003
aF2.2605102423719088e-05
aF2.2605102423719088e-05
aF0.0021654395842356003
aF0.0021654395842356
aF0.0021654395842356
aF0.0021654395842356
aF0.0021654395842356
aF0.17241379310344826
aF0.1724137931034483
aF0.1724137931034483
aF0.1724137931034483
aF0.1724137931034483
aF0.1724137931034483
aF0.1724137931034483
aF0.1724137931034483
aF0.1724137931034483
assa.