(lp0
(dp1
S'iterationMax'
p2
I50
sS'CPU_Time'
p3
ccopy_reg
_reconstructor
p4
(cpsutil._pslinux
scputimes
p5
c__builtin__
tuple
p6
(F13637602.28
F1411.57
F570226.29
F221588443.22
F6880.32
F0.0
F1792.26
F0.0
F0.0
F0.0
tp7
tp8
Rp9
sS'itemsCounts'
p10
I15
sS'memory_usage'
p11
I435351552
sS'generatedDataNumber'
p12
I100
sS'typeSelectionMode'
p13
S'AS'
p14
sS'simHeight'
p15
I15
sS'mcts_mode'
p16
S'UCTH'
p17
sS'endTime'
p18
F1545588832.631682
sS'reuseTree'
p19
S'False'
p20
sS'beginTime'
p21
F1545588680.909655
sS'PF_add_threshold'
p22
F0.9
sS'PF_weight'
p23
F1.2
sS'timeSteps'
p24
I59
sS'agentsCounts'
p25
I7
sS'simWidth'
p26
I15
sS'estimationMode'
p27
S'MIN'
p28
sS'maxDepth'
p29
I50
sa(dp30
I0
(dp31
S'l2TypeProbHistory'
p32
(lp33
F0.25
aF0.010309278350515465
aF0.010309278350515465
aF0.010309278350515465
aF0.5
aF0.010309278350515465
aF0.5
aF0.010309278350515465
aF0.5
aF0.5
aF0.5
aF0.5
aF0.5
aF0.9896907216494846
aF0.9523809523809524
aF0.9523809523809524
aF0.1724137931034483
aF0.9523809523809524
aF0.1724137931034483
aF0.1724137931034483
aF0.9523809523809524
aF0.1724137931034483
aF0.9523809523809524
aF0.5
aF0.9896907216494846
aF0.5
aF0.5
aF0.5
aF0.5
aF0.5
aF0.5
aF0.5
aF0.5
aF0.5
aF0.5
aF0.5
aF0.010309278350515465
aF0.1724137931034483
aF0.1724137931034483
aF0.9523809523809524
aF0.0
aF0.0
aF0.0
aF0.0
aF0.0
aF0.0
aF0.0
aF0.0
aF0.0
aF0.25
aF0.25
aF0.25
aF0.25
aF0.25
aF0.25
aF0.25
aF0.25
aF0.25
aF0.25
aF0.25
asS'maxProbability'
p34
S'l1'
p35
sS'l1EstimationHistory'
p36
S'[[0.33,0.15,0.78],[0.33,0.15,0.78],[0.33,0.15,0.78],[0.33,0.15,0.78],[0.33,0.15,0.78],[0.33,0.15,0.78],[0.33,0.15,0.78],[0.33,0.15,0.78],[0.33,0.15,0.78],[0.33,0.15,0.78],[0.33,0.15,0.78],[0.49388528606222337,0.6781432161428247,0.3061230963624525],[0.49388528606222337,0.6781432161428247,0.3061230963624525],[0.4959082784848236,0.6533453566720236,0.35330311249211843],[0.4959082784848236,0.6533453566720236,0.35330311249211843],[0.49517140579422697,0.6412764559479942,0.38310665137214706],[0.49517140579422697,0.6412764559479942,0.38310665137214706],[0.49517140579422697,0.6412764559479942,0.38310665137214706],[0.49517140579422697,0.6412764559479942,0.38310665137214706],[0.49517140579422697,0.6412764559479942,0.38310665137214706],[0.49517140579422697,0.6412764559479942,0.38310665137214706],[0.49517140579422697,0.6412764559479942,0.38310665137214706],[0.49517140579422697,0.6412764559479942,0.38310665137214706],[0.5016092910723172,0.6349380024115555,0.4635343436561009],[0.5016092910723172,0.6349380024115555,0.4635343436561009],[0.5016092910723172,0.6349380024115555,0.4635343436561009],[0.5006809357689327,0.632285187229108,0.4984121395912104],[0.5002328878425888,0.631004871021363,0.5152450526873056],[0.49996900685529433,0.6302508197579059,0.5251589156150672],[0.49979510055577964,0.629753875032116,0.5316924792239482],[0.49979510055577964,0.629753875032116,0.5316924792239482],[0.49979510055577964,0.629753875032116,0.5316924792239482],[0.49979510055577964,0.629753875032116,0.5316924792239482],[0.49979510055577964,0.629753875032116,0.5316924792239482],[0.49979510055577964,0.629753875032116,0.5316924792239482],[0.49979510055577964,0.629753875032116,0.5316924792239482],[0.49979510055577964,0.629753875032116,0.5316924792239482],[0.49979510055577964,0.629753875032116,0.5316924792239482],[0.49979510055577964,0.629753875032116,0.5316924792239482],[0.49979510055577964,0.629753875032116,0.5316924792239482],[0.4996718539174279,0.629401692465578,0.5363227873467641],[0.4996718539174279,0.629401692465578,0.5363227873467641],[0.4996718539174279,0.629401692465578,0.5363227873467641],[0.4996718539174279,0.629401692465578,0.5363227873467641],[0.4996718539174279,0.629401692465578,0.5363227873467641],[0.4996718539174279,0.629401692465578,0.5363227873467641],[0.4996718539174279,0.629401692465578,0.5363227873467641],[0.4996718539174279,0.629401692465578,0.5363227873467641],[0.4996718539174279,0.629401692465578,0.5363227873467641],[0.49996795978923825,0.6295124794556621,0.5515461483791649],[0.49996795978923825,0.6295124794556621,0.5515461483791649],[0.49996795978923825,0.6295124794556621,0.5515461483791649],[0.49996795978923825,0.6295124794556621,0.5515461483791649],[0.49996795978923825,0.6295124794556621,0.5515461483791649],[0.49996795978923825,0.6295124794556621,0.5515461483791649],[0.49996795978923825,0.6295124794556621,0.5515461483791649],[0.49996795978923825,0.6295124794556621,0.5515461483791649],[0.49996795978923825,0.6295124794556621,0.5515461483791649],[0.49996795978923825,0.6295124794556621,0.5515461483791649],[0.49996795978923825,0.6295124794556621,0.5515461483791649]]'
p37
sS'trueType'
p38
g35
sS'f1TypeProbHistory'
p39
(lp40
F0.25
aF0.0
aF0.0
aF0.0
aF0.0
aF0.0
aF0.0
aF0.0
aF0.0
aF0.0
aF0.0
aF0.0
aF0.0
aF0.0
aF0.0
aF0.0
aF0.0
aF0.0
aF0.0
aF0.0
aF0.0
aF0.0
aF0.0
aF0.0
aF0.0
aF0.0
aF0.0
aF0.0
aF0.0
aF0.0
aF0.0
aF0.0
aF0.0
aF0.0
aF0.0
aF0.0
aF0.0
aF0.0
aF0.0
aF0.0
aF0.0
aF0.0
aF0.0
aF0.0
aF0.0
aF0.0
aF0.0
aF0.0
aF0.0
aF0.25
aF0.25
aF0.25
aF0.25
aF0.25
aF0.25
aF0.25
aF0.25
aF0.25
aF0.25
aF0.25
asS'f2TypeProbHistory'
p41
(lp42
F0.25
aF0.0
aF0.0
aF0.0
aF0.0
aF0.0
aF0.0
aF0.0
aF0.0
aF0.0
aF0.0
aF0.0
aF0.0
aF0.0
aF0.0
aF0.0
aF0.0
aF0.0
aF0.0
aF0.0
aF0.0
aF0.0
aF0.0
aF0.0
aF0.0
aF0.0
aF0.0
aF0.0
aF0.0
aF0.0
aF0.0
aF0.0
aF0.0
aF0.0
aF0.0
aF0.0
aF0.0
aF0.0
aF0.0
aF0.0
aF0.0
aF0.0
aF0.0
aF0.0
aF0.0
aF0.0
aF0.0
aF0.0
aF0.0
aF0.25
aF0.25
aF0.25
aF0.25
aF0.25
aF0.25
aF0.25
aF0.25
aF0.25
aF0.25
aF0.25
asS'l2EstimationHistory'
p43
S'[[0.78,0.71,0.12],[0.78,0.71,0.12],[0.78,0.71,0.12],[0.78,0.71,0.12],[0.78,0.71,0.12],[0.78,0.71,0.12],[0.78,0.71,0.12],[0.78,0.71,0.12],[0.78,0.71,0.12],[0.78,0.71,0.12],[0.78,0.71,0.12],[0.3960497860654022,0.7751635578504569,0.31139343191985275],[0.3960497860654022,0.7751635578504569,0.31139343191985275],[0.3973821894374063,0.7903470032985885,0.37101518681932727],[0.3973821894374063,0.7903470032985885,0.37101518681932727],[0.39838149196640926,0.8017345873846874,0.41573150299393313],[0.39838149196640926,0.8017345873846874,0.41573150299393313],[0.39838149196640926,0.8017345873846874,0.41573150299393313],[0.39838149196640926,0.8017345873846874,0.41573150299393313],[0.39838149196640926,0.8017345873846874,0.41573150299393313],[0.39838149196640926,0.8017345873846874,0.41573150299393313],[0.39838149196640926,0.8017345873846874,0.41573150299393313],[0.39838149196640926,0.8017345873846874,0.41573150299393313],[0.39680275765178624,0.8161506043864032,0.6055108522184292],[0.39680275765178624,0.8161506043864032,0.6055108522184292],[0.39680275765178624,0.8161506043864032,0.6055108522184292],[0.3966524020027746,0.8175235583865662,0.6235850759540956],[0.3965957105285571,0.818041229566956,0.630399947198691],[0.3965659475045928,0.8183130069366602,0.6339777546021038],[0.3965476086716452,0.8184804657200137,0.6361822621941055],[0.3965476086716452,0.8184804657200137,0.6361822621941055],[0.3965476086716452,0.8184804657200137,0.6361822621941055],[0.3965476086716452,0.8184804657200137,0.6361822621941055],[0.3965476086716452,0.8184804657200137,0.6361822621941055],[0.3965476086716452,0.8184804657200137,0.6361822621941055],[0.3965476086716452,0.8184804657200137,0.6361822621941055],[0.3965476086716452,0.8184804657200137,0.6361822621941055],[0.3965476086716452,0.8184804657200137,0.6361822621941055],[0.3965476086716452,0.8184804657200137,0.6361822621941055],[0.3965476086716452,0.8184804657200137,0.6361822621941055],[0.396535175564562,0.8185939970985583,0.6376768436124117],[0.396535175564562,0.8185939970985583,0.6376768436124117],[0.396535175564562,0.8185939970985583,0.6376768436124117],[0.396535175564562,0.8185939970985583,0.6376768436124117],[0.396535175564562,0.8185939970985583,0.6376768436124117],[0.396535175564562,0.8185939970985583,0.6376768436124117],[0.396535175564562,0.8185939970985583,0.6376768436124117],[0.396535175564562,0.8185939970985583,0.6376768436124117],[0.396535175564562,0.8185939970985583,0.6376768436124117],[0.396535175564562,0.8185939970985583,0.6376768436124117],[0.396535175564562,0.8185939970985583,0.6376768436124117],[0.396535175564562,0.8185939970985583,0.6376768436124117],[0.396535175564562,0.8185939970985583,0.6376768436124117],[0.396535175564562,0.8185939970985583,0.6376768436124117],[0.396535175564562,0.8185939970985583,0.6376768436124117],[0.396535175564562,0.8185939970985583,0.6376768436124117],[0.396535175564562,0.8185939970985583,0.6376768436124117],[0.396535175564562,0.8185939970985583,0.6376768436124117],[0.396535175564562,0.8185939970985583,0.6376768436124117],[0.396535175564562,0.8185939970985583,0.6376768436124117]]'
p44
sS'f1EstimationHistory'
p45
S'[[0.84,0.34,0.13]]'
p46
sS'trueParameters'
p47
(lp48
F0.465
aF0.16
aF0.543
asS'f2EstimationHistory'
p49
S'[[0.27,0.78,0.6]]'
p50
sS'l1TypeProbHistory'
p51
(lp52
F0.25
aF0.9896907216494846
aF0.9896907216494846
aF0.9896907216494846
aF0.5
aF0.9896907216494846
aF0.5
aF0.9896907216494846
aF0.5
aF0.5
aF0.5
aF0.5
aF0.5
aF0.010309278350515465
aF0.047619047619047616
aF0.047619047619047616
aF0.8275862068965517
aF0.047619047619047616
aF0.8275862068965517
aF0.8275862068965517
aF0.047619047619047616
aF0.8275862068965517
aF0.047619047619047616
aF0.5
aF0.010309278350515465
aF0.5
aF0.5
aF0.5
aF0.5
aF0.5
aF0.5
aF0.5
aF0.5
aF0.5
aF0.5
aF0.5
aF0.9896907216494846
aF0.8275862068965517
aF0.8275862068965517
aF0.047619047619047616
aF1.0
aF1.0
aF1.0
aF1.0
aF1.0
aF1.0
aF1.0
aF1.0
aF1.0
aF0.25
aF0.25
aF0.25
aF0.25
aF0.25
aF0.25
aF0.25
aF0.25
aF0.25
aF0.25
aF0.25
assI1
(dp53
g32
(lp54
F0.25
aF0.9896907216494846
aF0.9896907216494846
aF0.9896907216494846
aF0.9896907216494846
aF0.9896907216494846
aF0.9896907216494846
aF0.5
aF0.010309278350515465
aF0.5
aF0.010309278350515465
aF0.5
aF0.5
aF0.5
aF0.5
aF0.010309278350515465
aF0.5
aF0.5
aF0.5
aF0.5
aF0.5
aF0.5
aF0.010309278350515465
aF0.9896907216494846
aF0.5
aF0.010309278350515465
aF0.5
aF0.9896907216494846
aF0.9896907216494846
aF0.9896907216494846
aF0.9896907216494846
aF0.9896907216494846
aF0.9896907216494846
aF0.5
aF0.9523809523809524
aF0.010309278350515465
aF0.1724137931034483
aF0.9523809523809524
aF0.9523809523809524
aF0.9523809523809524
aF0.0
aF0.0
aF0.0
aF0.0
aF0.0
aF0.0
aF0.0
aF0.0
aF0.0
aF0.0
aF0.0
aF0.0
aF0.0
aF0.0
aF0.0
aF0.0
aF0.0
aF0.0
aF0.0
aF0.0
asg34
g35
sg36
S'[[0.64,0.66,0.19],[0.64,0.66,0.19],[0.64,0.66,0.19],[0.64,0.66,0.19],[0.64,0.66,0.19],[0.64,0.66,0.19],[0.64,0.66,0.19],[0.49948995507313093,0.6806505312672658,0.4949435888713898],[0.49948995507313093,0.6806505312672658,0.4949435888713898],[0.49948995507313093,0.6806505312672658,0.4949435888713898],[0.49948995507313093,0.6806505312672658,0.4949435888713898],[0.49948995507313093,0.6806505312672658,0.4949435888713898],[0.49948995507313093,0.6806505312672658,0.4949435888713898],[0.49948995507313093,0.6806505312672658,0.4949435888713898],[0.49948995507313093,0.6806505312672658,0.4949435888713898],[0.49948995507313093,0.6806505312672658,0.4949435888713898],[0.49948995507313093,0.6806505312672658,0.4949435888713898],[0.49948995507313093,0.6806505312672658,0.4949435888713898],[0.49948995507313093,0.6806505312672658,0.4949435888713898],[0.49948995507313093,0.6806505312672658,0.4949435888713898],[0.49948995507313093,0.6806505312672658,0.4949435888713898],[0.49948995507313093,0.6806505312672658,0.4949435888713898],[0.49948995507313093,0.6806505312672658,0.4949435888713898],[0.49948995507313093,0.6806505312672658,0.4949435888713898],[0.49948995507313093,0.6806505312672658,0.4949435888713898],[0.49948995507313093,0.6806505312672658,0.4949435888713898],[0.49948995507313093,0.6806505312672658,0.4949435888713898],[0.49948995507313093,0.6806505312672658,0.49494358887138973],[0.4907808199564319,0.6787727898408789,0.5460242573306827],[0.48490721720330937,0.677506406088199,0.5804740104776479],[0.48067822322106113,0.6765946097862697,0.6052778327434627],[0.4774879295151545,0.6759067634532353,0.6239894881369722],[0.474995512557415,0.6753693835055522,0.6386079689131514],[0.474995512557415,0.6753693835055522,0.6386079689131514],[0.474995512557415,0.6753693835055522,0.6386079689131514],[0.474995512557415,0.6753693835055522,0.6386079689131514],[0.474995512557415,0.6753693835055522,0.6386079689131514],[0.474995512557415,0.6753693835055522,0.6386079689131514],[0.474995512557415,0.6753693835055522,0.6386079689131514],[0.474995512557415,0.6753693835055522,0.6386079689131514],[0.4729945580983847,0.674937965801074,0.6503439323531827],[0.4741247633482511,0.6758160838888345,0.6597872602602901],[0.4751579552719486,0.6766188270334395,0.6684200020809503],[0.47610611082332543,0.6773555007834267,0.6763422301715152],[0.47697931336668814,0.6780339394543635,0.6836381951719167],[0.47778611267481425,0.6786607858309325,0.6903793339365465],[0.4785338058065208,0.6792417093960315,0.696626616381423],[0.4792286584342199,0.6797815782922186,0.7024323947665908],[0.4792286584342199,0.6797815782922186,0.7024323947665908],[0.4792286584342199,0.6797815782922186,0.7024323947665908],[0.4792286584342199,0.6797815782922186,0.7024323947665908],[0.4792286584342199,0.6797815782922186,0.7024323947665908],[0.4792286584342199,0.6797815782922186,0.7024323947665908],[0.4792286584342199,0.6797815782922186,0.7024323947665908],[0.4792286584342199,0.6797815782922186,0.7024323947665908],[0.4792286584342199,0.6797815782922186,0.7024323947665908],[0.4792286584342199,0.6797815782922186,0.7024323947665908],[0.4792286584342199,0.6797815782922186,0.7024323947665908],[0.4792286584342199,0.6797815782922186,0.7024323947665908],[0.4792286584342199,0.6797815782922186,0.7024323947665908]]'
p55
sg38
g35
sg39
(lp56
F0.25
aF0.0
aF0.0
aF0.0
aF0.0
aF0.0
aF0.0
aF0.0
aF0.0
aF0.0
aF0.0
aF0.0
aF0.0
aF0.0
aF0.0
aF0.0
aF0.0
aF0.0
aF0.0
aF0.0
aF0.0
aF0.0
aF0.0
aF0.0
aF0.0
aF0.0
aF0.0
aF0.0
aF0.0
aF0.0
aF0.0
aF0.0
aF0.0
aF0.0
aF0.0
aF0.0
aF0.0
aF0.0
aF0.0
aF0.0
aF0.0
aF0.0
aF0.0
aF0.0
aF0.0
aF0.0
aF0.0
aF0.0
aF0.0
aF0.0
aF0.0
aF0.0
aF0.0
aF0.0
aF0.0
aF0.0
aF0.0
aF0.0
aF0.0
aF0.0
asg41
(lp57
F0.25
aF0.0
aF0.0
aF0.0
aF0.0
aF0.0
aF0.0
aF0.0
aF0.0
aF0.0
aF0.0
aF0.0
aF0.0
aF0.0
aF0.0
aF0.0
aF0.0
aF0.0
aF0.0
aF0.0
aF0.0
aF0.0
aF0.0
aF0.0
aF0.0
aF0.0
aF0.0
aF0.0
aF0.0
aF0.0
aF0.0
aF0.0
aF0.0
aF0.0
aF0.0
aF0.0
aF0.0
aF0.0
aF0.0
aF0.0
aF0.0
aF0.0
aF0.0
aF0.0
aF0.0
aF0.0
aF0.0
aF0.0
aF0.0
aF0.0
aF0.0
aF0.0
aF0.0
aF0.0
aF0.0
aF0.0
aF0.0
aF0.0
aF0.0
aF0.0
asg43
S'[[0.8,0.42,0.65],[0.8,0.42,0.65],[0.8,0.42,0.65],[0.8,0.42,0.65],[0.8,0.42,0.65],[0.8,0.42,0.65],[0.8,0.42,0.65],[0.680207077193598,0.7091429420956175,0.5041096313257971],[0.680207077193598,0.7091429420956175,0.5041096313257971],[0.680207077193598,0.7091429420956175,0.5041096313257971],[0.680207077193598,0.7091429420956175,0.5041096313257971],[0.680207077193598,0.7091429420956175,0.5041096313257971],[0.680207077193598,0.7091429420956175,0.5041096313257971],[0.680207077193598,0.7091429420956175,0.5041096313257971],[0.680207077193598,0.7091429420956175,0.5041096313257971],[0.680207077193598,0.7091429420956175,0.5041096313257971],[0.680207077193598,0.7091429420956175,0.5041096313257971],[0.680207077193598,0.7091429420956175,0.5041096313257971],[0.680207077193598,0.7091429420956175,0.5041096313257971],[0.680207077193598,0.7091429420956175,0.5041096313257971],[0.680207077193598,0.7091429420956175,0.5041096313257971],[0.680207077193598,0.7091429420956175,0.5041096313257971],[0.680207077193598,0.7091429420956175,0.5041096313257971],[0.680207077193598,0.7091429420956175,0.5041096313257971],[0.680207077193598,0.7091429420956175,0.5041096313257971],[0.680207077193598,0.7091429420956175,0.5041096313257971],[0.680207077193598,0.7091429420956175,0.5041096313257971],[0.680207077193598,0.7091429420956175,0.5041096313257971],[0.6979992919847087,0.7052621144419251,0.5211481390167122],[0.7134335024059132,0.7018956133447461,0.5359285312305182],[0.7253520072014276,0.6973021324614308,0.5428576539554543],[0.7362227313555779,0.6931124740733519,0.5491776230342421],[0.7461780261072737,0.6892756290232165,0.5549653841906057],[0.7461780261072737,0.6892756290232165,0.5549653841906057],[0.7461780261072737,0.6892756290232165,0.5549653841906057],[0.7461780261072737,0.6892756290232165,0.5549653841906057],[0.7461780261072737,0.6892756290232165,0.5549653841906057],[0.7461780261072737,0.6892756290232165,0.5549653841906057],[0.7461780261072737,0.6892756290232165,0.5549653841906057],[0.7461780261072737,0.6892756290232165,0.5549653841906057],[0.7553288525962061,0.6857488320579406,0.5602854474757479],[0.7553288525962061,0.6857488320579406,0.5602854474757479],[0.7553288525962061,0.6857488320579406,0.5602854474757479],[0.7553288525962061,0.6857488320579406,0.5602854474757479],[0.7553288525962061,0.6857488320579406,0.5602854474757479],[0.7553288525962061,0.6857488320579406,0.5602854474757479],[0.7553288525962061,0.6857488320579406,0.5602854474757479],[0.7553288525962061,0.6857488320579406,0.5602854474757479],[0.7553288525962061,0.6857488320579406,0.5602854474757479],[0.7553288525962061,0.6857488320579406,0.5602854474757479],[0.7553288525962061,0.6857488320579406,0.5602854474757479],[0.7553288525962061,0.6857488320579406,0.5602854474757479],[0.7553288525962061,0.6857488320579406,0.5602854474757479],[0.7553288525962061,0.6857488320579406,0.5602854474757479],[0.7553288525962061,0.6857488320579406,0.5602854474757479],[0.7553288525962061,0.6857488320579406,0.5602854474757479],[0.7553288525962061,0.6857488320579406,0.5602854474757479],[0.7553288525962061,0.6857488320579406,0.5602854474757479],[0.7553288525962061,0.6857488320579406,0.5602854474757479],[0.7553288525962061,0.6857488320579406,0.5602854474757479]]'
p58
sg45
S'[[0.33,0.54,0.56]]'
p59
sg47
(lp60
F0.192
aF0.757
aF0.85
asg49
S'[[0.64,0.1,0.99]]'
p61
sg51
(lp62
F0.25
aF0.010309278350515465
aF0.010309278350515465
aF0.010309278350515465
aF0.010309278350515465
aF0.010309278350515465
aF0.010309278350515465
aF0.5
aF0.9896907216494846
aF0.5
aF0.9896907216494846
aF0.5
aF0.5
aF0.5
aF0.5
aF0.9896907216494846
aF0.5
aF0.5
aF0.5
aF0.5
aF0.5
aF0.5
aF0.9896907216494846
aF0.010309278350515465
aF0.5
aF0.9896907216494846
aF0.5
aF0.010309278350515465
aF0.010309278350515465
aF0.010309278350515465
aF0.010309278350515465
aF0.010309278350515465
aF0.010309278350515465
aF0.5
aF0.047619047619047616
aF0.9896907216494846
aF0.8275862068965517
aF0.047619047619047616
aF0.047619047619047616
aF0.047619047619047616
aF1.0
aF1.0
aF1.0
aF1.0
aF1.0
aF1.0
aF1.0
aF1.0
aF1.0
aF1.0
aF1.0
aF1.0
aF1.0
aF1.0
aF1.0
aF1.0
aF1.0
aF1.0
aF1.0
aF1.0
assI2
(dp63
g32
(lp64
F0.25
aF0.010309278350515465
aF0.5
aF0.5
aF0.010309278350515465
aF0.5
aF0.5
aF0.9896907216494846
aF0.5
aF0.5
aF0.9896907216494846
aF0.5
aF0.5
aF0.5
aF0.5
aF0.5
aF0.9896907216494846
aF0.5
aF0.5
aF0.9896907216494846
aF0.9896907216494846
aF0.5
aF0.5
aF0.5
aF0.5
aF0.5
aF0.5
aF0.010309278350515465
aF0.9896907216494846
aF0.9896907216494846
aF0.9523809523809524
aF0.5
aF0.5
aF0.5
aF0.1724137931034483
aF0.5
aF0.9896907216494846
aF0.9523809523809524
aF0.9523809523809524
aF0.9523809523809524
aF0.9523809523809524
aF0.9523809523809524
aF0.9523809523809524
aF0.9523809523809524
aF0.9523809523809524
aF0.1724137931034483
aF0.9523809523809524
aF0.9523809523809524
aF0.5
aF0.1724137931034483
aF0.9523809523809524
aF0.9523809523809524
aF0.5
aF0.1724137931034483
aF0.5
aF0.5
aF0.9523809523809524
aF0.9523809523809524
aF0.9523809523809524
aF0.9523809523809524
asg34
S'l2'
p65
sg36
S'[[0.74,0.21,0.73],[0.74,0.21,0.73],[0.74,0.21,0.73],[0.74,0.21,0.73],[0.74,0.21,0.73],[0.74,0.21,0.73],[0.494055890528044,0.5633835096435359,0.5793367820953961],[0.494055890528044,0.5633835096435359,0.5793367820953961],[0.494055890528044,0.5633835096435359,0.5793367820953961],[0.494055890528044,0.5633835096435359,0.5793367820953961],[0.494055890528044,0.5633835096435359,0.5793367820953961],[0.494055890528044,0.5633835096435359,0.5793367820953961],[0.494055890528044,0.5633835096435359,0.5793367820953961],[0.494055890528044,0.5633835096435359,0.5793367820953961],[0.494055890528044,0.5633835096435359,0.5793367820953961],[0.494055890528044,0.5633835096435359,0.5793367820953961],[0.494055890528044,0.5633835096435359,0.5793367820953961],[0.494055890528044,0.5633835096435359,0.5793367820953961],[0.494055890528044,0.5633835096435359,0.5793367820953961],[0.494055890528044,0.5633835096435359,0.5793367820953961],[0.494055890528044,0.5633835096435359,0.5793367820953961],[0.494055890528044,0.5633835096435359,0.5793367820953961],[0.494055890528044,0.5633835096435359,0.5793367820953961],[0.494055890528044,0.5633835096435359,0.5793367820953961],[0.494055890528044,0.5633835096435359,0.5793367820953961],[0.494055890528044,0.5633835096435359,0.5793367820953961],[0.494055890528044,0.5633835096435359,0.5793367820953961],[0.494055890528044,0.5633835096435359,0.5793367820953961],[0.494055890528044,0.5633835096435359,0.5793367820953961],[0.494055890528044,0.5633835096435359,0.5793367820953961],[0.494055890528044,0.5633835096435359,0.5793367820953961],[0.494055890528044,0.5633835096435359,0.5793367820953961],[0.5085149849858883,0.5596359788011864,0.6196620547502512],[0.5085149849858883,0.5596359788011864,0.6196620547502512],[0.5085149849858883,0.5596359788011864,0.6196620547502512],[0.5085149849858883,0.5596359788011864,0.6196620547502512],[0.5170224134102085,0.5665177067135679,0.6414351377633816],[0.5259013157319694,0.5774874185653273,0.658194795359702],[0.5259013157319694,0.5774874185653273,0.658194795359702],[0.5259013157319694,0.5774874185653273,0.658194795359702],[0.5259013157319694,0.5774874185653273,0.658194795359702],[0.5259013157319694,0.5774874185653273,0.658194795359702],[0.5315718751979678,0.5844932849580476,0.6688984422279401],[0.5345527507152286,0.5927543982564373,0.6753469893035038],[0.5345527507152286,0.5927543982564373,0.6753469893035038],[0.5345527507152286,0.5927543982564373,0.6753469893035038],[0.5345527507152286,0.5927543982564373,0.6753469893035038],[0.5345527507152286,0.5927543982564373,0.6753469893035038],[0.5345527507152286,0.5927543982564373,0.6753469893035038],[0.5345527507152286,0.5927543982564373,0.6753469893035038],[0.5345527507152286,0.5927543982564373,0.6753469893035038],[0.5345527507152286,0.5927543982564373,0.6753469893035038],[0.5345527507152286,0.5927543982564373,0.6753469893035038],[0.5345527507152286,0.5927543982564373,0.6753469893035038],[0.5345527507152286,0.5927543982564373,0.6753469893035038],[0.5345527507152286,0.5927543982564373,0.6753469893035038],[0.5345527507152286,0.5927543982564373,0.6753469893035038],[0.5345527507152286,0.5927543982564373,0.6753469893035038],[0.5345527507152286,0.5927543982564373,0.6753469893035038],[0.5345527507152286,0.5927543982564373,0.6753469893035038]]'
p66
sg38
S'l2'
p67
sg39
(lp68
F0.25
aF0.0
aF0.0
aF0.0
aF0.0
aF0.0
aF0.0
aF0.0
aF0.0
aF0.0
aF0.0
aF0.0
aF0.0
aF0.0
aF0.0
aF0.0
aF0.0
aF0.0
aF0.0
aF0.0
aF0.0
aF0.0
aF0.0
aF0.0
aF0.0
aF0.0
aF0.0
aF0.0
aF0.0
aF0.0
aF0.0
aF0.0
aF0.0
aF0.0
aF0.0
aF0.0
aF0.0
aF0.0
aF0.0
aF0.0
aF0.0
aF0.0
aF0.0
aF0.0
aF0.0
aF0.0
aF0.0
aF0.0
aF0.0
aF0.0
aF0.0
aF0.0
aF0.0
aF0.0
aF0.0
aF0.0
aF0.0
aF0.0
aF0.0
aF0.0
asg41
(lp69
F0.25
aF0.0
aF0.0
aF0.0
aF0.0
aF0.0
aF0.0
aF0.0
aF0.0
aF0.0
aF0.0
aF0.0
aF0.0
aF0.0
aF0.0
aF0.0
aF0.0
aF0.0
aF0.0
aF0.0
aF0.0
aF0.0
aF0.0
aF0.0
aF0.0
aF0.0
aF0.0
aF0.0
aF0.0
aF0.0
aF0.0
aF0.0
aF0.0
aF0.0
aF0.0
aF0.0
aF0.0
aF0.0
aF0.0
aF0.0
aF0.0
aF0.0
aF0.0
aF0.0
aF0.0
aF0.0
aF0.0
aF0.0
aF0.0
aF0.0
aF0.0
aF0.0
aF0.0
aF0.0
aF0.0
aF0.0
aF0.0
aF0.0
aF0.0
aF0.0
asg43
S'[[0.63,0.38,0.41],[0.63,0.38,0.41],[0.63,0.38,0.41],[0.63,0.38,0.41],[0.63,0.38,0.41],[0.63,0.38,0.41],[0.6851640007658352,0.5771447380625522,0.6515619346645063],[0.6851640007658352,0.5771447380625522,0.6515619346645063],[0.6851640007658352,0.5771447380625522,0.6515619346645063],[0.6851640007658352,0.5771447380625522,0.6515619346645063],[0.7443605761268872,0.48793262681001137,0.56279686266749],[0.7443605761268872,0.48793262681001137,0.56279686266749],[0.7443605761268872,0.48793262681001137,0.56279686266749],[0.7443605761268872,0.48793262681001137,0.56279686266749],[0.7443605761268872,0.48793262681001137,0.56279686266749],[0.7443605761268872,0.48793262681001137,0.56279686266749],[0.7443605761268872,0.48793262681001137,0.56279686266749],[0.7443605761268872,0.48793262681001137,0.56279686266749],[0.7443605761268872,0.48793262681001137,0.56279686266749],[0.7443605761268872,0.48793262681001137,0.56279686266749],[0.7443605761268872,0.48793262681001137,0.56279686266749],[0.7443605761268872,0.48793262681001137,0.56279686266749],[0.7443605761268872,0.48793262681001137,0.56279686266749],[0.7443605761268872,0.48793262681001137,0.56279686266749],[0.7443605761268872,0.48793262681001137,0.56279686266749],[0.7443605761268872,0.48793262681001137,0.56279686266749],[0.7443605761268872,0.48793262681001137,0.56279686266749],[0.7443605761268872,0.48793262681001137,0.56279686266749],[0.7443605761268872,0.48793262681001137,0.56279686266749],[0.7443605761268872,0.48793262681001137,0.56279686266749],[0.7443605761268872,0.48793262681001137,0.56279686266749],[0.7443605761268872,0.48793262681001137,0.56279686266749],[0.7389000036938372,0.45956517275779685,0.6066651184658673],[0.7389000036938372,0.45956517275779685,0.6066651184658673],[0.7389000036938372,0.45956517275779685,0.6066651184658673],[0.7389000036938372,0.45956517275779685,0.6066651184658673],[0.7166813009736611,0.4544036794211926,0.6134719923404641],[0.7225832575631856,0.45763952505272754,0.6142782843419986],[0.7225832575631856,0.45763952505272754,0.6142782843419986],[0.7225832575631856,0.45763952505272754,0.6142782843419986],[0.7225832575631856,0.45763952505272754,0.6142782843419986],[0.7225832575631856,0.45763952505272754,0.6142782843419986],[0.7281745848585247,0.4607050630194448,0.6150421399223995],[0.731347702473785,0.4605425315441987,0.6187154925765362],[0.731347702473785,0.4605425315441987,0.6187154925765362],[0.731347702473785,0.4605425315441987,0.6187154925765362],[0.731347702473785,0.4605425315441987,0.6187154925765362],[0.731347702473785,0.4605425315441987,0.6187154925765362],[0.731347702473785,0.4605425315441987,0.6187154925765362],[0.731347702473785,0.4605425315441987,0.6187154925765362],[0.731347702473785,0.4605425315441987,0.6187154925765362],[0.731347702473785,0.4605425315441987,0.6187154925765362],[0.731347702473785,0.4605425315441987,0.6187154925765362],[0.731347702473785,0.4605425315441987,0.6187154925765362],[0.731347702473785,0.4605425315441987,0.6187154925765362],[0.731347702473785,0.4605425315441987,0.6187154925765362],[0.731347702473785,0.4605425315441987,0.6187154925765362],[0.731347702473785,0.4605425315441987,0.6187154925765362],[0.731347702473785,0.4605425315441987,0.6187154925765362],[0.731347702473785,0.4605425315441987,0.6187154925765362]]'
p70
sg45
S'[[0.67,0.41,0.45]]'
p71
sg47
(lp72
F0.574
aF0.932
aF0.997
asg49
S'[[0.42,0.64,0.47]]'
p73
sg51
(lp74
F0.25
aF0.9896907216494846
aF0.5
aF0.5
aF0.9896907216494846
aF0.5
aF0.5
aF0.010309278350515465
aF0.5
aF0.5
aF0.010309278350515465
aF0.5
aF0.5
aF0.5
aF0.5
aF0.5
aF0.010309278350515465
aF0.5
aF0.5
aF0.010309278350515465
aF0.010309278350515465
aF0.5
aF0.5
aF0.5
aF0.5
aF0.5
aF0.5
aF0.9896907216494846
aF0.010309278350515465
aF0.010309278350515465
aF0.047619047619047616
aF0.5
aF0.5
aF0.5
aF0.8275862068965517
aF0.5
aF0.010309278350515465
aF0.047619047619047616
aF0.047619047619047616
aF0.047619047619047616
aF0.047619047619047616
aF0.047619047619047616
aF0.047619047619047616
aF0.047619047619047616
aF0.047619047619047616
aF0.8275862068965517
aF0.047619047619047616
aF0.047619047619047616
aF0.5
aF0.8275862068965517
aF0.047619047619047616
aF0.047619047619047616
aF0.5
aF0.8275862068965517
aF0.5
aF0.5
aF0.047619047619047616
aF0.047619047619047616
aF0.047619047619047616
aF0.047619047619047616
assI3
(dp75
g32
(lp76
F0.25
aF0.5
aF0.5
aF0.5
aF0.5
aF0.5
aF0.5
aF0.5
aF0.5
aF0.5
aF0.5
aF0.5
aF0.5
aF0.5
aF0.5
aF0.5
aF0.5
aF0.5
aF0.5
aF0.5
aF0.5
aF0.9523809523809524
aF0.9523809523809524
aF0.5
aF0.5
aF0.5
aF0.9523809523809524
aF0.9523809523809524
aF0.9523809523809524
aF0.9523809523809524
aF0.5
aF0.5
aF0.5
aF0.9523809523809524
aF0.9523809523809524
aF0.9523809523809524
aF0.5
aF0.9523809523809524
aF0.9523809523809524
aF0.9523809523809524
aF0.9523809523809524
aF0.9523809523809524
aF0.9523809523809524
aF0.9523809523809524
aF0.9523809523809524
aF0.9523809523809524
aF0.9523809523809524
aF0.9523809523809524
aF0.9523809523809524
aF0.9523809523809524
aF0.5
aF0.0
aF0.0
aF0.0
aF0.0
aF0.0
aF0.0
aF0.0
aF0.0
aF0.0
asg34
g35
sg36
S'[[0.48,0.6,0.18],[0.48,0.6,0.18],[0.48,0.6,0.18],[0.48,0.6,0.18],[0.47958911502126533,0.6370197062268433,0.7611952137539633],[0.47958911502126533,0.6370197062268433,0.7611952137539633],[0.47958911502126533,0.6370197062268433,0.7611952137539633],[0.47958911502126533,0.6370197062268433,0.7611952137539633],[0.4795891150212654,0.6370197062268433,0.7611952137539633],[0.4795891150212654,0.6370197062268433,0.7611952137539633],[0.4795891150212654,0.6370197062268433,0.7611952137539633],[0.4795891150212654,0.6370197062268433,0.7611952137539633],[0.4795891150212654,0.6370197062268433,0.7611952137539633],[0.48171769202339587,0.6527635504930223,0.7619334700337608],[0.48254721100216746,0.6588990192144009,0.7622211728486818],[0.48298884223311905,0.6621655081956418,0.7623743442064849],[0.4832630972441209,0.6641940127684672,0.7624694643190931],[0.48344996966044657,0.6655761991856516,0.7625342774476458],[0.4835854831014245,0.666578513176921,0.7625812776964969],[0.48368825239218066,0.6673386377612752,0.7626169212622197],[0.48376886622544907,0.6679348913313401,0.7626448806306566],[0.48383379202082477,0.6684151096228227,0.7626673989027739],[0.4838872031986444,0.6688101609950893,0.7626859235497082],[0.48393191343876246,0.6691408565991555,0.7627014304425785],[0.48393191343876246,0.6691408565991555,0.7627014304425785],[0.48393191343876246,0.6691408565991555,0.7627014304425785],[0.48393191343876246,0.6691408565991555,0.7627014304425785],[0.48393191343876246,0.6691408565991555,0.7627014304425785],[0.48393191343876246,0.6691408565991555,0.7627014304425785],[0.4840734825899455,0.6689553147532177,0.762686161355168],[0.4840734825899455,0.6689553147532177,0.762686161355168],[0.4840734825899455,0.6689553147532177,0.762686161355168],[0.4840734825899455,0.6689553147532177,0.762686161355168],[0.4840734825899455,0.6689553147532177,0.762686161355168],[0.4840734825899455,0.6689553147532177,0.762686161355168],[0.4840734825899455,0.6689553147532177,0.762686161355168],[0.4840734825899455,0.6689553147532177,0.762686161355168],[0.4840734825899455,0.6689553147532177,0.762686161355168],[0.4840734825899455,0.6689553147532177,0.762686161355168],[0.4840734825899455,0.6689553147532177,0.762686161355168],[0.4850987066815939,0.6702155850366526,0.7635516516866375],[0.4850987066815939,0.6702155850366526,0.7635516516866375],[0.4850987066815939,0.6702155850366526,0.7635516516866375],[0.4858482422674315,0.672171693700817,0.7641414854094679],[0.4858482422674315,0.672171693700817,0.7641414854094679],[0.48651613403756516,0.6739147315271298,0.7646670709809459],[0.48651613403756516,0.6739147315271298,0.7646670709809459],[0.4871150326836677,0.6754777137960617,0.7651383636382972],[0.4871150326836677,0.6754777137960617,0.7651383636382972],[0.4871150326836677,0.6754777137960617,0.7651383636382972],[0.4871150326836677,0.6754777137960617,0.7651383636382972],[0.487263276742339,0.6764989785496333,0.7666339124737813],[0.4866671351304054,0.6762257332141429,0.7674916081031524],[0.4866671351304054,0.6762257332141429,0.7674916081031524],[0.4866671351304054,0.6762257332141429,0.7674916081031524],[0.4866671351304054,0.6762257332141429,0.7674916081031524],[0.4866671351304054,0.6762257332141429,0.7674916081031524],[0.4866671351304054,0.6762257332141429,0.7674916081031524],[0.4860758599806101,0.6759547184528197,0.7683423021355493],[0.4860758599806101,0.6759547184528197,0.7683423021355493]]'
p77
sg38
S'f1'
p78
sg39
(lp79
F0.25
aF0.0
aF0.0
aF0.0
aF0.0
aF0.0
aF0.0
aF0.0
aF0.0
aF0.0
aF0.0
aF0.0
aF0.0
aF0.0
aF0.0
aF0.0
aF0.0
aF0.0
aF0.0
aF0.0
aF0.0
aF0.0
aF0.0
aF0.0
aF0.0
aF0.0
aF0.0
aF0.0
aF0.0
aF0.0
aF0.0
aF0.0
aF0.0
aF0.0
aF0.0
aF0.0
aF0.0
aF0.0
aF0.0
aF0.0
aF0.0
aF0.0
aF0.0
aF0.0
aF0.0
aF0.0
aF0.0
aF0.0
aF0.0
aF0.0
aF0.0
aF0.0
aF0.0
aF0.0
aF0.0
aF0.0
aF0.0
aF0.0
aF0.0
aF0.0
asg41
(lp80
F0.25
aF0.0
aF0.0
aF0.0
aF0.0
aF0.0
aF0.0
aF0.0
aF0.0
aF0.0
aF0.0
aF0.0
aF0.0
aF0.0
aF0.0
aF0.0
aF0.0
aF0.0
aF0.0
aF0.0
aF0.0
aF0.0
aF0.0
aF0.0
aF0.0
aF0.0
aF0.0
aF0.0
aF0.0
aF0.0
aF0.0
aF0.0
aF0.0
aF0.0
aF0.0
aF0.0
aF0.0
aF0.0
aF0.0
aF0.0
aF0.0
aF0.0
aF0.0
aF0.0
aF0.0
aF0.0
aF0.0
aF0.0
aF0.0
aF0.0
aF0.0
aF0.0
aF0.0
aF0.0
aF0.0
aF0.0
aF0.0
aF0.0
aF0.0
aF0.0
asg43
S'[[0.49,0.53,0.15],[0.49,0.53,0.15],[0.49,0.53,0.15],[0.49,0.53,0.15],[0.6211520596235685,0.6089169432421351,0.7476975437411113],[0.6211520596235685,0.6089169432421351,0.7476975437411113],[0.6211520596235685,0.6089169432421351,0.7476975437411113],[0.6211520596235685,0.6089169432421351,0.7476975437411113],[0.5776920494238,0.5860029928851073,0.7467561940296632],[0.5776920494238,0.5860029928851073,0.7467561940296632],[0.5776920494238,0.5860029928851073,0.7467561940296632],[0.5776920494238,0.5860029928851073,0.7467561940296632],[0.5776920494238,0.5860029928851073,0.7467561940296632],[0.5471161154371086,0.6251687701833064,0.7629462275376538],[0.5459283288927866,0.6371979728374909,0.7677017613075962],[0.5453778912259056,0.642772481384552,0.7699055452497646],[0.5450603310334744,0.6459885440078563,0.7711769590625541],[0.5448536648764953,0.6480815371436578,0.7720043870994486],[0.5447084400094289,0.6495522890769234,0.7725858230172666],[0.5446008027550149,0.6506423758039322,0.7730167696387082],[0.5445178323714043,0.6514826509893348,0.7733489576594027],[0.5441787606418956,0.6571258789848341,0.7751433007740692],[0.5438888672548348,0.6619506235306044,0.7766773956507307],[0.5436381765322164,0.6661229115185838,0.7780040328572385],[0.5436381765322164,0.6661229115185838,0.7780040328572385],[0.5436381765322164,0.6661229115185838,0.7780040328572385],[0.5436381765322164,0.6661229115185838,0.7780040328572385],[0.5436381765322164,0.6661229115185838,0.7780040328572385],[0.5436381765322164,0.6661229115185838,0.7780040328572385],[0.5434192399677963,0.6697667096947525,0.7791626293509222],[0.5434192399677963,0.6697667096947525,0.7791626293509222],[0.5434192399677963,0.6697667096947525,0.7791626293509222],[0.5434192399677963,0.6697667096947525,0.7791626293509222],[0.5434192399677963,0.6697667096947525,0.7791626293509222],[0.5434192399677963,0.6697667096947525,0.7791626293509222],[0.5434192399677963,0.6697667096947525,0.7791626293509222],[0.5434192399677963,0.6697667096947525,0.7791626293509222],[0.5434192399677963,0.6697667096947525,0.7791626293509222],[0.5434192399677963,0.6697667096947525,0.7791626293509222],[0.5434192399677963,0.6697667096947525,0.7791626293509222],[0.5440334302229766,0.6724358321199332,0.7813203379334968],[0.5440334302229766,0.6724358321199332,0.7813203379334968],[0.5440334302229766,0.6724358321199332,0.7813203379334968],[0.5460824857314522,0.6722770598294239,0.7811851085695949],[0.5460824857314522,0.6722770598294239,0.7811851085695949],[0.548110085161305,0.6721199500759878,0.7810512952199746],[0.548110085161305,0.6721199500759878,0.7810512952199746],[0.5501165637637636,0.6719644768824832,0.780918875759413],[0.5501165637637636,0.6719644768824832,0.780918875759413],[0.5501165637637636,0.6719644768824832,0.780918875759413],[0.5501165637637636,0.6719644768824832,0.780918875759413],[0.5516941362659136,0.6715956522465883,0.7809884706790075],[0.5516941362659136,0.6715956522465883,0.7809884706790075],[0.5516941362659136,0.6715956522465883,0.7809884706790075],[0.5516941362659136,0.6715956522465883,0.7809884706790075],[0.5516941362659136,0.6715956522465883,0.7809884706790075],[0.5516941362659136,0.6715956522465883,0.7809884706790075],[0.5516941362659136,0.6715956522465883,0.7809884706790075],[0.5516941362659136,0.6715956522465883,0.7809884706790075],[0.5516941362659136,0.6715956522465883,0.7809884706790075]]'
p81
sg45
S'[[0.12,0.94,0.62]]'
p82
sg47
(lp83
F0.465
aF0.16
aF0.543
asg49
S'[[0.82,0.31,0.75]]'
p84
sg51
(lp85
F0.25
aF0.5
aF0.5
aF0.5
aF0.5
aF0.5
aF0.5
aF0.5
aF0.5
aF0.5
aF0.5
aF0.5
aF0.5
aF0.5
aF0.5
aF0.5
aF0.5
aF0.5
aF0.5
aF0.5
aF0.5
aF0.047619047619047616
aF0.047619047619047616
aF0.5
aF0.5
aF0.5
aF0.047619047619047616
aF0.047619047619047616
aF0.047619047619047616
aF0.047619047619047616
aF0.5
aF0.5
aF0.5
aF0.047619047619047616
aF0.047619047619047616
aF0.047619047619047616
aF0.5
aF0.047619047619047616
aF0.047619047619047616
aF0.047619047619047616
aF0.047619047619047616
aF0.047619047619047616
aF0.047619047619047616
aF0.047619047619047616
aF0.047619047619047616
aF0.047619047619047616
aF0.047619047619047616
aF0.047619047619047616
aF0.047619047619047616
aF0.047619047619047616
aF0.5
aF1.0
aF1.0
aF1.0
aF1.0
aF1.0
aF1.0
aF1.0
aF1.0
aF1.0
assI4
(dp86
g32
(lp87
F0.25
aF0.5
aF0.5
aF0.5
aF0.5
aF0.010309278350515465
aF0.010309278350515465
aF0.010309278350515465
aF0.010309278350515465
aF0.010309278350515465
aF0.010309278350515465
aF0.5
aF0.010309278350515465
aF0.9896907216494846
aF0.5
aF0.5
aF0.5
aF0.010309278350515465
aF0.5
aF0.5
aF1.0
aF1.0
aF1.0
aF1.0
aF1.0
aF1.0
aF1.0
aF1.0
aF1.0
aF1.0
aF1.0
aF1.0
aF1.0
aF1.0
aF1.0
aF1.0
aF1.0
aF1.0
aF1.0
aF1.0
aF1.0
aF1.0
aF1.0
aF1.0
aF1.0
aF1.0
aF1.0
aF1.0
aF1.0
aF1.0
aF1.0
aF1.0
aF0.25
aF0.25
aF0.25
aF0.25
aF0.25
aF0.25
aF0.25
aF0.25
asg34
g35
sg36
S'[[0.45,0.32,0.53],[0.45,0.32,0.53],[0.45,0.32,0.53],[0.45,0.32,0.53],[0.45,0.32,0.53],[0.45,0.32,0.53],[0.45,0.32,0.53],[0.45,0.32,0.53],[0.45,0.32,0.53],[0.45,0.32,0.53],[0.45,0.32,0.53],[0.45,0.32,0.53],[0.45,0.32,0.53],[0.45,0.32,0.53],[0.45,0.32,0.53],[0.45,0.32,0.53],[0.45,0.32,0.53],[0.45,0.32,0.53],[0.45,0.32,0.53],[0.45,0.32,0.53],[0.45,0.32,0.53],[0.45,0.32,0.53],[0.45,0.32,0.53],[0.45,0.32,0.53],[0.45,0.32,0.53],[0.45,0.32,0.53],[0.45,0.32,0.53],[0.45,0.32,0.53],[0.45,0.32,0.53],[0.45,0.32,0.53],[0.45,0.32,0.53],[0.45,0.32,0.53],[0.45,0.32,0.53],[0.45,0.32,0.53],[0.45,0.32,0.53],[0.45,0.32,0.53],[0.45,0.32,0.53],[0.45,0.32,0.53],[0.45,0.32,0.53],[0.45,0.32,0.53],[0.45,0.32,0.53],[0.45,0.32,0.53],[0.45,0.32,0.53],[0.45,0.32,0.53],[0.45,0.32,0.53],[0.45,0.32,0.53],[0.45,0.32,0.53],[0.45,0.32,0.53],[0.45,0.32,0.53],[0.45,0.32,0.53],[0.45,0.32,0.53],[0.45,0.32,0.53],[0.45,0.32,0.53],[0.45,0.32,0.53],[0.45,0.32,0.53],[0.45,0.32,0.53],[0.45,0.32,0.53],[0.45,0.32,0.53],[0.45,0.32,0.53],[0.45,0.32,0.53]]'
p88
sg38
S'l2'
p89
sg39
(lp90
F0.25
aF0.0
aF0.0
aF0.0
aF0.0
aF0.0
aF0.0
aF0.0
aF0.0
aF0.0
aF0.0
aF0.0
aF0.0
aF0.0
aF0.0
aF0.0
aF0.0
aF0.0
aF0.0
aF0.0
aF0.0
aF0.0
aF0.0
aF0.0
aF0.0
aF0.0
aF0.0
aF0.0
aF0.0
aF0.0
aF0.0
aF0.0
aF0.0
aF0.0
aF0.0
aF0.0
aF0.0
aF0.0
aF0.0
aF0.0
aF0.0
aF0.0
aF0.0
aF0.0
aF0.0
aF0.0
aF0.0
aF0.0
aF0.0
aF0.0
aF0.0
aF0.0
aF0.25
aF0.25
aF0.25
aF0.25
aF0.25
aF0.25
aF0.25
aF0.25
asg41
(lp91
F0.25
aF0.0
aF0.0
aF0.0
aF0.0
aF0.0
aF0.0
aF0.0
aF0.0
aF0.0
aF0.0
aF0.0
aF0.0
aF0.0
aF0.0
aF0.0
aF0.0
aF0.0
aF0.0
aF0.0
aF0.0
aF0.0
aF0.0
aF0.0
aF0.0
aF0.0
aF0.0
aF0.0
aF0.0
aF0.0
aF0.0
aF0.0
aF0.0
aF0.0
aF0.0
aF0.0
aF0.0
aF0.0
aF0.0
aF0.0
aF0.0
aF0.0
aF0.0
aF0.0
aF0.0
aF0.0
aF0.0
aF0.0
aF0.0
aF0.0
aF0.0
aF0.0
aF0.25
aF0.25
aF0.25
aF0.25
aF0.25
aF0.25
aF0.25
aF0.25
asg43
S'[[0.47,0.84,0.44],[0.47,0.84,0.44],[0.47,0.84,0.44],[0.47,0.84,0.44],[0.47,0.84,0.44],[0.47,0.84,0.44],[0.47,0.84,0.44],[0.47,0.84,0.44],[0.47,0.84,0.44],[0.47,0.84,0.44],[0.47,0.84,0.44],[0.47,0.84,0.44],[0.47,0.84,0.44],[0.47,0.84,0.44],[0.47,0.84,0.44],[0.47,0.84,0.44],[0.47,0.84,0.44],[0.47,0.84,0.44],[0.47,0.84,0.44],[0.47,0.84,0.44],[0.9023522438904218,0.8059078100431686,0.9944410072442745],[0.9023522438904218,0.8059078100431686,0.9944410072442745],[0.9023522438904218,0.8059078100431686,0.9944410072442745],[0.9023522438904218,0.8059078100431686,0.9944410072442745],[0.9023522438904218,0.8059078100431686,0.9944410072442745],[0.9023522438904218,0.8059078100431686,0.9944410072442745],[0.9023522438904218,0.8059078100431686,0.9944410072442745],[0.9023522438904218,0.8059078100431686,0.9944410072442745],[0.9023522438904218,0.8059078100431686,0.9944410072442745],[0.9023522438904218,0.8059078100431686,0.9944410072442745],[0.9023522438904218,0.8059078100431686,0.9944410072442745],[0.9023522438904218,0.8059078100431686,0.9944410072442745],[0.9023522438904218,0.8059078100431686,0.9944410072442745],[0.9023522438904218,0.8059078100431686,0.9944410072442745],[0.9023522438904218,0.8059078100431686,0.9944410072442745],[0.9023522438904218,0.8059078100431686,0.9944410072442745],[0.9023522438904218,0.8059078100431686,0.9944410072442745],[0.9023522438904218,0.8059078100431686,0.9944410072442745],[0.9023522438904218,0.8059078100431686,0.9944410072442745],[0.9023522438904218,0.8059078100431686,0.9944410072442745],[0.9023522438904218,0.8059078100431686,0.9944410072442744],[0.9023522438904218,0.8059078100431686,0.9944410072442744],[0.9023522438904218,0.8059078100431686,0.9944410072442744],[0.9023522438904218,0.8059078100431686,0.9944410072442744],[0.9023522438904218,0.8059078100431686,0.9944410072442744],[0.9023522438904218,0.8059078100431686,0.9944410072442744],[0.9023522438904218,0.8059078100431686,0.9944410072442744],[0.9023522438904218,0.8059078100431686,0.9944410072442744],[0.9023522438904218,0.8059078100431686,0.9944410072442744],[0.9023522438904218,0.8059078100431686,0.9944410072442744],[0.9023522438904218,0.8059078100431686,0.9944410072442745],[0.9023522438904218,0.8059078100431686,0.9944410072442745],[0.9023522438904218,0.8059078100431686,0.9944410072442745],[0.9023522438904218,0.8059078100431686,0.9944410072442745],[0.9023522438904218,0.8059078100431686,0.9944410072442745],[0.9023522438904218,0.8059078100431686,0.9944410072442745],[0.9023522438904218,0.8059078100431686,0.9944410072442745],[0.9023522438904218,0.8059078100431686,0.9944410072442745]]'
p92
sg45
S'[[0.1,0.55,0.96]]'
p93
sg47
(lp94
F0.745
aF0.637
aF0.267
asg49
S'[[0.7,0.96,0.29]]'
p95
sg51
(lp96
F0.25
aF0.5
aF0.5
aF0.5
aF0.5
aF0.9896907216494846
aF0.9896907216494846
aF0.9896907216494846
aF0.9896907216494846
aF0.9896907216494846
aF0.9896907216494846
aF0.5
aF0.9896907216494846
aF0.010309278350515465
aF0.5
aF0.5
aF0.5
aF0.9896907216494846
aF0.5
aF0.5
aF0.0
aF0.0
aF0.0
aF0.0
aF0.0
aF0.0
aF0.0
aF0.0
aF0.0
aF0.0
aF0.0
aF0.0
aF0.0
aF0.0
aF0.0
aF0.0
aF0.0
aF0.0
aF0.0
aF0.0
aF0.0
aF0.0
aF0.0
aF0.0
aF0.0
aF0.0
aF0.0
aF0.0
aF0.0
aF0.0
aF0.0
aF0.0
aF0.25
aF0.25
aF0.25
aF0.25
aF0.25
aF0.25
aF0.25
aF0.25
assI5
(dp97
g32
(lp98
F0.25
aF0.5
aF0.5
aF0.5
aF0.9896907216494846
aF0.5
aF0.5
aF0.5
aF0.5
aF0.5
aF0.5
aF0.9896907216494846
aF0.9896907216494846
aF0.9896907216494846
aF0.5
aF0.5
aF0.5
aF0.5
aF0.5
aF0.5
aF0.5
aF0.5
aF0.5
aF0.5
aF0.5
aF0.5
aF0.5
aF0.5
aF0.5
aF0.5
aF0.5
aF0.5
aF0.5
aF0.5
aF0.5
aF0.5
aF0.5
aF0.5
aF0.5
aF0.5
aF0.5
aF0.5
aF0.5
aF0.5
aF0.5
aF0.5
aF0.5
aF0.25
aF0.25
aF0.25
aF0.25
aF0.25
aF0.25
aF0.25
aF0.25
aF0.25
aF0.25
aF0.25
aF0.25
aF0.25
asg34
g35
sg36
S'[[0.06,0.36,0.12],[0.06,0.36,0.12],[0.06,0.36,0.12],[0.06,0.36,0.12],[0.49281734793183013,0.46837041860860246,0.3739742030775608],[0.4824303009036818,0.5342456817177895,0.34006037691257157],[0.47775612974101495,0.5638895501169238,0.3247991551383264],[0.4750982677073417,0.5807458674419216,0.3161212055019909],[0.47338351800819767,0.591620910877404,0.3105225283172584],[0.4721855421909874,0.5992185439624672,0.30661112370874655],[0.4713013219449514,0.6048263207633471,0.30372413459294023],[0.47062186849273413,0.6091354545156021,0.30150571137763643],[0.4700834336815431,0.6125502397532383,0.2997477156221126],[0.46964624302288377,0.6153229286214044,0.2983202831710463],[0.4692841945086814,0.6176190615903544,0.2971381906725071],[0.4689794486370148,0.6195517778304058,0.2961431919507149],[0.4687193988265259,0.6212010290219164,0.29529412637478575],[0.4684948837727497,0.6226249166965747,0.29456108218190274],[0.46829908576073564,0.623866679203544,0.2939217994555513],[0.46812682630754304,0.6249591587861782,0.2933593703902913],[0.46797410143151646,0.6259277489316066,0.29286072194067936],[0.46783776654218545,0.6267923928175254,0.29241558698322084],[0.4677153176138049,0.6275689711224712,0.29201578984550347],[0.46760473598244795,0.6282702863317833,0.29165473956694815],[0.467504376182561,0.6289067740847727,0.2913270636838895],[0.4674128835135877,0.6294870259720359,0.29102833908367143],[0.4673291325319891,0.6300181796226846,0.29075489118039494],[0.4672521805230664,0.6305062137887787,0.29050364199989354],[0.4671812318623576,0.6309561743674471,0.29027199381928953],[0.46711561040484184,0.6313723495101745,0.29005773901743387],[0.4670547378685937,0.6317584067149413,0.28985898949729144],[0.46699811674757563,0.6321175011942961,0.2896741208960161],[0.466945316683804,0.6324523623038782,0.28950172808991886],[0.46689596350846874,0.6327653630442889,0.2893405894135965],[0.46684973036145916,0.6330585763815701,0.2891896376650877],[0.4668063304435142,0.6333338212135026,0.2890479364415571],[0.46676551106123093,0.6335927001365095,0.2889146606961824],[0.4662558404876333,0.6338486121642838,0.28984861162680603],[0.46576282581513356,0.6340961610538955,0.2907520412851871],[0.4652856637044506,0.634335750172137,0.29162642175841125],[0.4646925462074248,0.6356037716743406,0.2922387165626084],[0.46411357715037826,0.6368415453315449,0.2928364054643828],[0.46354825624728185,0.6380501407015446,0.29342000492554465],[0.46299610652402473,0.6392305775037579,0.2939900073422404],[0.4624566729762123,0.6403838284887079,0.29454688243055166],[0.4619295213186435,0.6415108221115081,0.2950910785174514],[0.4614142368192429,0.6426124450247904,0.295623023744575],[0.4609104232108658,0.6436895444051465,0.2961431271915986],[0.4609104232108658,0.6436895444051465,0.2961431271915986],[0.4609104232108658,0.6436895444051465,0.2961431271915986],[0.4609104232108658,0.6436895444051465,0.2961431271915986],[0.4609104232108658,0.6436895444051465,0.2961431271915986],[0.4609104232108658,0.6436895444051465,0.2961431271915986],[0.4609104232108658,0.6436895444051465,0.2961431271915986],[0.4609104232108658,0.6436895444051465,0.2961431271915986],[0.4609104232108658,0.6436895444051465,0.2961431271915986],[0.4609104232108658,0.6436895444051465,0.2961431271915986],[0.4609104232108658,0.6436895444051465,0.2961431271915986],[0.4609104232108658,0.6436895444051465,0.2961431271915986],[0.4609104232108658,0.6436895444051465,0.2961431271915986]]'
p99
sg38
S'l1'
p100
sg39
(lp101
F0.25
aF0.0
aF0.0
aF0.0
aF0.0
aF0.0
aF0.0
aF0.0
aF0.0
aF0.0
aF0.0
aF0.0
aF0.0
aF0.0
aF0.0
aF0.0
aF0.0
aF0.0
aF0.0
aF0.0
aF0.0
aF0.0
aF0.0
aF0.0
aF0.0
aF0.0
aF0.0
aF0.0
aF0.0
aF0.0
aF0.0
aF0.0
aF0.0
aF0.0
aF0.0
aF0.0
aF0.0
aF0.0
aF0.0
aF0.0
aF0.0
aF0.0
aF0.0
aF0.0
aF0.0
aF0.0
aF0.0
aF0.25
aF0.25
aF0.25
aF0.25
aF0.25
aF0.25
aF0.25
aF0.25
aF0.25
aF0.25
aF0.25
aF0.25
aF0.25
asg41
(lp102
F0.25
aF0.0
aF0.0
aF0.0
aF0.0
aF0.0
aF0.0
aF0.0
aF0.0
aF0.0
aF0.0
aF0.0
aF0.0
aF0.0
aF0.0
aF0.0
aF0.0
aF0.0
aF0.0
aF0.0
aF0.0
aF0.0
aF0.0
aF0.0
aF0.0
aF0.0
aF0.0
aF0.0
aF0.0
aF0.0
aF0.0
aF0.0
aF0.0
aF0.0
aF0.0
aF0.0
aF0.0
aF0.0
aF0.0
aF0.0
aF0.0
aF0.0
aF0.0
aF0.0
aF0.0
aF0.0
aF0.0
aF0.25
aF0.25
aF0.25
aF0.25
aF0.25
aF0.25
aF0.25
aF0.25
aF0.25
aF0.25
aF0.25
aF0.25
aF0.25
asg43
S'[[0.98,0.35,0.57],[0.98,0.35,0.57],[0.98,0.35,0.57],[0.98,0.35,0.57],[0.9100425516947507,0.5462555969036123,0.5640924475200775],[0.9180145785042392,0.5636692458545756,0.5320168784991443],[0.9232376305518354,0.575078188270724,0.5110018505199123],[0.9269244908207267,0.5831315593880051,0.4961677131228073],[0.9296660023027229,0.5891199635521372,0.4851372006993189],[0.9317844429933562,0.5937473667698759,0.4766136229175325],[0.9334705488491665,0.5974304019839944,0.4698295508054984],[0.9348444128798268,0.6004313936399427,0.464301788343841],[0.9359854186002053,0.6029237426423404,0.45971093477398994],[0.9369481421767749,0.6050266621131135,0.45583740207442813],[0.93777134059732,0.6068248106460934,0.4525252509255274],[0.9384832959880616,0.6083799661340761,0.4496606877697213],[0.9391051304432659,0.6097382664969976,0.44715872754503005],[0.9396529369871368,0.6109348644357617,0.44495461972804007],[0.9401391922339438,0.6119970131679232,0.4429981644747569],[0.9405737181991752,0.61294616735411,0.44124984275905693],[0.9409643526527672,0.6137994473800761,0.43967811919645805],[0.9413174261012063,0.6145706812496992,0.43825752289949355],[0.9416381074901553,0.6152711597184395,0.4369672565380304],[0.9419306589327053,0.6159101927074656,0.43579017143634485],[0.942198626220419,0.6164955254453132,0.4347120010490866],[0.9424449832429949,0.6170336539301083,0.4337207798866073],[0.9426722428219602,0.6175300670284855,0.4328063975739325],[0.9428825427308531,0.6179894343732522,0.43196025274727823],[0.9430777131498979,0.6184157537076043,0.4311749816491603],[0.9432593300676202,0.6188124675326262,0.43044424326618935],[0.9434287579304615,0.6191825562687205,0.42976254772771316],[0.9435871839840276,0.6195286132687048,0.42912511813329385],[0.9437356461348536,0.6198529056774951,0.4285277784504732],[0.9438750557155076,0.6201574241589201,0.42796686191904415],[0.9440062162085486,0.6204439237952903,0.4274391357149186],[0.9441298387422192,0.6207139579353175,0.4269417386029841],[0.944246554989093,0.6209689063691979,0.42647212903920234],[0.9443569279616802,0.6212099989099328,0.4260280417343218],[0.9444614610944478,0.6214383352315809,0.42560745111223913],[0.9445606059214026,0.6216549016397422,0.4252085404191298],[0.9444870239247143,0.6229261460672794,0.42444897711084684],[0.944416356066509,0.6241470441808545,0.42371949551774335],[0.9443484325911463,0.625320528775456,0.42301834330689625],[0.9442830966767501,0.626449309195025,0.4223439016564624],[0.9442202032264432,0.6275358922157315,0.4216946727780074],[0.9441596177926613,0.6285826006301737,0.42106926881252316],[0.9441012156177545,0.6295915898224737,0.4204664019268763],[0.944044880776473,0.6305648625831879,0.41988487546196024],[0.944044880776473,0.6305648625831879,0.41988487546196024],[0.944044880776473,0.6305648625831879,0.41988487546196024],[0.944044880776473,0.6305648625831879,0.41988487546196024],[0.944044880776473,0.6305648625831879,0.41988487546196024],[0.944044880776473,0.6305648625831879,0.41988487546196024],[0.944044880776473,0.6305648625831879,0.41988487546196024],[0.944044880776473,0.6305648625831879,0.41988487546196024],[0.944044880776473,0.6305648625831879,0.41988487546196024],[0.944044880776473,0.6305648625831879,0.41988487546196024],[0.944044880776473,0.6305648625831879,0.41988487546196024],[0.944044880776473,0.6305648625831879,0.41988487546196024],[0.944044880776473,0.6305648625831879,0.41988487546196024]]'
p103
sg45
S'[[0.5,0.46,0.14]]'
p104
sg47
(lp105
F0.7
aF0.188
aF0.768
asg49
S'[[0.25,0.77,0.29]]'
p106
sg51
(lp107
F0.25
aF0.5
aF0.5
aF0.5
aF0.010309278350515465
aF0.5
aF0.5
aF0.5
aF0.5
aF0.5
aF0.5
aF0.010309278350515465
aF0.010309278350515465
aF0.010309278350515465
aF0.5
aF0.5
aF0.5
aF0.5
aF0.5
aF0.5
aF0.5
aF0.5
aF0.5
aF0.5
aF0.5
aF0.5
aF0.5
aF0.5
aF0.5
aF0.5
aF0.5
aF0.5
aF0.5
aF0.5
aF0.5
aF0.5
aF0.5
aF0.5
aF0.5
aF0.5
aF0.5
aF0.5
aF0.5
aF0.5
aF0.5
aF0.5
aF0.5
aF0.25
aF0.25
aF0.25
aF0.25
aF0.25
aF0.25
aF0.25
aF0.25
aF0.25
aF0.25
aF0.25
aF0.25
aF0.25
assI6
(dp108
g32
(lp109
F0.25
aF0.5
aF0.25
aF0.25
aF0.25
aF0.25
aF0.25
aF0.25
aF0.25
aF0.25
aF0.25
aF0.25
aF0.25
aF0.25
aF0.25
aF0.25
aF0.25
aF0.25
aF0.25
aF0.25
aF0.25
aF0.25
aF0.25
aF0.25
aF0.25
aF0.25
aF0.25
aF0.25
aF0.25
aF0.25
aF0.25
aF0.25
aF0.25
aF0.25
aF0.25
aF0.25
aF0.25
aF0.25
aF0.25
aF0.25
aF0.25
aF0.25
aF0.25
aF0.25
aF0.25
aF0.25
aF0.25
aF0.25
aF0.25
aF0.25
aF0.25
aF0.25
aF0.25
aF0.25
aF0.25
aF0.25
aF0.25
aF0.25
aF0.25
aF0.25
asg34
g35
sg36
S'[[0.85,0.75,0.69],[0.85,0.75,0.69],[0.85,0.75,0.69],[0.85,0.75,0.69],[0.85,0.75,0.69],[0.85,0.75,0.69],[0.85,0.75,0.69],[0.85,0.75,0.69],[0.85,0.75,0.69],[0.85,0.75,0.69],[0.85,0.75,0.69],[0.85,0.75,0.69],[0.85,0.75,0.69],[0.85,0.75,0.69],[0.85,0.75,0.69],[0.85,0.75,0.69],[0.85,0.75,0.69],[0.85,0.75,0.69],[0.85,0.75,0.69],[0.85,0.75,0.69],[0.85,0.75,0.69],[0.85,0.75,0.69],[0.85,0.75,0.69],[0.85,0.75,0.69],[0.85,0.75,0.69],[0.85,0.75,0.69],[0.85,0.75,0.69],[0.85,0.75,0.69],[0.85,0.75,0.69],[0.85,0.75,0.69],[0.85,0.75,0.69],[0.85,0.75,0.69],[0.85,0.75,0.69],[0.85,0.75,0.69],[0.85,0.75,0.69],[0.85,0.75,0.69],[0.85,0.75,0.69],[0.85,0.75,0.69],[0.85,0.75,0.69],[0.85,0.75,0.69],[0.85,0.75,0.69],[0.85,0.75,0.69],[0.85,0.75,0.69],[0.85,0.75,0.69],[0.85,0.75,0.69],[0.85,0.75,0.69],[0.85,0.75,0.69],[0.85,0.75,0.69],[0.85,0.75,0.69],[0.85,0.75,0.69],[0.85,0.75,0.69],[0.85,0.75,0.69],[0.85,0.75,0.69],[0.85,0.75,0.69],[0.85,0.75,0.69],[0.85,0.75,0.69],[0.85,0.75,0.69],[0.85,0.75,0.69],[0.85,0.75,0.69],[0.85,0.75,0.69]]'
p110
sg38
S'l2'
p111
sg39
(lp112
F0.25
aF0.0
aF0.25
aF0.25
aF0.25
aF0.25
aF0.25
aF0.25
aF0.25
aF0.25
aF0.25
aF0.25
aF0.25
aF0.25
aF0.25
aF0.25
aF0.25
aF0.25
aF0.25
aF0.25
aF0.25
aF0.25
aF0.25
aF0.25
aF0.25
aF0.25
aF0.25
aF0.25
aF0.25
aF0.25
aF0.25
aF0.25
aF0.25
aF0.25
aF0.25
aF0.25
aF0.25
aF0.25
aF0.25
aF0.25
aF0.25
aF0.25
aF0.25
aF0.25
aF0.25
aF0.25
aF0.25
aF0.25
aF0.25
aF0.25
aF0.25
aF0.25
aF0.25
aF0.25
aF0.25
aF0.25
aF0.25
aF0.25
aF0.25
aF0.25
asg41
(lp113
F0.25
aF0.0
aF0.25
aF0.25
aF0.25
aF0.25
aF0.25
aF0.25
aF0.25
aF0.25
aF0.25
aF0.25
aF0.25
aF0.25
aF0.25
aF0.25
aF0.25
aF0.25
aF0.25
aF0.25
aF0.25
aF0.25
aF0.25
aF0.25
aF0.25
aF0.25
aF0.25
aF0.25
aF0.25
aF0.25
aF0.25
aF0.25
aF0.25
aF0.25
aF0.25
aF0.25
aF0.25
aF0.25
aF0.25
aF0.25
aF0.25
aF0.25
aF0.25
aF0.25
aF0.25
aF0.25
aF0.25
aF0.25
aF0.25
aF0.25
aF0.25
aF0.25
aF0.25
aF0.25
aF0.25
aF0.25
aF0.25
aF0.25
aF0.25
aF0.25
asg43
S'[[0.56,0.26,0.75],[0.56,0.26,0.75],[0.56,0.26,0.75],[0.56,0.26,0.75],[0.56,0.26,0.75],[0.56,0.26,0.75],[0.56,0.26,0.75],[0.56,0.26,0.75],[0.56,0.26,0.75],[0.56,0.26,0.75],[0.56,0.26,0.75],[0.56,0.26,0.75],[0.56,0.26,0.75],[0.56,0.26,0.75],[0.56,0.26,0.75],[0.56,0.26,0.75],[0.56,0.26,0.75],[0.56,0.26,0.75],[0.56,0.26,0.75],[0.56,0.26,0.75],[0.56,0.26,0.75],[0.56,0.26,0.75],[0.56,0.26,0.75],[0.56,0.26,0.75],[0.56,0.26,0.75],[0.56,0.26,0.75],[0.56,0.26,0.75],[0.56,0.26,0.75],[0.56,0.26,0.75],[0.56,0.26,0.75],[0.56,0.26,0.75],[0.56,0.26,0.75],[0.56,0.26,0.75],[0.56,0.26,0.75],[0.56,0.26,0.75],[0.56,0.26,0.75],[0.56,0.26,0.75],[0.56,0.26,0.75],[0.56,0.26,0.75],[0.56,0.26,0.75],[0.56,0.26,0.75],[0.56,0.26,0.75],[0.56,0.26,0.75],[0.56,0.26,0.75],[0.56,0.26,0.75],[0.56,0.26,0.75],[0.56,0.26,0.75],[0.56,0.26,0.75],[0.56,0.26,0.75],[0.56,0.26,0.75],[0.56,0.26,0.75],[0.56,0.26,0.75],[0.56,0.26,0.75],[0.56,0.26,0.75],[0.56,0.26,0.75],[0.56,0.26,0.75],[0.56,0.26,0.75],[0.56,0.26,0.75],[0.56,0.26,0.75],[0.56,0.26,0.75]]'
p114
sg45
S'[[0.31,0.27,0.74]]'
p115
sg47
(lp116
F0.057
aF0.878
aF0.878
asg49
S'[[0.28,0.86,0.56]]'
p117
sg51
(lp118
F0.25
aF0.5
aF0.25
aF0.25
aF0.25
aF0.25
aF0.25
aF0.25
aF0.25
aF0.25
aF0.25
aF0.25
aF0.25
aF0.25
aF0.25
aF0.25
aF0.25
aF0.25
aF0.25
aF0.25
aF0.25
aF0.25
aF0.25
aF0.25
aF0.25
aF0.25
aF0.25
aF0.25
aF0.25
aF0.25
aF0.25
aF0.25
aF0.25
aF0.25
aF0.25
aF0.25
aF0.25
aF0.25
aF0.25
aF0.25
aF0.25
aF0.25
aF0.25
aF0.25
aF0.25
aF0.25
aF0.25
aF0.25
aF0.25
aF0.25
aF0.25
aF0.25
aF0.25
aF0.25
aF0.25
aF0.25
aF0.25
aF0.25
aF0.25
aF0.25
assa.