(lp0
(dp1
S'iterationMax'
p2
I50
sS'CPU_Time'
p3
ccopy_reg
_reconstructor
p4
(cpsutil._pslinux
scputimes
p5
c__builtin__
tuple
p6
(F13569852.62
F848.21
F797508.68
F237060726.56
F21774.78
F0.0
F1569.56
F0.0
F0.0
F0.0
tp7
tp8
Rp9
sS'itemsCounts'
p10
I10
sS'memory_usage'
p11
I190136320
sS'generatedDataNumber'
p12
I100
sS'typeSelectionMode'
p13
S'AS'
p14
sS'simHeight'
p15
I10
sS'mcts_mode'
p16
S'UCTH'
p17
sS'endTime'
p18
F1547570740.222986
sS'reuseTree'
p19
S'False'
p20
sS'beginTime'
p21
F1547570660.914039
sS'PF_add_threshold'
p22
F0.9
sS'PF_weight'
p23
F1.2
sS'timeSteps'
p24
I43
sS'agentsCounts'
p25
I2
sS'simWidth'
p26
I10
sS'estimationMode'
p27
S'ABU'
p28
sS'maxDepth'
p29
I50
sa(dp30
I0
(dp31
S'l2TypeProbHistory'
p32
(lp33
F0.25
aF0.9896907216494846
aF0.9896907216494846
aF0.5
aF0.5
aF0.5
aF0.5
aF0.5
aF0.5
aF0.5
aF0.5
aF0.5
aF0.5
aF0.5
aF0.5
aF0.5
aF0.5
aF0.5
aF0.5
aF0.5
aF0.9896907216494846
aF0.9998915048280351
aF0.9998915048280352
aF0.9998915048280351
aF0.9998915048280352
aF0.9998915048280351
aF0.9998915048280352
aF0.9998915048280351
aF0.9998915048280352
aF0.9998915048280352
aF0.9998915048280351
aF0.9978345604157645
aF0.9978345604157643
aF0.9978345604157645
aF0.9978345604157643
aF0.9978345604157643
aF0.9978345604157645
aF0.9978345604157643
aF0.9978345604157645
aF0.9978345604157643
aF0.9978345604157645
aF0.9978345604157643
aF0.9978345604157645
aF0.9978345604157643
asS'maxProbability'
p34
S'l2'
p35
sS'l1EstimationHistory'
p36
S'[[0.63,0.94,0.75],[0.4014236258208198,0.4106633134186268,0.7225098453462124],[0.475869995774534,0.5337996292859316,0.40124317615638294],[0.426134690220041,0.7665736563503742,0.610580251823771],[0.372082190084195,0.5415402594953775,0.4172770393411259],[0.3985032193445696,0.5469660211354495,0.4977631563931989],[0.3648020667546842,0.6713950049132109,0.5183202071573991],[0.4040173512833962,0.5906863311305642,0.5145784602294603],[0.5135864801186755,0.4440454116091132,0.5044952246889667],[0.440004065519385,0.738092396967113,0.6241513996521283],[0.5460387362117745,0.5713689664378763,0.6329575889583158],[0.6493233173524717,0.4867741076275706,0.5160993486712634],[0.6251229094520123,0.5642405243590474,0.5828817540529223],[0.3988864838572492,0.5293388282880187,0.588285869202851],[0.5982818410202115,0.6193955384194851,0.44713557739133813],[0.5317489790794337,0.5483123019337655,0.6185803590932004],[0.5000178440225745,0.6385028511285782,0.5140657160576394],[0.6119855301819782,0.6278486214578152,0.6156448979449958],[0.5136467926651479,0.4753171980381012,0.44141553796173094],[0.6822177125030497,0.4279162921011448,0.52067376311337],[0.3902960202499592,0.45066271126270296,0.7274666519749905],[0.5688335598458809,0.5890506446361542,0.3970322748539458],[0.5038795351057942,0.528026919066906,0.6443543811127164],[0.48941717750938113,0.5228944428265094,0.6798768174105235],[0.613925127931055,0.5973044358193874,0.5979034294020478],[0.512792349428293,0.6078776877373457,0.4467484985375729],[0.5113189412042496,0.6594282984733582,0.5875916427953193],[0.4313312097511594,0.5151748135685921,0.44155023960856477],[0.43872065373010527,0.5548053771257401,0.4682535195647904],[0.4664226640840014,0.6170381484912211,0.5739911788712438],[0.5140898003989715,0.5852297226347669,0.625947250818833],[0.528366925693409,0.4428058258235456,0.33509320482550986],[0.5861960378465642,0.4357003026487125,0.47341259783219625],[0.44278116785126465,0.7089856804689418,0.5072666488906952],[0.49124175770088946,0.5199154873306254,0.6697189229256109],[0.3618473032268788,0.5521261069162146,0.5848764089668512],[0.547065527279402,0.5298901872114838,0.611318779132466],[0.4579202601275978,0.6129149205458979,0.5063252322451736],[0.5164717001509118,0.6816283249390451,0.535156576424747],[0.6168413659905905,0.5166873507287044,0.6346456907229324],[0.379183614429413,0.6216117676250207,0.5568414568648852],[0.41599589235199863,0.6647660688936154,0.4457132840045732],[0.4393186051089315,0.3884931238342427,0.6210250409622027],[0.48856440724104805,0.5753435188937756,0.5156341431306856]]'
p37
sS'trueType'
p38
S'l2'
p39
sS'f1TypeProbHistory'
p40
(lp41
F0.25
aF0.0
aF0.0
aF0.0
aF0.0
aF0.0
aF0.0
aF0.0
aF0.0
aF0.0
aF0.0
aF0.0
aF0.0
aF0.0
aF0.0
aF0.0
aF0.0
aF0.0
aF0.0
aF0.0
aF0.0
aF0.0
aF0.0
aF0.0
aF0.0
aF0.0
aF0.0
aF0.0
aF0.0
aF0.0
aF0.0
aF0.0
aF0.0
aF0.0
aF0.0
aF0.0
aF0.0
aF0.0
aF0.0
aF0.0
aF0.0
aF0.0
aF0.0
aF0.0
asS'f2TypeProbHistory'
p42
(lp43
F0.25
aF0.0
aF0.0
aF0.0
aF0.0
aF0.0
aF0.0
aF0.0
aF0.0
aF0.0
aF0.0
aF0.0
aF0.0
aF0.0
aF0.0
aF0.0
aF0.0
aF0.0
aF0.0
aF0.0
aF0.0
aF0.0
aF0.0
aF0.0
aF0.0
aF0.0
aF0.0
aF0.0
aF0.0
aF0.0
aF0.0
aF0.0
aF0.0
aF0.0
aF0.0
aF0.0
aF0.0
aF0.0
aF0.0
aF0.0
aF0.0
aF0.0
aF0.0
aF0.0
asS'l2EstimationHistory'
p44
S'[[0.09,0.23,0.42],[0.6758022570655665,0.5898917209357023,0.5508387833833694],[0.4872484695998919,0.5525061398744583,0.5967149304642347],[0.49626090633922393,0.5167781781405211,0.615563451031454],[0.5485036170014018,0.5681437965482473,0.6486423330647236],[0.43458582482957225,0.6181797586381436,0.5133638739398413],[0.6188770311400338,0.5847851214930415,0.4888127852751392],[0.49792322398137656,0.6288981806486845,0.542839692445628],[0.4540583556643111,0.5484946215525269,0.5354042046452826],[0.300559128046209,0.5692330168560147,0.4676162669007432],[0.48055257521459904,0.639700828678906,0.48346720671448323],[0.3392748213788115,0.6417311938479543,0.6808325314214025],[0.5496276696122395,0.5615634974092245,0.5792804055462548],[0.6091362720121534,0.5886446174234152,0.5609363135217184],[0.42407630683926306,0.5872310236096382,0.48547585284133293],[0.4578744793902844,0.609267172217369,0.45021827870224557],[0.6163209345571021,0.5804776206612587,0.6561269737482944],[0.6172425004549467,0.5408077768981456,0.435996009963199],[0.47518843876344563,0.6136227902024984,0.6145667444002115],[0.4450962381132012,0.42750959023833274,0.3596710588482127],[0.4714802769560055,0.5655170626938343,0.45354299066807957],[0.5155923557441089,0.504554633051157,0.49711540117749375],[0.4192255487319093,0.47961351945996283,0.6440055999313924],[0.4474964558182382,0.41009502932429315,0.5433822115302356],[0.5595833815533556,0.5248644448816776,0.5516936610367913],[0.3975766315561276,0.5926804721355439,0.5247315045076698],[0.30764009286839655,0.624513978511095,0.5470106598898526],[0.55264950827333,0.4929841011762619,0.35234676044712027],[0.4427555889695733,0.49482349753379823,0.5033594531245701],[0.3183132586363955,0.5105694614827799,0.6684155567566329],[0.4885939232484867,0.5386126170383545,0.5034512431164032],[0.5352756167827041,0.5775385722187103,0.5199886767542921],[0.465553884826846,0.6390708147426292,0.5515989754894625],[0.45567464371774147,0.5550830656204355,0.6032538969769993],[0.5670604445124086,0.5183985809677673,0.6882984068611558],[0.553291912516483,0.6043622015674779,0.5803675428150196],[0.6860539324462716,0.6066129291971616,0.6405121181317959],[0.5699364460630898,0.5171652524727189,0.5704881316272998],[0.5029487062809037,0.5567141559837794,0.4477433547821307],[0.41406261948605366,0.508571075617782,0.4415522541835098],[0.44751794790951765,0.6243046287325604,0.5394633216979587],[0.5246218621654204,0.44701463905792505,0.5915609374767091],[0.42237024588762156,0.6006442943533161,0.5649760801523735],[0.5219436744286409,0.464897801566922,0.5741572302349567]]'
p45
sS'f1EstimationHistory'
p46
S'[[0.24,0.34,0.44]]'
p47
sS'trueParameters'
p48
(lp49
F0.452
aF0.252
aF0.836
asS'f2EstimationHistory'
p50
S'[[0.28,0.76,0.54]]'
p51
sS'l1TypeProbHistory'
p52
(lp53
F0.25
aF0.010309278350515465
aF0.010309278350515465
aF0.5
aF0.5
aF0.5
aF0.5
aF0.5
aF0.5
aF0.5
aF0.5
aF0.5
aF0.5
aF0.5
aF0.5
aF0.5
aF0.5
aF0.5
aF0.5
aF0.5
aF0.010309278350515465
aF0.00010849517196484758
aF0.00010849517196484759
aF0.00010849517196484758
aF0.00010849517196484759
aF0.00010849517196484759
aF0.00010849517196484762
aF0.0001084951719648476
aF0.0001084951719648476
aF0.0001084951719648476
aF0.00010849517196484759
aF0.0021654395842356008
aF0.0021654395842356003
aF0.0021654395842356008
aF0.0021654395842356003
aF0.0021654395842356003
aF0.0021654395842356003
aF0.0021654395842356
aF0.0021654395842356
aF0.0021654395842356
aF0.0021654395842356
aF0.0021654395842355995
aF0.0021654395842355995
aF0.002165439584235599
assI1
(dp54
g32
(lp55
F0.25
aF0.5
aF0.5
aF0.5
aF0.5
aF0.5
aF0.5
aF0.5
aF0.5
aF0.010309278350515465
aF0.5
aF0.5
aF0.010309278350515465
aF0.010309278350515465
aF0.5
aF0.5
aF0.5
aF0.9896907216494846
aF0.9998915048280351
aF0.9998915048280352
aF0.9998915048280352
aF0.9998915048280351
aF0.9998915048280352
aF0.9998915048280352
aF0.9998915048280352
aF0.9998915048280351
aF0.9998915048280352
aF0.9998915048280351
aF0.9998915048280352
aF0.9998915048280351
aF0.9998915048280352
aF0.9998915048280351
aF0.9998915048280352
aF0.9998915048280351
aF0.9998915048280352
aF0.9998915048280351
aF0.9998915048280352
aF0.9998915048280351
aF0.9998915048280352
aF0.9998915048280351
aF0.9998915048280352
aF0.9994794377928162
aF0.9994794377928163
aF0.999973959011484
asg34
g35
sg36
S'[[0.51,0.41,0.8],[0.4963230646494459,0.5593006858550736,0.5010527836106908],[0.43310670594189454,0.513854232430458,0.3449312390467899],[0.5490819005440629,0.592871202088731,0.5322808601529827],[0.2447458802580412,0.7298291549663974,0.486294145402214],[0.5508603871006403,0.5595051524354046,0.672656943287287],[0.5518898543523802,0.4634138691171065,0.4584496900275864],[0.40283604709000864,0.556312427028707,0.5835112304410047],[0.33944733605707506,0.37211742448728763,0.6012120698944556],[0.5534754429346597,0.5360622471863568,0.5146349825541339],[0.4839978966995413,0.5335939493508632,0.5813486624313521],[0.5636199676889018,0.5707947126869508,0.5427440946886539],[0.5936398364207877,0.33047058453828254,0.5576280725919034],[0.43995237789972663,0.7105401914701673,0.4645256976649222],[0.5314805922436261,0.7385172758329354,0.5250089103638277],[0.4744440327471331,0.6287001191953114,0.4563749612624452],[0.43776485979294605,0.7523406203063245,0.7666308413411206],[0.48374895928708994,0.5310046863083141,0.5648484946693035],[0.4099046479324577,0.652708144213079,0.5552993107271457],[0.3450263294707508,0.5080916687620859,0.6081847341150236],[0.4336006252199427,0.43309100928081873,0.45643521279077104],[0.5642510535457478,0.5313806266381472,0.49606984644758817],[0.3945536395253167,0.47235936464283734,0.7092973492640543],[0.5660588099847758,0.6214282503051651,0.5982368558047921],[0.44764279820267683,0.5576527846245114,0.6156807985460376],[0.3687734483676087,0.5135060403397832,0.5220052570896788],[0.6716565635126891,0.545812792137849,0.789103658445593],[0.5008770421157647,0.4313022515383125,0.501797546232693],[0.6573430193290387,0.6827395522417182,0.621453960532836],[0.3402322930775313,0.5513816904875558,0.6173745427803616],[0.43523348669028367,0.5278745189317877,0.6934293016569557],[0.5683554771241291,0.6507972459634688,0.6216343315609312],[0.5618145263978663,0.6662082800875794,0.6427348008321428],[0.5036632998156841,0.6368435200565187,0.49023711152243477],[0.5568388176699566,0.5644643435841352,0.45214397150102653],[0.6477309139710054,0.535829393716033,0.5660223506757915],[0.39211468183716863,0.6988986600546908,0.5274997427600343],[0.5450270706316371,0.6554253656088737,0.5715900747538913],[0.3973347553930491,0.6109797545412584,0.45640485545860676],[0.3560121201148439,0.5792630659730943,0.6183914103514596],[0.4878570703979226,0.5143088505089527,0.6084515633939334],[0.4980007073095824,0.47941076163244994,0.5230850743138524],[0.4360439289659627,0.5741072100190786,0.6065966704252685],[0.3192486156081323,0.5589900740312649,0.5808689453288463]]'
p56
sg38
S'l1'
p57
sg40
(lp58
F0.25
aF0.0
aF0.0
aF0.0
aF0.0
aF0.0
aF0.0
aF0.0
aF0.0
aF0.0
aF0.0
aF0.0
aF0.0
aF0.0
aF0.0
aF0.0
aF0.0
aF0.0
aF0.0
aF0.0
aF0.0
aF0.0
aF0.0
aF0.0
aF0.0
aF0.0
aF0.0
aF0.0
aF0.0
aF0.0
aF0.0
aF0.0
aF0.0
aF0.0
aF0.0
aF0.0
aF0.0
aF0.0
aF0.0
aF0.0
aF0.0
aF0.0
aF0.0
aF0.0
asg42
(lp59
F0.25
aF0.0
aF0.0
aF0.0
aF0.0
aF0.0
aF0.0
aF0.0
aF0.0
aF0.0
aF0.0
aF0.0
aF0.0
aF0.0
aF0.0
aF0.0
aF0.0
aF0.0
aF0.0
aF0.0
aF0.0
aF0.0
aF0.0
aF0.0
aF0.0
aF0.0
aF0.0
aF0.0
aF0.0
aF0.0
aF0.0
aF0.0
aF0.0
aF0.0
aF0.0
aF0.0
aF0.0
aF0.0
aF0.0
aF0.0
aF0.0
aF0.0
aF0.0
aF0.0
asg44
S'[[0.93,0.19,0.37],[0.5366998399262529,0.5397544525359056,0.6329633191752961],[0.5234985931363486,0.7548475060226075,0.6289422358072916],[0.5811189667611768,0.5114183905897699,0.6112928222135322],[0.3907658773038068,0.6934545084062218,0.6668251191581109],[0.39993941377267805,0.5535789898739791,0.7112345914027511],[0.6001258287406801,0.6589840643255012,0.4463255748983512],[0.6032323058108324,0.515212670402122,0.5354689768182963],[0.5477546490908527,0.6038142838635082,0.7195161835940035],[0.48283934546044704,0.45986071019953406,0.6666356178585923],[0.4781931596726438,0.548218354575414,0.4817185262611581],[0.49492475121003665,0.5257907535808043,0.5830374001829841],[0.43597643606167313,0.4367946497012626,0.45200698732998906],[0.5136864199105243,0.5331875909791948,0.6400280349068896],[0.5509659205483632,0.6019891560066785,0.4322809328711335],[0.5424492642392187,0.48430673984037276,0.4503491299496868],[0.3982265998184399,0.47652258123364205,0.5893920192781233],[0.5562849045421743,0.4750555168554132,0.6601395389880834],[0.480840940854795,0.6234311274393948,0.4479774078754133],[0.32998548039751696,0.541013732346935,0.6194465455388805],[0.46261617831411,0.5276706529885834,0.633562724515864],[0.4950347073385709,0.5067060382877326,0.5890659274293781],[0.5654499323950075,0.7046763516182905,0.5158399983176423],[0.48626504023442624,0.5754815691608947,0.564113691866422],[0.4605009002665105,0.44482401696462315,0.4950690620115343],[0.5732859868609823,0.49197786433720364,0.5426099990067705],[0.32363848140296236,0.7127703541174999,0.4195286546878152],[0.5172388554827184,0.5751126419792534,0.5572554261173784],[0.49731359745600656,0.47616185281996215,0.525590515336233],[0.47170006975951767,0.6894747985695704,0.4671966540732663],[0.3939557662323573,0.575872817571691,0.5492629798099523],[0.4051260942027225,0.6063263259534823,0.4576021574536007],[0.48093343185885573,0.5895770505300814,0.5607363480059223],[0.4334410177159862,0.501029852599047,0.6020806871911724],[0.44375091009866485,0.6292181070966674,0.5402729797299666],[0.5949508864220225,0.4733166186427328,0.5926673421304729],[0.5583186449495217,0.5058836761930665,0.36722224677211796],[0.48689610398883143,0.49230845220670505,0.6032227116179169],[0.47895521809388386,0.7894275656876073,0.5115292240847331],[0.6339798246020136,0.5257670426905612,0.5928890951373262],[0.5459438050089732,0.5231576032534351,0.5883800591632288],[0.43282637420485387,0.4874656440566728,0.7575698046858551],[0.3666049509847135,0.5256751529984315,0.658101859864342],[0.5747031075194815,0.6506303107887819,0.4572542480568865]]'
p60
sg46
S'[[0.72,0.75,0.58]]'
p61
sg48
(lp62
F0.305
aF0.637
aF0.479
asg50
S'[[0.23,0.25,0.12]]'
p63
sg52
(lp64
F0.25
aF0.5
aF0.5
aF0.5
aF0.5
aF0.5
aF0.5
aF0.5
aF0.5
aF0.9896907216494846
aF0.5
aF0.5
aF0.9896907216494846
aF0.9896907216494846
aF0.5
aF0.5
aF0.5
aF0.010309278350515465
aF0.00010849517196484758
aF0.00010849517196484759
aF0.0001084951719648476
aF0.00010849517196484759
aF0.00010849517196484762
aF0.00010849517196484762
aF0.00010849517196484762
aF0.00010849517196484759
aF0.0001084951719648476
aF0.00010849517196484759
aF0.0001084951719648476
aF0.00010849517196484759
aF0.0001084951719648476
aF0.00010849517196484759
aF0.0001084951719648476
aF0.00010849517196484759
aF0.0001084951719648476
aF0.00010849517196484759
aF0.0001084951719648476
aF0.00010849517196484759
aF0.0001084951719648476
aF0.00010849517196484759
aF0.0001084951719648476
aF0.0005205622071837586
aF0.0005205622071837587
aF2.604098851592407e-05
assa.