(lp0
(dp1
S'iterationMax'
p2
I50
sS'CPU_Time'
p3
ccopy_reg
_reconstructor
p4
(cpsutil._pslinux
scputimes
p5
c__builtin__
tuple
p6
(F17105182.52
F888.7
F1054613.86
F233403425.44
F19509.47
F0.0
F2189.41
F0.0
F0.0
F0.0
tp7
tp8
Rp9
sS'itemsCounts'
p10
I10
sS'memory_usage'
p11
I254443520
sS'generatedDataNumber'
p12
I100
sS'typeSelectionMode'
p13
S'AS'
p14
sS'simHeight'
p15
I10
sS'mcts_mode'
p16
S'UCTH'
p17
sS'endTime'
p18
F1547571970.679604
sS'reuseTree'
p19
S'False'
p20
sS'beginTime'
p21
F1547571786.96766
sS'PF_add_threshold'
p22
F0.9
sS'PF_weight'
p23
F1.2
sS'timeSteps'
p24
I69
sS'agentsCounts'
p25
I2
sS'simWidth'
p26
I10
sS'estimationMode'
p27
S'MIN'
p28
sS'maxDepth'
p29
I50
sa(dp30
I0
(dp31
S'l2TypeProbHistory'
p32
(lp33
F0.25
aF0.5
aF0.5
aF0.5
aF0.2
aF0.2
aF0.2
aF0.2
aF0.2
aF0.2
aF0.2
aF0.2
aF0.2
aF0.2
aF0.2
aF0.2
aF0.2
aF0.2
aF0.2
aF0.2
aF0.2
aF0.2
aF0.2
aF0.2
aF0.2
aF0.2
aF0.2
aF0.2
aF0.2
aF0.2
aF0.2
aF0.2
aF0.2
aF0.2
aF0.2
aF0.2
aF0.0025974025974025974
aF0.19999999999999998
aF0.2
aF0.2
aF0.2
aF0.2
aF0.012345679012345677
aF0.012345679012345675
aF0.04761904761904761
aF0.0476190476190476
aF0.04761904761904759
aF0.04761904761904759
aF0.04761904761904759
aF0.04761904761904759
aF0.047619047619047596
aF0.0476190476190476
aF0.0476190476190476
aF0.0476190476190476
aF0.0476190476190476
aF0.0476190476190476
aF0.0476190476190476
aF0.0476190476190476
aF0.002493765586034912
aF0.00497512437810945
aF0.00497512437810945
aF0.00497512437810945
aF0.00497512437810945
aF0.00497512437810945
aF0.001663893510815307
aF0.0005552470849528037
aF0.0005552470849528037
aF0.00018515089798185508
aF6.17245849021665e-05
aF6.17245849021665e-05
asS'maxProbability'
p34
S'l1'
p35
sS'l1EstimationHistory'
p36
S'[[0.26,0.35,0.38],[0.26,0.35,0.38],[0.26,0.35,0.38],[0.26,0.35,0.38],[0.5321064422363523,0.46187471187388357,0.3872357830981178],[0.5321064422363523,0.46187471187388357,0.3872357830981178],[0.5321064422363523,0.46187471187388357,0.3872357830981178],[0.5321064422363523,0.46187471187388357,0.3872357830981178],[0.5321064422363523,0.46187471187388357,0.3872357830981178],[0.5321064422363523,0.46187471187388357,0.3872357830981178],[0.5321064422363523,0.46187471187388357,0.3872357830981178],[0.5321064422363523,0.46187471187388357,0.3872357830981178],[0.5321064422363523,0.46187471187388357,0.3872357830981178],[0.5321064422363523,0.46187471187388357,0.3872357830981178],[0.5321064422363523,0.46187471187388357,0.3872357830981178],[0.5321064422363523,0.46187471187388357,0.3872357830981178],[0.5321064422363523,0.46187471187388357,0.3872357830981178],[0.5321064422363523,0.46187471187388357,0.3872357830981178],[0.5321064422363523,0.46187471187388357,0.3872357830981178],[0.5321064422363523,0.46187471187388357,0.3872357830981178],[0.5321064422363523,0.46187471187388357,0.3872357830981178],[0.5321064422363523,0.46187471187388357,0.3872357830981178],[0.5321064422363523,0.46187471187388357,0.3872357830981178],[0.5321064422363523,0.46187471187388357,0.3872357830981178],[0.5321064422363523,0.46187471187388357,0.3872357830981178],[0.5321064422363523,0.46187471187388357,0.3872357830981178],[0.5321064422363523,0.46187471187388357,0.3872357830981178],[0.5321064422363523,0.46187471187388357,0.3872357830981178],[0.5321064422363523,0.46187471187388357,0.3872357830981178],[0.5321064422363523,0.46187471187388357,0.3872357830981178],[0.5321064422363523,0.46187471187388357,0.3872357830981178],[0.5321064422363523,0.46187471187388357,0.3872357830981178],[0.5321064422363523,0.46187471187388357,0.3872357830981178],[0.5321064422363523,0.46187471187388357,0.3872357830981178],[0.5321064422363523,0.46187471187388357,0.3872357830981178],[0.5321064422363523,0.46187471187388357,0.3872357830981178],[0.5321064422363523,0.46187471187388357,0.3872357830981178],[0.5321064422363523,0.46187471187388357,0.3872357830981178],[0.5321064422363523,0.46187471187388357,0.3872357830981178],[0.5321064422363523,0.46187471187388357,0.3872357830981178],[0.5321064422363523,0.46187471187388357,0.3872357830981178],[0.5321064422363523,0.46187471187388357,0.3872357830981178],[0.5321064422363523,0.46187471187388357,0.3872357830981178],[0.5321064422363523,0.46187471187388357,0.3872357830981178],[0.5178174186857162,0.47321855111712374,0.4096498411104524],[0.5178174186857162,0.47321855111712374,0.4096498411104524],[0.5178174186857162,0.47321855111712374,0.4096498411104524],[0.5178174186857162,0.47321855111712374,0.4096498411104524],[0.5178174186857162,0.47321855111712374,0.4096498411104524],[0.5178174186857162,0.47321855111712374,0.4096498411104524],[0.5178174186857162,0.47321855111712374,0.4096498411104524],[0.5178174186857162,0.47321855111712374,0.4096498411104524],[0.5178174186857162,0.47321855111712374,0.4096498411104524],[0.5178174186857162,0.47321855111712374,0.4096498411104524],[0.5178174186857162,0.47321855111712374,0.4096498411104524],[0.5178174186857162,0.47321855111712374,0.4096498411104524],[0.5178174186857162,0.47321855111712374,0.4096498411104524],[0.5178174186857162,0.47321855111712374,0.4096498411104524],[0.5178174186857162,0.47321855111712374,0.4096498411104524],[0.5113303888115166,0.47042061127798523,0.4207274638617098],[0.5113303888115166,0.47042061127798523,0.4207274638617098],[0.5113303888115166,0.47042061127798523,0.4207274638617098],[0.5113303888115166,0.47042061127798523,0.4207274638617098],[0.5113303888115166,0.47042061127798523,0.4207274638617098],[0.505113651848742,0.46773925226547747,0.4313435189983313],[0.49915065925179497,0.46516733647797,0.44152626576202963],[0.49915065925179497,0.46516733647797,0.44152626576202963],[0.49342618635872576,0.4626982973219629,0.45130170265518005],[0.4879262025987181,0.4603260832308972,0.46069378908193237],[0.4879262025987181,0.4603260832308972,0.46069378908193237]]'
p37
sS'trueType'
p38
S'l2'
p39
sS'f1TypeProbHistory'
p40
(lp41
F0.25
aF0.0
aF0.0
aF0.0
aF0.0
aF0.0
aF0.0
aF0.0
aF0.0
aF0.0
aF0.0
aF0.0
aF0.0
aF0.0
aF0.0
aF0.0
aF0.0
aF0.0
aF0.0
aF0.0
aF0.0
aF0.0
aF0.0
aF0.0
aF0.0
aF0.0
aF0.0
aF0.0
aF0.0
aF0.0
aF0.0
aF0.0
aF0.0
aF0.0
aF0.0
aF0.0
aF0.0
aF0.0
aF0.0
aF0.0
aF0.0
aF0.0
aF0.0
aF0.0
aF0.0
aF0.0
aF0.0
aF0.0
aF0.0
aF0.0
aF0.0
aF0.0
aF0.0
aF0.0
aF0.0
aF0.0
aF0.0
aF0.0
aF0.0
aF0.0
aF0.0
aF0.0
aF0.0
aF0.0
aF0.0
aF0.0
aF0.0
aF0.0
aF0.0
aF0.0
asS'f2TypeProbHistory'
p42
(lp43
F0.25
aF0.0
aF0.0
aF0.0
aF0.0
aF0.0
aF0.0
aF0.0
aF0.0
aF0.0
aF0.0
aF0.0
aF0.0
aF0.0
aF0.0
aF0.0
aF0.0
aF0.0
aF0.0
aF0.0
aF0.0
aF0.0
aF0.0
aF0.0
aF0.0
aF0.0
aF0.0
aF0.0
aF0.0
aF0.0
aF0.0
aF0.0
aF0.0
aF0.0
aF0.0
aF0.0
aF0.0
aF0.0
aF0.0
aF0.0
aF0.0
aF0.0
aF0.0
aF0.0
aF0.0
aF0.0
aF0.0
aF0.0
aF0.0
aF0.0
aF0.0
aF0.0
aF0.0
aF0.0
aF0.0
aF0.0
aF0.0
aF0.0
aF0.0
aF0.0
aF0.0
aF0.0
aF0.0
aF0.0
aF0.0
aF0.0
aF0.0
aF0.0
aF0.0
aF0.0
asS'l2EstimationHistory'
p44
S'[[0.33,0.53,0.64],[0.33,0.53,0.64],[0.33,0.53,0.64],[0.33,0.53,0.64],[0.45736777215046137,0.5822473879530832,0.4097670990716233],[0.45736777215046137,0.5822473879530832,0.4097670990716233],[0.45736777215046137,0.5822473879530832,0.4097670990716233],[0.45736777215046137,0.5822473879530832,0.4097670990716233],[0.45736777215046137,0.5822473879530832,0.4097670990716233],[0.45736777215046137,0.5822473879530832,0.4097670990716233],[0.45736777215046137,0.5822473879530832,0.4097670990716233],[0.45736777215046137,0.5822473879530832,0.4097670990716233],[0.45736777215046137,0.5822473879530832,0.4097670990716233],[0.45736777215046137,0.5822473879530832,0.4097670990716233],[0.45736777215046137,0.5822473879530832,0.4097670990716233],[0.45736777215046137,0.5822473879530832,0.4097670990716233],[0.45736777215046137,0.5822473879530832,0.4097670990716233],[0.45736777215046137,0.5822473879530832,0.4097670990716233],[0.45736777215046137,0.5822473879530832,0.4097670990716233],[0.45736777215046137,0.5822473879530832,0.4097670990716233],[0.45736777215046137,0.5822473879530832,0.4097670990716233],[0.45736777215046137,0.5822473879530832,0.4097670990716233],[0.45736777215046137,0.5822473879530832,0.4097670990716233],[0.45736777215046137,0.5822473879530832,0.4097670990716233],[0.45736777215046137,0.5822473879530832,0.4097670990716233],[0.45736777215046137,0.5822473879530832,0.4097670990716233],[0.45736777215046137,0.5822473879530832,0.4097670990716233],[0.45736777215046137,0.5822473879530832,0.4097670990716233],[0.45736777215046137,0.5822473879530832,0.4097670990716233],[0.45736777215046137,0.5822473879530832,0.4097670990716233],[0.45736777215046137,0.5822473879530832,0.4097670990716233],[0.45736777215046137,0.5822473879530832,0.4097670990716233],[0.45736777215046137,0.5822473879530832,0.4097670990716233],[0.45736777215046137,0.5822473879530832,0.4097670990716233],[0.45736777215046137,0.5822473879530832,0.4097670990716233],[0.45736777215046137,0.5822473879530832,0.4097670990716233],[0.45736777215046137,0.5822473879530832,0.4097670990716233],[0.45736777215046137,0.5822473879530832,0.4097670990716233],[0.45736777215046137,0.5822473879530832,0.4097670990716233],[0.45736777215046137,0.5822473879530832,0.4097670990716233],[0.45736777215046137,0.5822473879530832,0.4097670990716233],[0.45736777215046137,0.5822473879530832,0.4097670990716233],[0.45736777215046137,0.5822473879530832,0.4097670990716233],[0.45736777215046137,0.5822473879530832,0.4097670990716233],[0.43422904333007023,0.5549339875653899,0.48778207775720683],[0.43422904333007023,0.5549339875653899,0.48778207775720683],[0.43422904333007023,0.5549339875653899,0.48778207775720683],[0.43422904333007023,0.5549339875653899,0.48778207775720683],[0.43422904333007023,0.5549339875653899,0.48778207775720683],[0.43422904333007023,0.5549339875653899,0.48778207775720683],[0.43422904333007023,0.5549339875653899,0.48778207775720683],[0.43422904333007023,0.5549339875653899,0.48778207775720683],[0.43422904333007023,0.5549339875653899,0.48778207775720683],[0.43422904333007023,0.5549339875653899,0.48778207775720683],[0.43422904333007023,0.5549339875653899,0.48778207775720683],[0.43422904333007023,0.5549339875653899,0.48778207775720683],[0.43422904333007023,0.5549339875653899,0.48778207775720683],[0.43422904333007023,0.5549339875653899,0.48778207775720683],[0.43422904333007023,0.5549339875653899,0.48778207775720683],[0.43348025281795466,0.560804112524988,0.501777603448028],[0.43348025281795466,0.560804112524988,0.501777603448028],[0.43348025281795466,0.560804112524988,0.501777603448028],[0.43348025281795466,0.560804112524988,0.501777603448028],[0.43348025281795466,0.560804112524988,0.501777603448028],[0.43348025281795466,0.560804112524988,0.501777603448028],[0.43348025281795466,0.560804112524988,0.501777603448028],[0.43348025281795466,0.560804112524988,0.501777603448028],[0.43348025281795466,0.560804112524988,0.501777603448028],[0.43348025281795466,0.560804112524988,0.501777603448028],[0.43348025281795466,0.560804112524988,0.501777603448028]]'
p45
sS'f1EstimationHistory'
p46
S'[[0.86,0.84,0.38]]'
p47
sS'trueParameters'
p48
(lp49
F0.488
aF0.197
aF0.51
asS'f2EstimationHistory'
p50
S'[[0.56,0.48,0.93]]'
p51
sS'l1TypeProbHistory'
p52
(lp53
F0.25
aF0.5
aF0.5
aF0.5
aF0.8
aF0.8
aF0.8
aF0.8
aF0.8
aF0.8
aF0.8
aF0.8
aF0.8
aF0.8
aF0.8
aF0.8
aF0.8
aF0.8
aF0.8
aF0.8
aF0.8
aF0.8
aF0.8
aF0.8
aF0.8
aF0.8
aF0.8
aF0.8
aF0.8
aF0.8
aF0.8
aF0.8
aF0.8
aF0.8
aF0.8
aF0.8
aF0.9974025974025974
aF0.7999999999999999
aF0.8
aF0.8
aF0.8
aF0.8
aF0.9876543209876544
aF0.9876543209876544
aF0.9523809523809526
aF0.9523809523809526
aF0.9523809523809523
aF0.9523809523809523
aF0.9523809523809523
aF0.9523809523809523
aF0.9523809523809524
aF0.9523809523809524
aF0.9523809523809524
aF0.9523809523809524
aF0.9523809523809524
aF0.9523809523809524
aF0.9523809523809524
aF0.9523809523809524
aF0.9975062344139652
aF0.9950248756218906
aF0.9950248756218906
aF0.9950248756218906
aF0.9950248756218906
aF0.9950248756218906
aF0.9983361064891847
aF0.9994447529150472
aF0.9994447529150473
aF0.999814849102018
aF0.9999382754150979
aF0.9999382754150978
assI1
(dp54
g32
(lp55
F0.25
aF0.1724137931034483
aF0.04159733777038271
aF0.008961215857767584
aF0.008961215857767584
aF0.15314873805439846
aF0.15314873805439846
aF0.08819938275771096
aF0.08819938275771096
aF0.08819938275771096
aF0.014663474534517568
aF0.0024741453957574143
aF0.0004132095163114567
aF6.889197506832255e-05
aF1.1482655063709063e-05
aF1.913794156816649e-06
aF3.18966201499152e-07
aF5.3161047713673215e-08
aF8.860175011459023e-09
aF1.4766958461463237e-09
aF2.46115974660586e-10
aF4.1019329118510604e-11
aF6.836554853318792e-12
aF1.1394258088929569e-12
aF1.8990430148233983e-13
aF3.1650716913728316e-14
aF5.275119485621526e-15
aF8.791865809369248e-16
aF1.4653109682282093e-16
aF2.4421849470470157e-17
aF4.07030824507836e-18
aF6.7838470751306e-19
aF1.1306411791884335e-19
aF1.884401965314056e-20
aF3.140669942190094e-21
aF5.234449903650158e-22
aF8.724083172750264e-23
aF1.454013862125044e-23
aF2.4233564368750737e-24
aF4.0389273947917896e-25
aF6.731545657986317e-26
aF1.1219242763310529e-26
aF1.8698737938850885e-27
aF3.1164563231418145e-28
aF5.194093871903024e-29
aF8.656823119838375e-30
aF1.4428038533063959e-30
aF2.4046730888439933e-31
aF4.007788481406656e-32
aF6.679647469011094e-33
aF1.1132745781685157e-33
aF1.8554576302808598e-34
aF3.092429383801433e-35
aF5.154048973002389e-36
aF8.590081621670649e-37
aF1.4316802702784417e-37
aF2.386133783797403e-38
aF3.976889639662339e-39
aF6.628149399437232e-40
aF1.1046915665728723e-40
aF1.8411526109547874e-41
aF3.068587684924646e-42
aF5.114312808207744e-43
aF8.523854680346241e-44
aF1.4206424467243738e-44
aF2.36773741120729e-45
aF3.946229018678816e-46
aF6.577048364464694e-47
aF1.0961747274107824e-47
aF1.8269578790179708e-48
asg34
g35
sg36
S'[[0.15,0.29,0.69],[0.15,0.29,0.69],[0.15,0.29,0.69],[0.15,0.29,0.69],[0.15,0.29,0.69],[0.15,0.29,0.69],[0.15,0.29,0.69],[0.5153704861809894,0.575425731297595,0.3846951510901319],[0.5153704861809894,0.575425731297595,0.3846951510901319],[0.5153704861809894,0.575425731297595,0.3846951510901319],[0.5044455650197744,0.5816899166558693,0.3566202984404088],[0.5007683622620327,0.5839582260332228,0.35363939575261866],[0.4976304825754262,0.5858938500352311,0.3510956921257044],[0.49492138147953607,0.587564978831996,0.34889957532979704],[0.49255879331451574,0.5890223585966166,0.3469843571938313],[0.4904802321420116,0.5903045342365286,0.34529938386109654],[0.4886373840921624,0.5914413085152136,0.34380548997846555],[0.4869923051013215,0.5924560875054543,0.3424719164149463],[0.48551478045214036,0.5933675093763187,0.34127416978845204],[0.48418045202446564,0.5941905996121212,0.3401925043328075],[0.48296946488002146,0.5949376058765472,0.33921082475961756],[0.4818654725836807,0.5956186115874896,0.3383158799278339],[0.48085489502010725,0.5962419937382754,0.3374966611972012],[0.4799263569635398,0.5968147692199937,0.33674394730816964],[0.4790702580461372,0.5973428600896631,0.33604995577927527],[0.47827843959352245,0.5978312990851593,0.3354080728293423],[0.4775439237920838,0.5982843905217711,0.3348126419349966],[0.47686070750693615,0.5987058374770955,0.3342587966904147],[0.47622359784225843,0.5990988432268459,0.3337423275052831],[0.4756280799064322,0.5994661928148916,0.3332595744093886],[0.47507020965620417,0.5998103191531182,0.33280734018737246],[0.474546526440809,0.6001333569692252,0.33238281948314],[0.4740539811463293,0.6004371871314014,0.33198354055051066],[0.4735898767874888,0.6007234732947119,0.3316073170943061],[0.47315181910184856,0.6009936923774283,0.33125220821982726],[0.4727376752352756,0.6012491600462001,0.3309164849414738],[0.4723455390137861,0.6014910521383704,0.33059860203056907],[0.4719737016084679,0.601720422757534,0.3302971742350524],[0.47162062664103266,0.6019382196298595,0.3300109560989425],[0.4712849289650596,0.6021452971930322,0.3297388247614778],[0.47096535650496296,0.602342427799022,0.3294797652349831],[0.4706607746506704,0.6025303113403385,0.32923285775450734],[0.470370152798033,0.602709583552678,0.3289972668668867],[0.47009255269846684,0.6028808232015319,0.32877223198645056],[0.469827118340316,0.603044558323942,0.32855705919240824],[0.46957306713202734,0.6032012716672233,0.3283511140815411],[0.4693296821958424,0.6033514054426569,0.3281538155211302],[0.46909630561217347,0.6034953654927456,0.32796463017254934],[0.4688723324805938,0.6036335249547357,0.3277830676768417],[0.46865720568455227,0.60376622749004,0.3276086764107671],[0.46845041126441384,0.6038937901384137,0.327441039735984],[0.4682514743179247,0.6040165058467801,0.3272797726757868],[0.46805995535927075,0.6041346457151736,0.327124518963597],[0.4678754470779721,0.6042484609960385,0.32697494841558045],[0.46769757144730817,0.604358184877918,0.3268307545866104],[0.46752597713907545,0.6044640340801807,0.32669165267455413],[0.46736033720746906,0.6045662102817337,0.3265573776427269],[0.46720034700996405,0.604664901403544,0.32642768253446597],[0.4670457223373752,0.6047602827621228,0.32630233695727473],[0.4668961977289498,0.6048525181088744,0.32618112571696234],[0.46675152495147637,0.6049417605682684,0.3260638475847427],[0.46661147162408173,0.6050281534861431,0.32595031418243425],[0.46647581997269105,0.6051118311980276,0.3258403489727698],[0.4663443657001057,0.6051929197261408,0.32573378634343253],[0.4662169169593719,0.6052715374126769,0.325630470774823],[0.46609329341958794,0.6053477954960702,0.32553025608276104],[0.4659733254145824,0.6054217986361372,0.32543300472836767],[0.4658568531660143,0.605493645393315,0.3253385871882744],[0.46574372607341014,0.605563428666605,0.32524688137909774],[0.46574372607341014,0.605563428666605,0.32524688137909774]]'
p56
sg38
S'l1'
p57
sg40
(lp58
F0.25
aF0.0
aF0.0
aF0.0
aF0.0
aF0.0
aF0.0
aF0.0
aF0.0
aF0.0
aF0.0
aF0.0
aF0.0
aF0.0
aF0.0
aF0.0
aF0.0
aF0.0
aF0.0
aF0.0
aF0.0
aF0.0
aF0.0
aF0.0
aF0.0
aF0.0
aF0.0
aF0.0
aF0.0
aF0.0
aF0.0
aF0.0
aF0.0
aF0.0
aF0.0
aF0.0
aF0.0
aF0.0
aF0.0
aF0.0
aF0.0
aF0.0
aF0.0
aF0.0
aF0.0
aF0.0
aF0.0
aF0.0
aF0.0
aF0.0
aF0.0
aF0.0
aF0.0
aF0.0
aF0.0
aF0.0
aF0.0
aF0.0
aF0.0
aF0.0
aF0.0
aF0.0
aF0.0
aF0.0
aF0.0
aF0.0
aF0.0
aF0.0
aF0.0
aF0.0
asg42
(lp59
F0.25
aF0.0
aF0.0
aF0.0
aF0.0
aF0.0
aF0.0
aF0.0
aF0.0
aF0.0
aF0.0
aF0.0
aF0.0
aF0.0
aF0.0
aF0.0
aF0.0
aF0.0
aF0.0
aF0.0
aF0.0
aF0.0
aF0.0
aF0.0
aF0.0
aF0.0
aF0.0
aF0.0
aF0.0
aF0.0
aF0.0
aF0.0
aF0.0
aF0.0
aF0.0
aF0.0
aF0.0
aF0.0
aF0.0
aF0.0
aF0.0
aF0.0
aF0.0
aF0.0
aF0.0
aF0.0
aF0.0
aF0.0
aF0.0
aF0.0
aF0.0
aF0.0
aF0.0
aF0.0
aF0.0
aF0.0
aF0.0
aF0.0
aF0.0
aF0.0
aF0.0
aF0.0
aF0.0
aF0.0
aF0.0
aF0.0
aF0.0
aF0.0
aF0.0
aF0.0
asg44
S'[[0.65,0.35,0.15],[0.65,0.35,0.15],[0.65,0.35,0.15],[0.65,0.35,0.15],[0.65,0.35,0.15],[0.65,0.35,0.15],[0.65,0.35,0.15],[0.6423968702087496,0.6857849096553473,0.49177262221802476],[0.6423968702087496,0.6857849096553473,0.49177262221802476],[0.6423968702087496,0.6857849096553473,0.49177262221802476],[0.6649153827337897,0.6815129717392219,0.43060887389690583],[0.6649375135287602,0.6797949865395894,0.428449686999186],[0.6649592627583002,0.6781066217744333,0.4263277274617718],[0.6649806402061386,0.6764471179454337,0.42424204073696287],[0.6650016553243526,0.6748157412999763,0.42219170463460837],[0.6650223172473025,0.6732117827494007,0.4201758279625455],[0.6650426348048701,0.6716345568413346,0.4181935492350172],[0.6650626165350397,0.6700834007829887,0.4162440354451339],[0.6650822706958623,0.6685576735124844,0.4143264808977076],[0.6651016052768342,0.6670567548154844,0.41244010609902],[0.6651206280097257,0.665580044484565,0.41058415670031123],[0.665139346378891,0.6641269615189404,0.4087579024919818],[0.6651577676310856,0.6626969433622938,0.4069606364456893],[0.6651758987848203,0.6612894451766181,0.4051916738017007],[0.6651937466392781,0.6599039391500932,0.4034503511990245],[0.6652113177828137,0.6585399138371579,0.40173602584600215],[0.6652286186010644,0.6571968735290373,0.40004807472918],[0.6652456552846853,0.6558743376531017,0.39838589385841633],[0.665262433836736,0.6545718401995286,0.39674889754630055],[0.6652789600797334,0.6532889291738291,0.3951365177200813],[0.6652952396623877,0.6520251660738862,0.39354820326440254],[0.6653112780660395,0.6507801253902386,0.3919834193932524],[0.6653270806108145,0.6495533941284094,0.39044164704961914],[0.6653426524615048,0.6483445713521544,0.3889223823314404],[0.6653579986331997,0.6471532677465698,0.38742513594251066],[0.6653731239966686,0.6459791052000583,0.38594943266709075],[0.6653880332835167,0.6448217164042112,0.38449481086703385],[0.6654027310911187,0.6436807444707167,0.38306082200031116],[0.665417221887346,0.6425558425644544,0.3816470301598804],[0.6654315100150945,0.6414466735519859,0.3802530116319031],[0.6654455996966244,0.6403529096646908,0.37887835447236995],[0.6654594950377194,0.639274232175841,0.37752265810124414],[0.6654732000316761,0.638210331090948,0.3761855329132845],[0.66548671856313,0.6371609048507476,0.37486659990475285],[0.6655000544117263,0.6361256600462255,0.3735654903152555],[0.6655132112556436,0.6351043111451198,0.3722818452840063],[0.6655261926749753,0.634096580229362,0.37101531551984046],[0.665539002154978,0.6331021967429522,0.36976556098433916],[0.6655516430891915,0.6321208972497846,0.3685322505874627],[0.6655641187824346,0.6311524252009721,0.36731506189512075],[0.6655764324536876,0.630196530711235,0.36611368084813384],[0.6655885872388599,0.6292529703439463,0.36492780149207577],[0.6656005861934531,0.6283215069044433,0.36375712571750557],[0.6656124322951215,0.6274019092412396,0.36260136301012746],[0.6656241284461358,0.6264939520547853,0.36146023021043766],[0.6656356774757538,0.6255974157134438,0.360333451282442],[0.6656470821425018,0.6247120860763691,0.3592207570910463],[0.6656583451363707,0.6238377543229846,0.35812188518774246],[0.6656694690809325,0.6229742167887777,0.3570365796042325],[0.6656804565353771,0.6221212748071377,0.3559645906536491],[0.6656913099964747,0.6212787345569813,0.35490567473904844],[0.6657020319004682,0.6204464069159177,0.3538595941688671],[0.6657126246248954,0.6196241073187222,0.3528261169790494],[0.6657230904903475,0.6188116556208942,0.35180501676156495],[0.6657334317621635,0.6180088759670882,0.3507960724990504],[0.6657436506520642,0.6172155966642148,0.3497990684053231],[0.6657537493197309,0.6164316500590222,0.348813793771522],[0.6657637298743254,0.6156568724199721,0.34784004281764835],[0.6657735943759595,0.6148911038232368,0.34687761454928495],[0.6657735943759595,0.6148911038232368,0.34687761454928495]]'
p60
sg46
S'[[0.58,0.4,0.33]]'
p61
sg48
(lp62
F0.687
aF0.364
aF0.674
asg50
S'[[0.26,0.11,0.49]]'
p63
sg52
(lp64
F0.25
aF0.8275862068965517
aF0.9584026622296173
aF0.9910387841422323
aF0.9910387841422323
aF0.8468512619456015
aF0.8468512619456016
aF0.911800617242289
aF0.911800617242289
aF0.911800617242289
aF0.9853365254654823
aF0.9975258546042427
aF0.9995867904836886
aF0.9999311080249317
aF0.9999885173449362
aF0.9999980862058432
aF0.9999996810337985
aF0.9999999468389523
aF0.9999999911398249
aF0.9999999985233041
aF0.999999999753884
aF0.9999999999589808
aF0.9999999999931635
aF0.9999999999988605
aF0.9999999999998102
aF0.9999999999999684
aF0.9999999999999948
aF0.9999999999999991
aF1.0
aF1.0
aF1.0
aF1.0
aF1.0
aF1.0
aF1.0
aF1.0
aF1.0
aF1.0
aF1.0
aF1.0
aF1.0
aF1.0
aF1.0
aF1.0
aF1.0
aF1.0
aF1.0
aF1.0
aF1.0
aF1.0
aF1.0
aF1.0
aF1.0
aF1.0
aF1.0
aF1.0
aF1.0
aF1.0
aF1.0
aF1.0
aF1.0
aF1.0
aF1.0
aF1.0
aF1.0
aF1.0
aF1.0
aF1.0
aF1.0
aF1.0
assa.