(lp0
(dp1
S'iterationMax'
p2
I50
sS'CPU_Time'
p3
ccopy_reg
_reconstructor
p4
(cpsutil._pslinux
scputimes
p5
c__builtin__
tuple
p6
(F13570097.64
F848.21
F797511.76
F237062537.41
F21774.92
F0.0
F1569.58
F0.0
F0.0
F0.0
tp7
tp8
Rp9
sS'itemsCounts'
p10
I10
sS'memory_usage'
p11
I174579712
sS'generatedDataNumber'
p12
I100
sS'typeSelectionMode'
p13
S'AS'
p14
sS'simHeight'
p15
I10
sS'mcts_mode'
p16
S'UCTH'
p17
sS'endTime'
p18
F1547570997.612805
sS'reuseTree'
p19
S'False'
p20
sS'beginTime'
p21
F1547570926.681598
sS'PF_add_threshold'
p22
F0.9
sS'PF_weight'
p23
F1.2
sS'timeSteps'
p24
I37
sS'agentsCounts'
p25
I2
sS'simWidth'
p26
I10
sS'estimationMode'
p27
S'MIN'
p28
sS'maxDepth'
p29
I50
sa(dp30
I0
(dp31
S'l2TypeProbHistory'
p32
(lp33
F0.25
aF0.5
aF0.5
aF0.5
aF0.5
aF0.5
aF0.5
aF0.5
aF0.5
aF0.5
aF0.4297520661157025
aF0.4297520661157025
aF0.0077890952666267235
aF0.0077890952666267235
aF0.42975206611570255
aF0.42975206611570255
aF0.986366330764671
aF0.4297520661157026
aF0.42975206611570255
aF0.4297520661157026
aF0.29368160960112966
aF0.29368160960112966
aF0.29368160960112966
aF0.29368160960112966
aF0.9755597083287532
aF0.9997391036665908
aF0.9997391036665909
aF0.9997391036665909
aF0.9997391036665909
aF0.9997391036665909
aF0.9997391036665909
aF0.9997391036665909
aF0.9997391036665909
aF0.9997391036665909
aF0.9997391036665909
aF0.9997391036665909
aF0.9997391036665909
aF0.9997391036665909
asS'maxProbability'
p34
S'l2'
p35
sS'l1EstimationHistory'
p36
S'[[0.12,0.8,0.69],[0.12,0.8,0.69],[0.12,0.8,0.69],[0.12,0.8,0.69],[0.12,0.8,0.69],[0.12,0.8,0.69],[0.12,0.8,0.69],[0.12,0.8,0.69],[0.12,0.8,0.69],[0.12,0.8,0.69],[0.5086962202710417,0.6042138639542084,0.6113805755379316],[0.5086962202710417,0.6042138639542084,0.6113805755379316],[0.5086962202710417,0.6042138639542084,0.6113805755379316],[0.5086962202710417,0.6042138639542084,0.6113805755379316],[0.5086962202710417,0.6042138639542084,0.6113805755379316],[0.5086962202710417,0.6042138639542084,0.6113805755379316],[0.5086962202710417,0.6042138639542084,0.6113805755379316],[0.5086962202710417,0.6042138639542084,0.6113805755379316],[0.5086962202710417,0.6042138639542084,0.6113805755379316],[0.5086962202710417,0.6042138639542084,0.6113805755379316],[0.506862218629572,0.5900613715541586,0.6101958034872947],[0.506862218629572,0.5900613715541586,0.6101958034872947],[0.506862218629572,0.5900613715541586,0.6101958034872947],[0.506862218629572,0.5900613715541586,0.6101958034872947],[0.506862218629572,0.5900613715541586,0.6101958034872947],[0.506862218629572,0.5900613715541586,0.6101958034872947],[0.506862218629572,0.5900613715541586,0.6101958034872947],[0.506862218629572,0.5900613715541586,0.6101958034872947],[0.506862218629572,0.5900613715541586,0.6101958034872947],[0.506862218629572,0.5900613715541586,0.6101958034872947],[0.506862218629572,0.5900613715541586,0.6101958034872947],[0.506862218629572,0.5900613715541586,0.6101958034872947],[0.506862218629572,0.5900613715541586,0.6101958034872947],[0.506862218629572,0.5900613715541586,0.6101958034872947],[0.506862218629572,0.5900613715541586,0.6101958034872947],[0.506862218629572,0.5900613715541586,0.6101958034872947],[0.506862218629572,0.5900613715541586,0.6101958034872947],[0.506862218629572,0.5900613715541586,0.6101958034872947]]'
p37
sS'trueType'
p38
S'l2'
p39
sS'f1TypeProbHistory'
p40
(lp41
F0.25
aF0.0
aF0.0
aF0.0
aF0.0
aF0.0
aF0.0
aF0.0
aF0.0
aF0.0
aF0.0
aF0.0
aF0.0
aF0.0
aF0.0
aF0.0
aF0.0
aF0.0
aF0.0
aF0.0
aF0.0
aF0.0
aF0.0
aF0.0
aF0.0
aF0.0
aF0.0
aF0.0
aF0.0
aF0.0
aF0.0
aF0.0
aF0.0
aF0.0
aF0.0
aF0.0
aF0.0
aF0.0
asS'f2TypeProbHistory'
p42
(lp43
F0.25
aF0.0
aF0.0
aF0.0
aF0.0
aF0.0
aF0.0
aF0.0
aF0.0
aF0.0
aF0.0
aF0.0
aF0.0
aF0.0
aF0.0
aF0.0
aF0.0
aF0.0
aF0.0
aF0.0
aF0.0
aF0.0
aF0.0
aF0.0
aF0.0
aF0.0
aF0.0
aF0.0
aF0.0
aF0.0
aF0.0
aF0.0
aF0.0
aF0.0
aF0.0
aF0.0
aF0.0
aF0.0
asS'l2EstimationHistory'
p44
S'[[0.15,0.2,0.68],[0.15,0.2,0.68],[0.15,0.2,0.68],[0.15,0.2,0.68],[0.15,0.2,0.68],[0.15,0.2,0.68],[0.15,0.2,0.68],[0.15,0.2,0.68],[0.15,0.2,0.68],[0.15,0.2,0.68],[0.6259163689716272,0.6596924205192954,0.695374359531429],[0.6259163689716272,0.6596924205192954,0.695374359531429],[0.6259163689716272,0.6596924205192954,0.695374359531429],[0.6259163689716272,0.6596924205192954,0.695374359531429],[0.6259163689716272,0.6596924205192954,0.695374359531429],[0.6259163689716272,0.6596924205192954,0.695374359531429],[0.6259163689716272,0.6596924205192954,0.695374359531429],[0.6259163689716272,0.6596924205192954,0.695374359531429],[0.6259163689716272,0.6596924205192954,0.695374359531429],[0.6259163689716272,0.6596924205192954,0.695374359531429],[0.6861307478787328,0.6615464993086659,0.6638791645461091],[0.6861307478787328,0.6615464993086659,0.6638791645461091],[0.6861307478787328,0.6615464993086659,0.6638791645461091],[0.6861307478787328,0.6615464993086659,0.6638791645461091],[0.6861307478787328,0.6615464993086659,0.6638791645461091],[0.6861307478787328,0.6615464993086659,0.6638791645461091],[0.6861307478787328,0.6615464993086659,0.6638791645461091],[0.6861307478787328,0.6615464993086659,0.6638791645461091],[0.6861307478787328,0.6615464993086659,0.6638791645461091],[0.6861307478787328,0.6615464993086659,0.6638791645461091],[0.6861307478787328,0.6615464993086659,0.6638791645461091],[0.6861307478787328,0.6615464993086659,0.6638791645461091],[0.6861307478787328,0.6615464993086659,0.6638791645461091],[0.6861307478787328,0.6615464993086659,0.6638791645461091],[0.6861307478787328,0.6615464993086659,0.6638791645461091],[0.6861307478787328,0.6615464993086659,0.6638791645461091],[0.6861307478787328,0.6615464993086659,0.6638791645461091],[0.6861307478787328,0.6615464993086659,0.6638791645461091]]'
p45
sS'f1EstimationHistory'
p46
S'[[0.18,0.11,0.42]]'
p47
sS'trueParameters'
p48
(lp49
F0.693
aF0.986
aF0.461
asS'f2EstimationHistory'
p50
S'[[0.29,0.74,0.47]]'
p51
sS'l1TypeProbHistory'
p52
(lp53
F0.25
aF0.5
aF0.5
aF0.5
aF0.5
aF0.5
aF0.5
aF0.5
aF0.5
aF0.5
aF0.5702479338842975
aF0.5702479338842975
aF0.9922109047333733
aF0.9922109047333733
aF0.5702479338842975
aF0.5702479338842974
aF0.013633669235328981
aF0.5702479338842975
aF0.5702479338842974
aF0.5702479338842974
aF0.7063183903988703
aF0.7063183903988703
aF0.7063183903988703
aF0.7063183903988703
aF0.024440291671246926
aF0.00026089633340908576
aF0.0002608963334090858
aF0.0002608963334090858
aF0.0002608963334090858
aF0.0002608963334090858
aF0.00026089633340908587
aF0.00026089633340908587
aF0.0002608963334090859
aF0.000260896333409086
aF0.00026089633340908603
aF0.00026089633340908603
aF0.00026089633340908603
aF0.00026089633340908603
assI1
(dp54
g32
(lp55
F0.25
aF0.5
aF0.8275862068965517
aF0.8275862068965517
aF0.8275862068965517
aF0.8275862068965517
aF0.8275862068965517
aF0.8275862068965517
aF0.8275862068965517
aF0.8275862068965517
aF0.8275862068965517
aF0.8275862068965517
aF0.8275862068965517
aF0.8275862068965517
aF0.8275862068965517
aF0.8275862068965517
aF0.8275862068965517
aF0.8275862068965517
aF0.8275862068965517
aF0.8275862068965517
aF0.8275862068965517
aF0.8275862068965517
aF0.19354838709677416
aF0.5353159851301115
aF0.8468512619456015
aF0.21659563800451231
aF0.013635502809166077
aF0.0006907225725578475
aF0.0033067888681647555
aF0.00016586048573574214
aF8.294331203499258e-06
aF4.1471982800739254e-07
aF2.0735999570018297e-08
aF2.0735999570018294e-08
aF2.0735999570018297e-08
aF2.0735999570018297e-08
aF2.0735999570018297e-08
aF2.0735999570018297e-08
asg34
S'l1'
p56
sg36
S'[[0.72,0.47,0.21],[0.72,0.47,0.21],[0.72,0.47,0.21],[0.72,0.47,0.21],[0.72,0.47,0.21],[0.72,0.47,0.21],[0.72,0.47,0.21],[0.72,0.47,0.21],[0.72,0.47,0.21],[0.72,0.47,0.21],[0.72,0.47,0.21],[0.72,0.47,0.21],[0.72,0.47,0.21],[0.72,0.47,0.21],[0.72,0.47,0.21],[0.72,0.47,0.21],[0.72,0.47,0.21],[0.72,0.47,0.21],[0.72,0.47,0.21],[0.72,0.47,0.21],[0.72,0.47,0.21],[0.72,0.47,0.21],[0.72,0.47,0.21],[0.72,0.47,0.21],[0.72,0.47,0.21],[0.72,0.47,0.21],[0.72,0.47,0.21],[0.72,0.47,0.21],[0.72,0.47,0.21],[0.72,0.47,0.21],[0.72,0.47,0.21],[0.72,0.47,0.21],[0.72,0.47,0.21],[0.72,0.47,0.21],[0.72,0.47,0.21],[0.72,0.47,0.21],[0.72,0.47,0.21],[0.72,0.47,0.21]]'
p57
sg38
S'l1'
p58
sg40
(lp59
F0.25
aF0.0
aF0.0
aF0.0
aF0.0
aF0.0
aF0.0
aF0.0
aF0.0
aF0.0
aF0.0
aF0.0
aF0.0
aF0.0
aF0.0
aF0.0
aF0.0
aF0.0
aF0.0
aF0.0
aF0.0
aF0.0
aF0.0
aF0.0
aF0.0
aF0.0
aF0.0
aF0.0
aF0.0
aF0.0
aF0.0
aF0.0
aF0.0
aF0.0
aF0.0
aF0.0
aF0.0
aF0.0
asg42
(lp60
F0.25
aF0.0
aF0.0
aF0.0
aF0.0
aF0.0
aF0.0
aF0.0
aF0.0
aF0.0
aF0.0
aF0.0
aF0.0
aF0.0
aF0.0
aF0.0
aF0.0
aF0.0
aF0.0
aF0.0
aF0.0
aF0.0
aF0.0
aF0.0
aF0.0
aF0.0
aF0.0
aF0.0
aF0.0
aF0.0
aF0.0
aF0.0
aF0.0
aF0.0
aF0.0
aF0.0
aF0.0
aF0.0
asg44
S'[[0.3,0.43,0.86],[0.3,0.43,0.86],[0.3,0.43,0.86],[0.3,0.43,0.86],[0.3,0.43,0.86],[0.3,0.43,0.86],[0.3,0.43,0.86],[0.3,0.43,0.86],[0.3,0.43,0.86],[0.3,0.43,0.86],[0.3,0.43,0.86],[0.3,0.43,0.86],[0.3,0.43,0.86],[0.3,0.43,0.86],[0.3,0.43,0.86],[0.3,0.43,0.86],[0.3,0.43,0.86],[0.3,0.43,0.86],[0.3,0.43,0.86],[0.3,0.43,0.86],[0.3,0.43,0.86],[0.3,0.43,0.86],[0.3,0.43,0.86],[0.3,0.43,0.86],[0.3,0.43,0.86],[0.3,0.43,0.86],[0.3,0.43,0.86],[0.3,0.43,0.86],[0.3,0.43,0.86],[0.3,0.43,0.86],[0.3,0.43,0.86],[0.3,0.43,0.86],[0.3,0.43,0.86],[0.3,0.43,0.86],[0.3,0.43,0.86],[0.3,0.43,0.86],[0.3,0.43,0.86],[0.3,0.43,0.86]]'
p61
sg46
S'[[0.38,0.7,0.92]]'
p62
sg48
(lp63
F0.568
aF0.915
aF0.981
asg50
S'[[0.2,0.53,0.41]]'
p64
sg52
(lp65
F0.25
aF0.5
aF0.1724137931034483
aF0.1724137931034483
aF0.1724137931034483
aF0.1724137931034483
aF0.1724137931034483
aF0.1724137931034483
aF0.1724137931034483
aF0.1724137931034483
aF0.1724137931034483
aF0.1724137931034483
aF0.1724137931034483
aF0.1724137931034483
aF0.1724137931034483
aF0.1724137931034483
aF0.1724137931034483
aF0.1724137931034483
aF0.1724137931034483
aF0.1724137931034483
aF0.1724137931034483
aF0.17241379310344832
aF0.8064516129032259
aF0.46468401486988864
aF0.1531487380543985
aF0.7834043619954877
aF0.9863644971908339
aF0.9993092774274421
aF0.9966932111318353
aF0.9998341395142643
aF0.9999917056687965
aF0.999999585280172
aF0.9999999792640005
aF0.9999999792640003
aF0.9999999792640004
aF0.9999999792640004
aF0.9999999792640004
aF0.9999999792640004
assa.