(lp0
(dp1
S'iterationMax'
p2
I50
sS'CPU_Time'
p3
ccopy_reg
_reconstructor
p4
(cpsutil._pslinux
scputimes
p5
c__builtin__
tuple
p6
(F13630156.04
F1411.57
F570170.24
F221585818.08
F6880.2
F0.0
F1791.49
F0.0
F0.0
F0.0
tp7
tp8
Rp9
sS'itemsCounts'
p10
I15
sS'memory_usage'
p11
I446435328
sS'generatedDataNumber'
p12
I100
sS'typeSelectionMode'
p13
S'AS'
p14
sS'simHeight'
p15
I15
sS'mcts_mode'
p16
S'UCTH'
p17
sS'endTime'
p18
F1545587564.090678
sS'reuseTree'
p19
S'False'
p20
sS'beginTime'
p21
F1545586855.152021
sS'PF_add_threshold'
p22
F0.9
sS'PF_weight'
p23
F1.2
sS'timeSteps'
p24
I149
sS'agentsCounts'
p25
I7
sS'simWidth'
p26
I15
sS'estimationMode'
p27
S'ABU'
p28
sS'maxDepth'
p29
I50
sa(dp30
I0
(dp31
S'l2TypeProbHistory'
p32
(lp33
F0.25
aF0.010309278350515465
aF0.00010849517196484758
aF1.1302793937633445e-06
aF1.1302793937633447e-06
aF1.1302793937633447e-06
aF1.1302793937633447e-06
aF1.1773756854048405e-08
aF1.1773756854048407e-08
aF1.1773756854048407e-08
aF1.1773756854048407e-08
aF1.1773756854048407e-08
aF1.1773756854048407e-08
aF1.1773756854048407e-08
aF1.1773756854048407e-08
aF1.1773756854048407e-08
aF1.1773756854048405e-08
aF1.1773756854048405e-08
aF1.1773756854048405e-08
aF1.1773756854048407e-08
aF1.1773756854048407e-08
aF1.1773756854048407e-08
aF1.1773756854048407e-08
aF1.130279393763345e-06
aF1.130279393763345e-06
aF1.130279393763345e-06
aF1.130279393763345e-06
aF1.1302793937633447e-06
aF1.130279393763345e-06
aF1.130279393763345e-06
aF1.1302793937633447e-06
aF1.1302793937633447e-06
aF1.1302793937633445e-06
aF1.1302793937633445e-06
aF1.1302793937633443e-06
aF1.1302793937633445e-06
aF1.1302793937633445e-06
aF1.1302793937633445e-06
aF0.00010849517196484756
aF0.00010849517196484756
aF0.00010849517196484755
aF1.1302793937633443e-06
aF1.1302793937633445e-06
aF1.1302793937633445e-06
aF1.1302793937633445e-06
aF1.1302793937633445e-06
aF1.1302793937633445e-06
aF1.1302793937633445e-06
aF1.1302793937633445e-06
aF1.1302793937633445e-06
aF1.1302793937633445e-06
aF1.1302793937633445e-06
aF1.1302793937633445e-06
aF1.1302793937633443e-06
aF1.1302793937633445e-06
aF1.1302793937633443e-06
aF1.1302793937633445e-06
aF1.1302793937633445e-06
aF1.1302793937633445e-06
aF1.1302793937633445e-06
aF1.1302793937633443e-06
aF1.1302793937633445e-06
aF1.1302793937633443e-06
aF1.1302793937633445e-06
aF1.1302793937633445e-06
aF1.1302793937633445e-06
aF1.1302793937633445e-06
aF1.1302793937633445e-06
aF1.1302793937633445e-06
aF1.1302793937633445e-06
aF1.1302793937633443e-06
aF1.1302793937633445e-06
aF1.1302793937633445e-06
aF1.1302793937633445e-06
aF1.1302793937633445e-06
aF1.1302793937633445e-06
aF1.1302793937633443e-06
aF1.1302793937633445e-06
aF1.1302793937633445e-06
aF1.1302793937633445e-06
aF1.1302793937633443e-06
aF1.1302793937633445e-06
aF1.1302793937633445e-06
aF1.1302793937633445e-06
aF1.1302793937633445e-06
aF1.1302793937633443e-06
aF1.1302793937633445e-06
aF1.1302793937633445e-06
aF1.1302793937633445e-06
aF1.1302793937633443e-06
aF1.1302793937633445e-06
aF1.1302793937633445e-06
aF1.1302793937633445e-06
aF1.1302793937633443e-06
aF1.1302793937633445e-06
aF1.1302793937633445e-06
aF1.1302793937633443e-06
aF0.00010849517196484756
aF0.00010849517196484758
aF0.00010849517196484758
aF0.00010849517196484756
aF1.1302793937633443e-06
aF2.2605102423719084e-05
aF4.70948061775576e-06
aF4.70948061775576e-06
aF4.70948061775576e-06
aF4.709480617755759e-06
aF4.709480617755758e-06
aF4.709480617755757e-06
aF4.709480617755757e-06
aF4.709480617755757e-06
aF4.709480617755757e-06
aF4.709480617755757e-06
aF4.709480617755757e-06
aF4.709480617755757e-06
aF4.709480617755757e-06
aF4.709480617755757e-06
aF4.709480617755757e-06
aF4.709480617755758e-06
aF4.709480617755757e-06
aF4.709480617755757e-06
aF4.709480617755757e-06
aF4.709480617755757e-06
aF4.709480617755757e-06
aF4.709480617755757e-06
aF4.709480617755757e-06
aF4.709480617755758e-06
aF4.709480617755757e-06
aF4.709480617755758e-06
aF4.709480617755758e-06
aF4.709480617755757e-06
aF4.709480617755758e-06
aF4.709480617755759e-06
aF4.709480617755758e-06
aF4.709480617755757e-06
aF4.709480617755757e-06
aF4.709480617755757e-06
aF4.709480617755757e-06
aF4.709480617755758e-06
aF2.3547508440486658e-07
aF2.3547508440486658e-07
aF1.1773756854048398e-08
aF2.3547508440486655e-07
aF2.354750844048666e-07
aF2.354750844048666e-07
aF2.354750844048666e-07
aF2.354750844048666e-07
aF2.3547508440486655e-07
aF2.354750844048666e-07
aF2.354750844048666e-07
asS'maxProbability'
p34
S'l1'
p35
sS'l1EstimationHistory'
p36
S'[[0.78,0.75,0.92],[0.49735899673015666,0.6291569172404545,0.4997673792463071],[0.7717725660795555,0.6958032524893343,0.7379586201385002],[0.7465683131560792,0.8550306659288653,0.8169121750423232],[0.7165214669395724,0.852144984943819,0.7876616309014003],[0.8056634384079938,0.8256043894436675,0.784082255258151],[0.7207421379669079,0.8822070431126849,0.7336280719797933],[0.6703088066542521,0.7544451111883348,0.9047145445619614],[0.7239332783664587,0.8660585652360788,0.8629043124583395],[0.6912540411794399,0.7958693108999012,0.7739200947676432],[0.7848642230120282,0.8180551652597993,0.7421758390916214],[0.8407927761369764,0.7886844424719779,0.8314468254054755],[0.782322774329199,0.8486301096902767,0.7976308253313725],[0.7680193028988664,0.8865317908329462,0.8287348213215454],[0.718694439349445,0.7396226683162083,0.8067415054968785],[0.7386811951746812,0.8424757238478238,0.8347729956284906],[0.7079831927624076,0.713016209257938,0.7752998159314821],[0.8045323086155152,0.8533431550741403,0.8339656399794444],[0.7195818485252254,0.803527338939633,0.7979932754256887],[0.6978311187605054,0.848324799637234,0.8064715769193596],[0.854417053441803,0.8109637631698631,0.8285222791670476],[0.8314134465130552,0.8137627782150088,0.8633241832946389],[0.7091150231238311,0.7419892578764755,0.8860155076039791],[0.8709555805271221,0.8567939948540024,0.8451910431251969],[0.8117492433162298,0.7553693885898886,0.8402810454973707],[0.6580176600408562,0.8762192586364866,0.9020974333675152],[0.7580393367667596,0.7971233104367863,0.7547961786740279],[0.7107481466035525,0.7727707630484171,0.8102414594869666],[0.6072060537328057,0.7932264857005162,0.833522709866618],[0.8661184180966612,0.9047269874141236,0.8105621904161573],[0.8429841717015902,0.7415970273546464,0.6975991113728861],[0.8077403823552972,0.8484136805260556,0.7864126455220253],[0.6891458206039178,0.6608203491785977,0.7887300521387497],[0.7639653710937436,0.7533578573825059,0.8630624147182463],[0.795126028739387,0.9154457532852186,0.842855717870482],[0.7599807722485405,0.7990393585674732,0.6598360739062749],[0.8118157488676406,0.8711943144819069,0.841139277979767],[0.7488867635471077,0.9224083237862553,0.8713262591004032],[0.7377722880583971,0.7555209210041268,0.7662698125493533],[0.7528030420838083,0.8049785671114401,0.8760958015035346],[0.7809313199788586,0.8224354823014075,0.8220747873045712],[0.7335967999744342,0.740060404769881,0.8434771718213796],[0.8059562874455306,0.7175701299672925,0.8491371657125821],[0.8873513209672448,0.6393088721282603,0.8916644896627425],[0.6876518716981819,0.8753866513689752,0.834207409446116],[0.8431159514622071,0.8139806593088759,0.8674050732028966],[0.8235308958822841,0.8537375321215697,0.8054226505364344],[0.7711492808176724,0.8622058038042439,0.7825473761506221],[0.7267181022282938,0.7988431209571821,0.7851387869038767],[0.8524235948325124,0.7381914807048483,0.7668211539884111],[0.7904210637408564,0.8752404211042218,0.7923507146545029],[0.8563639624526347,0.7320050520387581,0.8608728517021683],[0.8062413292163135,0.7452116023978327,0.8214101031639883],[0.7998328776632596,0.8355111862847922,0.8144699881126736],[0.8191286596632693,0.7706135444301886,0.7501545533564383],[0.7605423608629127,0.8772550865323769,0.7784712244114336],[0.7987230970219106,0.7098334950196867,0.7755780538093312],[0.787718424287564,0.8321399967583654,0.8335965759688945],[0.6796492063779325,0.7742408866696506,0.767616984410195],[0.835074843627669,0.856087264894701,0.7602516017802385],[0.8424108085980014,0.8594294043330825,0.7736558346956218],[0.7736827895254331,0.7650616117161798,0.764086108216738],[0.8294595299703207,0.7908703784311224,0.7642121240525137],[0.7412106646308396,0.8500741434534052,0.8219211500031978],[0.8173549673475892,0.7107978443634747,0.8316710604478532],[0.813971945986658,0.8388899893446776,0.7699075201859433],[0.7716792870743421,0.6533901447487284,0.769826018140463],[0.7773451369374961,0.8107378542955243,0.8287957071122586],[0.9210715958289983,0.8566338722681861,0.8250534310851524],[0.8544924628242446,0.8315079484445238,0.7795987312326987],[0.8307013371515055,0.7330568769387151,0.6831280111667681],[0.750539561414211,0.8428593737141051,0.7612631232877961],[0.8435909256395476,0.8539072366147631,0.9182604508499945],[0.8612899034883181,0.7735832141247323,0.880138288055446],[0.879164379611364,0.7700705530143583,0.7615291091680401],[0.7685464888471323,0.7418302232394838,0.8234826596006084],[0.8237895082303386,0.7425102881728345,0.8121372583490197],[0.7737618475903039,0.6843967343010767,0.8048699672935454],[0.7195607343335393,0.838840547034807,0.814432366664876],[0.8475081292203898,0.695762080327388,0.8694066558761431],[0.7002822912146884,0.8262625154047948,0.7217826868622994],[0.838204699399695,0.7409918214786858,0.7405247296565364],[0.7465496920923574,0.7250746590484375,0.8020377182084275],[0.8095512299008112,0.8194950884728003,0.8566668109337939],[0.7873915800909838,0.810866852389456,0.7673389853801844],[0.8052531058314247,0.7788121574689049,0.8293287363800452],[0.7633964890045154,0.7618796964776878,0.7821533609963656],[0.7096667967142833,0.7491749150209468,0.828536872065994],[0.8162352978161529,0.7054579952038325,0.741260844826173],[0.7516068563141852,0.7415504415907688,0.8218529971120342],[0.8367389354905862,0.8076311578673383,0.7930695008172021],[0.803428075896127,0.7811914566924042,0.7616645091280685],[0.8269742666413038,0.8941381288544022,0.8271956736960006],[0.8746765379789994,0.7637180883840418,0.8395524933697128],[0.7693380809148118,0.8155271361822919,0.8852768572221347],[0.6622895152075721,0.7799716706550972,0.8140172935940477],[0.7006109290898547,0.8018423758604515,0.8237481201211454],[0.8335852751135263,0.8506906496362653,0.7972839097607114],[0.8217286957025584,0.6483092717101968,0.800795893224976],[0.671900120929881,0.7670990718741456,0.8173302727055203],[0.815437032064863,0.8670276173258598,0.8330054909201486],[0.8519606530456743,0.8201533377356777,0.7715486026093658],[0.8327808422790184,0.8517003432952066,0.7661370317979036],[0.7046256035724843,0.8568789761043162,0.8012833877845397],[0.8803653150651389,0.7321946753179135,0.8073568012840193],[0.8048098150368267,0.8141338389641943,0.7994985629954303],[0.872941881781316,0.7632579750918811,0.9052110001489515],[0.7970153956209383,0.7638935064173896,0.8011359747250728],[0.8695338161537883,0.8176134919086973,0.7509828468810544],[0.7083423987579582,0.7437768562491922,0.7438152494827356],[0.7482678507204048,0.8390441186373094,0.9026109676370562],[0.7634211147569184,0.7425733068498507,0.8402291814194227],[0.7831992350887848,0.7978872837514867,0.7243296538273495],[0.7881923332312815,0.8406434944205132,0.7970178798876214],[0.7960773824856757,0.8163041949629048,0.8250068252421396],[0.8243853583883517,0.8815004936166293,0.8520555994927905],[0.7658632637679111,0.7760906134342239,0.8444376581611601],[0.8891029879468387,0.871613656125187,0.8171165434280354],[0.7786176712519439,0.8933544112319117,0.732894641940505],[0.6966094344233094,0.8899673708518374,0.8084082565411215],[0.8317879403507611,0.7512869694378039,0.9040808222857984],[0.7952347143530364,0.8050748399888598,0.7393212986029949],[0.7458383628393255,0.7898687849535966,0.8915402361352406],[0.8042912609483122,0.8197530400896842,0.7601491308483019],[0.8555433678038067,0.9008276680578884,0.7336539800827423],[0.760147748200081,0.8823532262068019,0.7915102473921978],[0.867094530305463,0.8711713501856059,0.8218811652668127],[0.7134796537025573,0.8201614950005581,0.7523708208258506],[0.8389922574528482,0.7588074747251949,0.7497781927908711],[0.839277593269051,0.8131578409293757,0.7685620534402856],[0.8222688446416105,0.8136285693719281,0.751601876732084],[0.7613879953217555,0.8204148322545946,0.8166627536407833],[0.8156195584198184,0.7958557822674086,0.7560532454178365],[0.8388764615084652,0.8113996904941267,0.8542260059674138],[0.711245940967473,0.810810522209486,0.8522897992653723],[0.7981481557521766,0.8271700036354884,0.688800346553669],[0.7200263074986666,0.8109774588596362,0.8625339828023403],[0.8508744372490187,0.7339845485530434,0.6578336645306507],[0.7916297819133351,0.8351040923997953,0.8282691248850004],[0.726287883249665,0.6889848098944491,0.8209490899758778],[0.8513879175100281,0.8301255036504636,0.8423706630281111],[0.7938046947941481,0.7673639372826097,0.8227559229999258],[0.8548587154183099,0.880878986138741,0.7837072407863828],[0.9059512486463511,0.8486653354550133,0.8053947138897299],[0.6891618412322549,0.7558523712441436,0.7234681294946371],[0.7292529959520027,0.8263274628191286,0.8279505018198645],[0.8244748860850903,0.8823916310306543,0.8367845754277319],[0.7969601410293595,0.8357654325322503,0.8229285520673116],[0.7678632622867367,0.9002519449814379,0.7209921469093752],[0.8056511075312127,0.8244677053204779,0.7822421903121723]]'
p37
sS'trueType'
p38
S'f2'
p39
sS'f1TypeProbHistory'
p40
(lp41
F0.25
aF0.0
aF0.0
aF0.0
aF0.0
aF0.0
aF0.0
aF0.0
aF0.0
aF0.0
aF0.0
aF0.0
aF0.0
aF0.0
aF0.0
aF0.0
aF0.0
aF0.0
aF0.0
aF0.0
aF0.0
aF0.0
aF0.0
aF0.0
aF0.0
aF0.0
aF0.0
aF0.0
aF0.0
aF0.0
aF0.0
aF0.0
aF0.0
aF0.0
aF0.0
aF0.0
aF0.0
aF0.0
aF0.0
aF0.0
aF0.0
aF0.0
aF0.0
aF0.0
aF0.0
aF0.0
aF0.0
aF0.0
aF0.0
aF0.0
aF0.0
aF0.0
aF0.0
aF0.0
aF0.0
aF0.0
aF0.0
aF0.0
aF0.0
aF0.0
aF0.0
aF0.0
aF0.0
aF0.0
aF0.0
aF0.0
aF0.0
aF0.0
aF0.0
aF0.0
aF0.0
aF0.0
aF0.0
aF0.0
aF0.0
aF0.0
aF0.0
aF0.0
aF0.0
aF0.0
aF0.0
aF0.0
aF0.0
aF0.0
aF0.0
aF0.0
aF0.0
aF0.0
aF0.0
aF0.0
aF0.0
aF0.0
aF0.0
aF0.0
aF0.0
aF0.0
aF0.0
aF0.0
aF0.0
aF0.0
aF0.0
aF0.0
aF0.0
aF0.0
aF0.0
aF0.0
aF0.0
aF0.0
aF0.0
aF0.0
aF0.0
aF0.0
aF0.0
aF0.0
aF0.0
aF0.0
aF0.0
aF0.0
aF0.0
aF0.0
aF0.0
aF0.0
aF0.0
aF0.0
aF0.0
aF0.0
aF0.0
aF0.0
aF0.0
aF0.0
aF0.0
aF0.0
aF0.0
aF0.0
aF0.0
aF0.0
aF0.0
aF0.0
aF0.0
aF0.0
aF0.0
aF0.0
aF0.0
aF0.0
aF0.0
aF0.0
aF0.0
aF0.0
aF0.0
aF0.0
asS'f2TypeProbHistory'
p42
(lp43
F0.25
aF0.0
aF0.0
aF0.0
aF0.0
aF0.0
aF0.0
aF0.0
aF0.0
aF0.0
aF0.0
aF0.0
aF0.0
aF0.0
aF0.0
aF0.0
aF0.0
aF0.0
aF0.0
aF0.0
aF0.0
aF0.0
aF0.0
aF0.0
aF0.0
aF0.0
aF0.0
aF0.0
aF0.0
aF0.0
aF0.0
aF0.0
aF0.0
aF0.0
aF0.0
aF0.0
aF0.0
aF0.0
aF0.0
aF0.0
aF0.0
aF0.0
aF0.0
aF0.0
aF0.0
aF0.0
aF0.0
aF0.0
aF0.0
aF0.0
aF0.0
aF0.0
aF0.0
aF0.0
aF0.0
aF0.0
aF0.0
aF0.0
aF0.0
aF0.0
aF0.0
aF0.0
aF0.0
aF0.0
aF0.0
aF0.0
aF0.0
aF0.0
aF0.0
aF0.0
aF0.0
aF0.0
aF0.0
aF0.0
aF0.0
aF0.0
aF0.0
aF0.0
aF0.0
aF0.0
aF0.0
aF0.0
aF0.0
aF0.0
aF0.0
aF0.0
aF0.0
aF0.0
aF0.0
aF0.0
aF0.0
aF0.0
aF0.0
aF0.0
aF0.0
aF0.0
aF0.0
aF0.0
aF0.0
aF0.0
aF0.0
aF0.0
aF0.0
aF0.0
aF0.0
aF0.0
aF0.0
aF0.0
aF0.0
aF0.0
aF0.0
aF0.0
aF0.0
aF0.0
aF0.0
aF0.0
aF0.0
aF0.0
aF0.0
aF0.0
aF0.0
aF0.0
aF0.0
aF0.0
aF0.0
aF0.0
aF0.0
aF0.0
aF0.0
aF0.0
aF0.0
aF0.0
aF0.0
aF0.0
aF0.0
aF0.0
aF0.0
aF0.0
aF0.0
aF0.0
aF0.0
aF0.0
aF0.0
aF0.0
aF0.0
aF0.0
aF0.0
aF0.0
aF0.0
aF0.0
asS'l2EstimationHistory'
p44
S'[[0.07,0.79,0.72],[0.6857998610784841,0.7396528655181009,0.7263134732822352],[0.6621648657841386,0.751715367326266,0.837498537233825],[0.7561966463389037,0.7593545994445631,0.6306547579144477],[0.7824932869583212,0.8197349581258615,0.8062397857731171],[0.6426116575205987,0.7032584160270718,0.7864053360289709],[0.7663758808599407,0.8330546838389351,0.8600320607750822],[0.7785631923077431,0.8030108045804318,0.8583458829261543],[0.8275616690057482,0.7951399170582915,0.8950863530085262],[0.8449808004351672,0.7357412165399528,0.7311428825730024],[0.7641713737067823,0.7567614290286673,0.7684110942640431],[0.793020909840177,0.8197538553672803,0.7094194145588388],[0.7620864202780997,0.793480489917935,0.7636031469315913],[0.6686982757171259,0.7832977578820206,0.6638910427621709],[0.8625345181114892,0.885098843174909,0.8422728235334505],[0.8348092435457684,0.7513325188507645,0.8259385794875097],[0.6932046155467153,0.7471262369025672,0.8187424865629447],[0.8169992653937825,0.7359384480071567,0.825062911402647],[0.7137539981275494,0.8076191830860069,0.7047423805266154],[0.7418380944279908,0.8397218152110497,0.8573169257777667],[0.8425199319751991,0.7984598099735152,0.7633554057112881],[0.7889310632590534,0.9180123523500487,0.8449634109347457],[0.7607072675296018,0.864104533657142,0.7582967925722495],[0.7728151686496225,0.7914676899150868,0.8539508561043874],[0.7848695151929292,0.8129185246130792,0.8219627014092786],[0.8073562692612196,0.8413886025535391,0.7587007689527794],[0.8302204750485856,0.8672758173300645,0.8499415195199973],[0.8546333280935743,0.8155931625598617,0.8369719096631737],[0.8236260713798986,0.6319917894342713,0.8592970314784644],[0.8251378044801511,0.7464434173382626,0.8920849647519169],[0.8432075841836655,0.8574830057108993,0.8464788858048451],[0.8616666259502395,0.8414047063073369,0.8222110372062621],[0.7786667000442122,0.7445809340537654,0.753603927407729],[0.9212137367487971,0.797096471934151,0.6776030800591507],[0.7822068213873468,0.8074350518957963,0.6940811125951053],[0.6809859996361769,0.8293435305179655,0.7660956880267935],[0.8218663028701532,0.7660567133166227,0.840234809529471],[0.8419446927765136,0.8510765553389124,0.8272398538663694],[0.8417891527424523,0.7809646376109056,0.8076338759857675],[0.7735018935868412,0.8167708626085597,0.7744380635936138],[0.7149257718727019,0.7510153130832224,0.9012016551790378],[0.743211299018568,0.7695921380098144,0.6907782708015278],[0.8033330360684804,0.8575043323338857,0.7232889332810187],[0.7958028939648509,0.901911131631892,0.8195923462901324],[0.8053932227156727,0.7547926411915131,0.7137885654469431],[0.7441698536928605,0.7393391698695307,0.7451628639274656],[0.6932998232646465,0.7332365520208735,0.8914699285914068],[0.737704132529913,0.8446172032007047,0.8437403175209186],[0.722664117177409,0.6327647514717939,0.8270144889816716],[0.7629968886216799,0.7267980068783093,0.7691362686391138],[0.7488530384201827,0.7764706153373009,0.5916598099223489],[0.743459431237002,0.779203626629005,0.7480233772433265],[0.7361460418297942,0.7989399783980501,0.7263019975947371],[0.7445662805723531,0.8565184745185611,0.8129671447697877],[0.6732892385191416,0.7461259227764934,0.8809623753438025],[0.8234236908238473,0.8246096878460081,0.8656591191450579],[0.7639930997485299,0.6715278079506285,0.843282439644307],[0.7812269243243236,0.7704927204494345,0.8133190149543706],[0.792976879045379,0.8256736573419878,0.8033806460628371],[0.7353083975125256,0.8661771390880981,0.8115008201313983],[0.7014593128377276,0.8978025949550581,0.7119516506683902],[0.807685333273815,0.7855189782205463,0.6842248272132881],[0.840158272227964,0.8049145369847739,0.6349332635121832],[0.7696999595423866,0.8155212609787034,0.8461758987459678],[0.7622643964790978,0.7558683675302638,0.8014867422307518],[0.502625370320936,0.7799231273824039,0.8772795447009228],[0.8155916369294193,0.8019863952185691,0.8596983574048338],[0.862981382571809,0.8927672055434316,0.7267793647663561],[0.8462433619838607,0.771837095402136,0.8195857889114494],[0.8423285801065268,0.8430884454838148,0.848615230074865],[0.7615247794232014,0.7061369529219905,0.7872651208422881],[0.8009206554971435,0.8226929595785244,0.8474784946903899],[0.8056241910168491,0.7269744612376281,0.7358938635194502],[0.7114562225675627,0.8274731494022705,0.7972912328900723],[0.7728526176091948,0.8221447572907674,0.7291386070599274],[0.809682114608757,0.8626139296290747,0.5733137358226598],[0.8463286593728006,0.862328984046924,0.8933363810290051],[0.8276241493213503,0.7217393779106754,0.7644217226042923],[0.7820773143421859,0.6526839381264442,0.6579469935522096],[0.7525478723741966,0.890862462837133,0.8502774377940063],[0.8898856109854549,0.8052647744104231,0.9119664413542974],[0.8620499632570298,0.7138640068390004,0.6863126372236861],[0.8626851688783166,0.8187840856282115,0.7929164988341447],[0.7607074077485726,0.8072307171533474,0.7815595645267256],[0.7530141426011844,0.7410485114304458,0.7496258110952052],[0.7326179762759492,0.6602782718718962,0.8918286162249581],[0.7933522297936935,0.7787454465028782,0.827875691097201],[0.8768896703802269,0.8199686854149739,0.8632632224902256],[0.7384959954710583,0.8855425008854138,0.8943497924963264],[0.8946816369211493,0.7746439713882107,0.7258337384552889],[0.8257526466932521,0.7921600034367517,0.8690259981469332],[0.8128401114970918,0.7524792695473597,0.8605474423071682],[0.8433613007695341,0.8965795994720278,0.8736202872011554],[0.814649115742785,0.697868154272303,0.8622017261785144],[0.6607065178549931,0.843192524973529,0.7887564339695979],[0.7795931820630095,0.6424508291764199,0.760300277918799],[0.7885433030381446,0.7829148127323566,0.734270162065503],[0.6655533611962718,0.8333789529141965,0.7999553479699073],[0.7733094935550217,0.7633878633337378,0.8771192689713276],[0.7972032793831046,0.8275399733538741,0.8150986240757732],[0.8774033440661398,0.794521258882682,0.7606847815306061],[0.7973834358105003,0.841898652588203,0.6344151591030996],[0.7565919175375261,0.872294927956449,0.8371059608891672],[0.849248545494701,0.7908575836823015,0.8516874438294957],[0.8863321402279878,0.8227031216352007,0.8551269796798737],[0.6981168880325168,0.8488433219297249,0.858907179672525],[0.7088407161890051,0.6810416907630268,0.9028940729755887],[0.8734980991975345,0.8006103705050348,0.7151822545246074],[0.8472596965160959,0.8823602187776307,0.7726146406160066],[0.8233121843191228,0.8006930527302085,0.8460219016370664],[0.8191891702313274,0.8421496462449503,0.8030226694110205],[0.8737892497944001,0.8558161056172464,0.9131109755020015],[0.8547648169477846,0.6946054815464807,0.7730720380028965],[0.8098009914065984,0.8330450942585961,0.772773438721818],[0.7552219560890973,0.5560178274663787,0.7184818402253595],[0.792039658535549,0.8746114099348918,0.786506120268875],[0.805626134491102,0.7376378997645802,0.8362936416972018],[0.7426626009677104,0.84715894095075,0.748234297137788],[0.8290507961067448,0.6809621390390386,0.8490711248212411],[0.7674625941790625,0.8938656745695249,0.8480338889203629],[0.8682029734563198,0.6921497513844077,0.8986522142111598],[0.6726590617665116,0.7158481307928299,0.8441687920647534],[0.8102679182720658,0.8047096854769716,0.8298701098889898],[0.7571324340503557,0.7631972521018119,0.8119263933277512],[0.7804006484605434,0.7207418783048196,0.775608237449997],[0.7673402507086643,0.6794196199452764,0.8519444660438683],[0.6820804992360703,0.7542475836290814,0.7400230806482765],[0.7864846175969487,0.7372226974703602,0.8210077105363986],[0.8535924902906812,0.7670143859577859,0.7434856095240514],[0.7901422986815372,0.8194114143305569,0.6595042899680944],[0.7247915644642525,0.8685502437692335,0.5877537404814771],[0.810668874080639,0.762609323670115,0.8060678573552125],[0.5621845927692753,0.7812431481357698,0.7881361164727911],[0.7976900824734594,0.7969481330638637,0.753069793994525],[0.8450301903155257,0.8117734767565246,0.8996220258684741],[0.7643961739082135,0.7893030549824499,0.8207096944559196],[0.8117399928863896,0.7668284022675349,0.7839008924572314],[0.8194906336458404,0.812906185994494,0.7877411871580098],[0.774085266166805,0.7393832126074804,0.8223125632519895],[0.7702509665230013,0.8751266373917446,0.7571395976490216],[0.8087669784745763,0.854050361809592,0.6551733388996581],[0.8226227171249898,0.9012408399478531,0.766438867746945],[0.8119114479991063,0.7578456664134133,0.7432302559445876],[0.6321021303585335,0.8331219376232047,0.7939452269746379],[0.6877381844624635,0.8232635262887982,0.8517728645465013],[0.7166202481738425,0.8913250601352203,0.7641340177024347],[0.8845921415356705,0.8673613101305238,0.6874317021550188],[0.8291768663206746,0.8181011831440387,0.7057881301691529],[0.7245933167587857,0.9006599177294292,0.8599584852034011],[0.7883863617206159,0.8121795326005989,0.7488072653318048]]'
p45
sS'f1EstimationHistory'
p46
S'[[0.83,0.43,0.69]]'
p47
sS'trueParameters'
p48
(lp49
F0.151
aF0.8
aF0.887
asS'f2EstimationHistory'
p50
S'[[0.7,0.86,0.59]]'
p51
sS'l1TypeProbHistory'
p52
(lp53
F0.25
aF0.9896907216494846
aF0.9998915048280351
aF0.9999988697206061
aF0.9999988697206063
aF0.9999988697206064
aF0.9999988697206064
aF0.999999988226243
aF0.9999999882262431
aF0.9999999882262433
aF0.9999999882262431
aF0.9999999882262433
aF0.9999999882262431
aF0.9999999882262433
aF0.9999999882262433
aF0.9999999882262433
aF0.999999988226243
aF0.999999988226243
aF0.999999988226243
aF0.9999999882262431
aF0.9999999882262433
aF0.9999999882262433
aF0.9999999882262433
aF0.9999988697206064
aF0.9999988697206064
aF0.9999988697206064
aF0.9999988697206064
aF0.9999988697206061
aF0.9999988697206063
aF0.9999988697206064
aF0.9999988697206061
aF0.9999988697206063
aF0.9999988697206061
aF0.9999988697206063
aF0.9999988697206061
aF0.9999988697206063
aF0.9999988697206064
aF0.9999988697206064
aF0.9998915048280352
aF0.9998915048280352
aF0.9998915048280351
aF0.9999988697206061
aF0.9999988697206063
aF0.9999988697206064
aF0.9999988697206064
aF0.9999988697206064
aF0.9999988697206064
aF0.9999988697206064
aF0.9999988697206064
aF0.9999988697206064
aF0.9999988697206064
aF0.9999988697206064
aF0.9999988697206064
aF0.9999988697206061
aF0.9999988697206063
aF0.9999988697206061
aF0.9999988697206063
aF0.9999988697206064
aF0.9999988697206064
aF0.9999988697206064
aF0.9999988697206061
aF0.9999988697206063
aF0.9999988697206061
aF0.9999988697206063
aF0.9999988697206064
aF0.9999988697206064
aF0.9999988697206064
aF0.9999988697206064
aF0.9999988697206064
aF0.9999988697206064
aF0.9999988697206061
aF0.9999988697206063
aF0.9999988697206064
aF0.9999988697206064
aF0.9999988697206064
aF0.9999988697206064
aF0.9999988697206061
aF0.9999988697206063
aF0.9999988697206064
aF0.9999988697206064
aF0.9999988697206061
aF0.9999988697206063
aF0.9999988697206064
aF0.9999988697206064
aF0.9999988697206064
aF0.9999988697206061
aF0.9999988697206063
aF0.9999988697206064
aF0.9999988697206064
aF0.9999988697206061
aF0.9999988697206063
aF0.9999988697206064
aF0.9999988697206064
aF0.9999988697206061
aF0.9999988697206063
aF0.9999988697206064
aF0.9999988697206061
aF0.9998915048280351
aF0.9998915048280352
aF0.9998915048280352
aF0.9998915048280351
aF0.9999988697206061
aF0.9999773948975763
aF0.9999952905193823
aF0.9999952905193823
aF0.9999952905193823
aF0.9999952905193823
aF0.9999952905193823
aF0.9999952905193823
aF0.9999952905193823
aF0.9999952905193823
aF0.9999952905193823
aF0.9999952905193823
aF0.9999952905193823
aF0.9999952905193823
aF0.9999952905193823
aF0.9999952905193823
aF0.9999952905193823
aF0.9999952905193823
aF0.9999952905193823
aF0.9999952905193823
aF0.9999952905193823
aF0.9999952905193823
aF0.9999952905193823
aF0.9999952905193823
aF0.9999952905193823
aF0.9999952905193823
aF0.9999952905193823
aF0.9999952905193823
aF0.9999952905193823
aF0.9999952905193823
aF0.9999952905193823
aF0.9999952905193823
aF0.9999952905193823
aF0.9999952905193823
aF0.9999952905193823
aF0.9999952905193823
aF0.9999952905193823
aF0.9999952905193823
aF0.9999997645249156
aF0.9999997645249156
aF0.9999999882262433
aF0.9999997645249155
aF0.9999997645249156
aF0.9999997645249157
aF0.9999997645249157
aF0.9999997645249157
aF0.9999997645249155
aF0.9999997645249156
aF0.9999997645249157
assI1
(dp54
g32
(lp55
F0.25
aF0.5
aF0.010309278350515465
aF0.010309278350515465
aF0.010309278350515465
aF0.5
aF0.5
aF0.5
aF0.5
aF0.9896907216494846
aF0.9896907216494846
aF0.5
aF0.5
aF0.010309278350515465
aF0.00010849517196484758
aF1.1302793937633445e-06
aF1.1773756854048403e-08
aF1.2264330199193523e-10
aF1.2264330199193523e-10
aF1.2775343959043744e-12
aF1.2775343959043744e-12
aF1.226433019919352e-10
aF1.226433019919352e-10
aF1.226433019919352e-10
aF1.226433019919352e-10
aF1.226433019919352e-10
aF1.1773756854048402e-08
aF1.1773756854048402e-08
aF1.1302793937633443e-06
aF1.1302793937633443e-06
aF1.1302793937633443e-06
aF1.130279393763344e-06
aF1.1302793937633443e-06
aF0.00010849517196484755
aF0.00010849517196484756
aF0.00010849517196484756
aF0.00010849517196484756
aF0.00010849517196484756
aF0.00010849517196484756
aF0.010309278350515462
aF0.49999999999999994
aF0.5
aF0.010309278350515464
aF0.010309278350515464
aF0.010309278350515464
aF0.4999999999999999
aF0.5
aF0.49999999999999994
aF0.5
aF0.49999999999999994
aF0.5
aF0.49999999999999994
aF0.9896907216494845
aF0.9896907216494846
aF0.9896907216494846
aF0.9896907216494846
aF0.9896907216494846
aF0.9998915048280351
aF0.9998915048280352
aF0.9998915048280352
aF0.9998915048280352
aF0.9998915048280352
aF0.9998915048280352
aF0.9998915048280352
aF0.9998915048280352
aF0.9998915048280352
aF0.9998915048280352
aF0.9999988697206061
aF0.9999999882262431
aF0.9999999998773567
aF0.9999999999987225
aF0.9999999999987226
aF0.9999999999987226
aF0.9999999999987226
aF0.9999999999999867
aF0.9999999999999867
aF1.0
aF0.9999999999999999
aF0.9999999999999999
aF0.9999999999999999
aF0.9999999999999999
aF0.9999999999999999
aF0.9999999999999999
aF1.0
aF1.0
aF1.0
aF1.0
aF1.0
aF1.0
aF1.0
aF1.0
aF1.0
aF1.0
aF1.0
aF1.0
aF1.0
aF1.0
aF1.0
aF1.0
aF1.0
aF1.0
aF1.0
aF1.0
aF1.0
aF1.0
aF1.0
aF1.0
aF1.0
aF1.0
aF1.0
aF1.0
aF1.0
aF1.0
aF1.0
aF1.0
aF1.0
aF1.0
aF1.0
aF1.0
aF1.0
aF1.0
aF1.0
aF1.0
aF1.0
aF1.0
aF1.0
aF1.0
aF1.0
aF1.0
aF1.0
aF1.0
aF1.0
aF1.0
aF1.0
aF1.0
aF1.0
aF1.0
aF1.0
aF1.0
aF1.0
aF1.0
aF1.0
aF1.0
aF1.0
aF1.0
aF1.0
aF1.0
aF1.0
aF1.0
aF1.0
asg34
S'l2'
p56
sg36
S'[[0.43,0.48,0.93],[0.5373563608769754,0.537946106467734,0.4923476334524465],[0.6084977618467008,0.6799281477183609,0.5325761062299501],[0.4010816011134316,0.46250091771313706,0.5931739950363475],[0.35649979196184406,0.4346292012854723,0.5442277803454332],[0.6036386412364847,0.4898937356308621,0.4696938637913613],[0.42549161527300383,0.5773204765909364,0.47627171274903246],[0.4967302594767332,0.49388826334164665,0.5459365108236531],[0.3507801935412398,0.36193908456461765,0.49199237785604427],[0.3596284746163593,0.5965764074258516,0.4780877575321393],[0.4527683193566198,0.6034035323109087,0.4661892490309092],[0.5156128020602475,0.5596031263681746,0.5473117589664029],[0.5739442257537075,0.5360667717066867,0.4225249103532347],[0.4530894332347407,0.625063889550482,0.46725194907381934],[0.4929536710714288,0.3919858618383899,0.5754620523218813],[0.4573286351732932,0.5338164280077098,0.6235008600659967],[0.6007151164683285,0.5832644097799082,0.5191083322612056],[0.5409124862501893,0.5377193084602152,0.5699110426302042],[0.4951583151020541,0.49894446679052296,0.5437164509232756],[0.6030972597050198,0.5286283061398642,0.46016434884442503],[0.38638683674333113,0.4714528108488759,0.5749619752884454],[0.4714387517825255,0.49938311589102924,0.51556192518233],[0.39932378877128466,0.4382443544567101,0.4634075967315144],[0.48023808341354624,0.5462128152697218,0.47426581024780523],[0.43472547169273235,0.5143305028270431,0.6006229622303907],[0.5488314080071404,0.5632513677274094,0.49944649082595854],[0.5324150364514696,0.5598911091152846,0.5885480471243614],[0.4737834625579084,0.5481630288989061,0.48619499268786603],[0.5028480196544656,0.4481970139557626,0.47919623342805834],[0.4064447762164997,0.4720896860853589,0.5385734633292735],[0.4328872598845191,0.6195183093791832,0.6060428523131154],[0.4761052207065693,0.5487942083283515,0.5680504770975996],[0.5007902318981328,0.5525466708141439,0.5350932423698442],[0.4655710252931673,0.6337476867635281,0.5280059603551135],[0.3901609348986845,0.5347429202486078,0.49265400920115143],[0.49471539089130817,0.44823258543156463,0.5712914693874902],[0.7284538953426194,0.5398655070054947,0.5687515948252901],[0.40542759664751726,0.6180026335178366,0.5936616784234477],[0.49048122049446363,0.5083183931829243,0.5030715465243507],[0.4268236716216407,0.48875572916597304,0.4173360679826664],[0.4029501233467651,0.5752352904191722,0.5481892505515619],[0.4495129570186549,0.5544637940568323,0.4855193700797928],[0.5470521443629832,0.7020724971824113,0.4817960522432766],[0.5656710511139801,0.4911742448637685,0.5275313233412479],[0.43610593595891645,0.5265480877572611,0.4317709873503395],[0.41498531002074757,0.6767155773661597,0.45815063931604544],[0.48083698370997796,0.4227909199589779,0.5976742252202427],[0.57223903961516,0.5959244749888403,0.6668769341100212],[0.5495081205024099,0.5697313781084141,0.46013893197111366],[0.5071303374285362,0.6222641462498675,0.4481339672643497],[0.43783681021742116,0.597413869882556,0.5441975037373802],[0.5098777703862789,0.4816782549577615,0.6161287302370477],[0.5181338079159653,0.5295448736911293,0.6988452557593807],[0.508104460902993,0.448343489220851,0.6144632813216855],[0.5699054741801585,0.44042592552648613,0.5889459462640747],[0.45810401065553413,0.545158953038406,0.6199040586038427],[0.493391598946961,0.645672089608873,0.4739042158312013],[0.5775598586057659,0.5549887083738171,0.5994677391986912],[0.3141044761586597,0.5433786110734944,0.5149534129068892],[0.6562045488001184,0.5348472517742598,0.5098707306330099],[0.49160509913126466,0.5901643286797279,0.420501173054496],[0.5278681977394859,0.4700058355064921,0.3798541692851647],[0.5251706116408796,0.5883206384826752,0.6026265887502745],[0.5337036702679718,0.4814572071790778,0.4858115594236493],[0.5482414940744929,0.4608956934735664,0.3957670838424229],[0.4175306134328215,0.48912494801446493,0.6143801733576837],[0.4147090081655551,0.6858329559086715,0.6787507834337012],[0.5942800537415541,0.5260292594429502,0.5276578777395835],[0.6794139050683838,0.5498956765434777,0.4696288053840565],[0.555477651186276,0.5926742242949994,0.49688517437309543],[0.47381592281352597,0.53244894053715,0.5576780423672346],[0.5467169262380331,0.49010312685528357,0.5852883559699898],[0.5941324196935609,0.5847480817193326,0.483719534964792],[0.49492009733718934,0.6040225990095146,0.5888066553416493],[0.488104388369217,0.5573595691157316,0.613478858915012],[0.5365216147820423,0.5517967555255427,0.5375537101384568],[0.42376397067316285,0.5243123559260882,0.6412646408813889],[0.4222052687621474,0.45595462608380843,0.5122913613351706],[0.4704135878411416,0.5141199296730938,0.5778521470575663],[0.4761873221490922,0.5427596552112025,0.5941478864439876],[0.5265862299028747,0.5109505132204062,0.5279462685503565],[0.4437830388135794,0.39312140811951596,0.5895701707493657],[0.5292951488642169,0.5488279270102651,0.5086951362482247],[0.4708091156331816,0.5300417742747502,0.5865161746435313],[0.4523332096394914,0.5527356118602675,0.5651697462838305],[0.4155646258064496,0.5501641471187353,0.5132165959850092],[0.5006576015166322,0.4935680080875347,0.5867969477257079],[0.5478539092508171,0.5929271313418196,0.4998305118631741],[0.5167100732898204,0.561587441204858,0.6351204817018228],[0.476386403754044,0.5649913558829412,0.58437003822404],[0.491550630050919,0.5443580975390867,0.49708204672097384],[0.5434100466059381,0.4947102212153226,0.44380962340206703],[0.4520107507013228,0.4486651128272204,0.4760061469507228],[0.4595089355604706,0.4892939591981339,0.484907980125114],[0.46179252717703534,0.4469992624227153,0.6243500198788945],[0.4822236092573293,0.4249096225094183,0.47255957518844616],[0.4492126619852657,0.5612521577814445,0.5677548868951385],[0.5053526221170578,0.6489686180662866,0.6298940376519501],[0.4078355015790659,0.5254770770512893,0.49787484519300945],[0.4231711850749925,0.5493128092647288,0.5341966749267679],[0.47433061104417773,0.5694117811699646,0.5023447816709254],[0.42488971906321404,0.5219583704245807,0.4322786009496232],[0.5918621633215336,0.5948928332332144,0.5658928642689396],[0.555598286815723,0.5032033669445937,0.490346938661461],[0.38759225179383944,0.4996318719069711,0.475829229658698],[0.3360948706775705,0.5275398216398371,0.5025333671330932],[0.47361208352094264,0.5708895450314424,0.4517354096803922],[0.5501721748031795,0.5144703138626447,0.573621827812939],[0.38053915449094766,0.5303502118967658,0.5168517879179408],[0.49100609429153474,0.6052419709434507,0.5690144081751065],[0.5015064787998196,0.4464988017536612,0.5196520155803903],[0.4638944888272457,0.5800292385921187,0.3538031791053224],[0.4305609509506837,0.5959758785650253,0.49746799490195714],[0.38812298832685305,0.5633731471549368,0.5619154913984157],[0.3472795466082771,0.5470688635874179,0.46835887953824484],[0.3095253210081607,0.44306942709067754,0.4678144941015495],[0.4584771381558026,0.6687621300015034,0.5153220045518798],[0.46050030236280437,0.4623171249832909,0.5744809652429052],[0.4426500394867632,0.5673172744203616,0.509944200342809],[0.45261459520891245,0.5406180074991358,0.5216731413909934],[0.4043189446574985,0.6012982174055705,0.5207184299575955],[0.539299592518523,0.5960601896948956,0.5002125846968892],[0.5309714681736375,0.47827563999530803,0.5366182267912778],[0.40523942623891324,0.585941293727376,0.5666661534764312],[0.542748446867612,0.535948679326922,0.5732287178251841],[0.5719788012255649,0.4735981958148871,0.4669642415475722],[0.4497985891026642,0.5067464523668781,0.5446280366975065],[0.4637147234568185,0.5242558511025432,0.40315631982166755],[0.396829366064541,0.5466983944584987,0.5567156966661762],[0.373380807705292,0.4843302788089384,0.4575734950522386],[0.46169165368240817,0.5394183525363764,0.5320242357013292],[0.39169712392983447,0.5053838598495057,0.48116942663394147],[0.47079580597917775,0.5122524416846009,0.5418953792542551],[0.5290917355581063,0.594320292457472,0.6688655611103265],[0.4618923019477538,0.5039431049601996,0.46616008658885655],[0.4699715110694159,0.5660873307166786,0.5006236928680619],[0.43728193860290476,0.5774728784754626,0.5266415667678939],[0.35054537614880454,0.44939356246686424,0.5282286562372618],[0.4465378914088376,0.5195571879147961,0.4865473475861929],[0.6042815426733852,0.5070129370601506,0.5098992352653346],[0.6220284839974491,0.5053526946869551,0.46382431433989735],[0.41747845022864577,0.6335515893726849,0.5372838649258095],[0.5419472519605957,0.4806511258664412,0.4465018062353817],[0.4395986310176639,0.5033985720575826,0.6031281666107164],[0.6364720273862643,0.6023846161144139,0.6113042390372969],[0.4844087480891456,0.5426613423149214,0.6240102221490934],[0.582667651638374,0.5717981102913002,0.4778152069685473],[0.43630470587754633,0.5718309214684192,0.6064946560198254],[0.4869208076236948,0.6426916516929717,0.5392009699876211],[0.3669995591134284,0.5342449246111609,0.5580281899173855]]'
p57
sg38
g56
sg40
(lp58
F0.25
aF0.0
aF0.0
aF0.0
aF0.0
aF0.0
aF0.0
aF0.0
aF0.0
aF0.0
aF0.0
aF0.0
aF0.0
aF0.0
aF0.0
aF0.0
aF0.0
aF0.0
aF0.0
aF0.0
aF0.0
aF0.0
aF0.0
aF0.0
aF0.0
aF0.0
aF0.0
aF0.0
aF0.0
aF0.0
aF0.0
aF0.0
aF0.0
aF0.0
aF0.0
aF0.0
aF0.0
aF0.0
aF0.0
aF0.0
aF0.0
aF0.0
aF0.0
aF0.0
aF0.0
aF0.0
aF0.0
aF0.0
aF0.0
aF0.0
aF0.0
aF0.0
aF0.0
aF0.0
aF0.0
aF0.0
aF0.0
aF0.0
aF0.0
aF0.0
aF0.0
aF0.0
aF0.0
aF0.0
aF0.0
aF0.0
aF0.0
aF0.0
aF0.0
aF0.0
aF0.0
aF0.0
aF0.0
aF0.0
aF0.0
aF0.0
aF0.0
aF0.0
aF0.0
aF0.0
aF0.0
aF0.0
aF0.0
aF0.0
aF0.0
aF0.0
aF0.0
aF0.0
aF0.0
aF0.0
aF0.0
aF0.0
aF0.0
aF0.0
aF0.0
aF0.0
aF0.0
aF0.0
aF0.0
aF0.0
aF0.0
aF0.0
aF0.0
aF0.0
aF0.0
aF0.0
aF0.0
aF0.0
aF0.0
aF0.0
aF0.0
aF0.0
aF0.0
aF0.0
aF0.0
aF0.0
aF0.0
aF0.0
aF0.0
aF0.0
aF0.0
aF0.0
aF0.0
aF0.0
aF0.0
aF0.0
aF0.0
aF0.0
aF0.0
aF0.0
aF0.0
aF0.0
aF0.0
aF0.0
aF0.0
aF0.0
aF0.0
aF0.0
aF0.0
aF0.0
aF0.0
aF0.0
aF0.0
aF0.0
aF0.0
aF0.0
aF0.0
aF0.0
aF0.0
aF0.0
asg42
(lp59
F0.25
aF0.0
aF0.0
aF0.0
aF0.0
aF0.0
aF0.0
aF0.0
aF0.0
aF0.0
aF0.0
aF0.0
aF0.0
aF0.0
aF0.0
aF0.0
aF0.0
aF0.0
aF0.0
aF0.0
aF0.0
aF0.0
aF0.0
aF0.0
aF0.0
aF0.0
aF0.0
aF0.0
aF0.0
aF0.0
aF0.0
aF0.0
aF0.0
aF0.0
aF0.0
aF0.0
aF0.0
aF0.0
aF0.0
aF0.0
aF0.0
aF0.0
aF0.0
aF0.0
aF0.0
aF0.0
aF0.0
aF0.0
aF0.0
aF0.0
aF0.0
aF0.0
aF0.0
aF0.0
aF0.0
aF0.0
aF0.0
aF0.0
aF0.0
aF0.0
aF0.0
aF0.0
aF0.0
aF0.0
aF0.0
aF0.0
aF0.0
aF0.0
aF0.0
aF0.0
aF0.0
aF0.0
aF0.0
aF0.0
aF0.0
aF0.0
aF0.0
aF0.0
aF0.0
aF0.0
aF0.0
aF0.0
aF0.0
aF0.0
aF0.0
aF0.0
aF0.0
aF0.0
aF0.0
aF0.0
aF0.0
aF0.0
aF0.0
aF0.0
aF0.0
aF0.0
aF0.0
aF0.0
aF0.0
aF0.0
aF0.0
aF0.0
aF0.0
aF0.0
aF0.0
aF0.0
aF0.0
aF0.0
aF0.0
aF0.0
aF0.0
aF0.0
aF0.0
aF0.0
aF0.0
aF0.0
aF0.0
aF0.0
aF0.0
aF0.0
aF0.0
aF0.0
aF0.0
aF0.0
aF0.0
aF0.0
aF0.0
aF0.0
aF0.0
aF0.0
aF0.0
aF0.0
aF0.0
aF0.0
aF0.0
aF0.0
aF0.0
aF0.0
aF0.0
aF0.0
aF0.0
aF0.0
aF0.0
aF0.0
aF0.0
aF0.0
aF0.0
aF0.0
aF0.0
aF0.0
asg44
S'[[0.28,0.47,0.91],[0.6009334986636589,0.46092718426415863,0.6635534720628226],[0.6880784129716778,0.5005047682809284,0.48319027498238876],[0.4795402394329873,0.5755940221520284,0.5540718581621534],[0.5474827294281409,0.5630435218538873,0.5740418542010015],[0.4451609408462288,0.5983453027467227,0.5698583151925936],[0.5746073949027162,0.561398202558343,0.5226522079709965],[0.510477309579914,0.5347686268584488,0.6235329459653054],[0.43359215532787126,0.5064611502270397,0.45765069606913816],[0.5243735039484582,0.5104289311435735,0.6378130982736717],[0.5353921259981953,0.563735759067128,0.5739101138554172],[0.42477045683741477,0.44866781347986723,0.6114848701662094],[0.5930853513485939,0.534187814712718,0.6590648830418293],[0.5566430949979604,0.5783921755179896,0.5028568255379555],[0.4272046149707533,0.45491338761332045,0.4779340808833964],[0.4204542782776519,0.5592879443579012,0.59487970670352],[0.507406870796945,0.5806671012569463,0.5457799531185087],[0.5025351197272937,0.6856872099952045,0.5484725843234183],[0.5588340161738385,0.5662899170559603,0.5396804732126699],[0.49588720907863426,0.5051972007146208,0.6267079445775691],[0.4487311823437953,0.5889213344084384,0.6282887945678125],[0.5001727647059252,0.6618112661109505,0.5718872188852063],[0.5152725667482019,0.5611874051165702,0.6219915973670394],[0.5116221188209737,0.4755718655977243,0.70574845512565],[0.39591381295901884,0.6281805664400424,0.635894458290187],[0.5672971183455192,0.5228054643168741,0.6590187279182326],[0.6105366912897395,0.565852257983565,0.6137864269277207],[0.47881821571405203,0.5167150713459765,0.5564597640415087],[0.5923264966405528,0.7145171511999371,0.6286225917856767],[0.4468945094417184,0.5469890085233764,0.5521054060451522],[0.5676986177346938,0.6397361686960099,0.5720409769572392],[0.5306394705733555,0.45132148129251676,0.5745902548674483],[0.492981770148013,0.48657462623049286,0.586159864188228],[0.5653632140948844,0.5996809414291586,0.4864933859994445],[0.5827951045120722,0.5779249276497487,0.4959659487828992],[0.7367013027649483,0.5875550536349448,0.707242023121099],[0.46474493931761457,0.5522245918509622,0.5549250216899219],[0.5818723257072348,0.5561720957475748,0.5080107676820032],[0.5343687789638272,0.5856790530299162,0.566275325002869],[0.6241223578585795,0.5603988148849115,0.632372311914702],[0.6273862741595122,0.5085237767386903,0.5642566639092619],[0.4739552844822823,0.558473706461795,0.5214589945613153],[0.5081706049866106,0.48313531084014844,0.5274734962503473],[0.4615042076092354,0.5324609517000428,0.5554485975866922],[0.5221903888311001,0.5216172419645441,0.5756669366602777],[0.6015937407313221,0.537135010398516,0.4776691380220842],[0.5075251118835442,0.5925936201316994,0.6146787861621267],[0.5772213640896262,0.6247851134844569,0.512207828197782],[0.5423788602970739,0.5019157211362659,0.5275846867127235],[0.45749987803215264,0.6030686270278497,0.48106748086998063],[0.5126754825576137,0.5204500187254946,0.6546387651203621],[0.43777544739060914,0.5457010857927054,0.7391309787412575],[0.5095131659602385,0.674798693138191,0.6315045113940315],[0.5440471877249641,0.5722101711800052,0.5456443653885613],[0.5753661696703152,0.5794357286850926,0.5686427279563452],[0.47493271709285645,0.5267260769055906,0.6064369073717764],[0.5732068416109726,0.6796095773385715,0.5692038648126035],[0.5411062320509936,0.6891869183252716,0.6503982211220307],[0.5589745749197337,0.540452875026094,0.5828417680578739],[0.5049321519804073,0.6208373851299928,0.5168858527634743],[0.4546710942390776,0.5407148296237113,0.5931194398884337],[0.568613306741322,0.60909106255432,0.5988957690051145],[0.37851501282644523,0.6369997945052396,0.6241039801557975],[0.4690280072256011,0.5449071238604015,0.4970526082207029],[0.4062623470258216,0.6019939161819107,0.5526761210130471],[0.5222387282136876,0.5235033455842746,0.585642101120111],[0.5829704448665464,0.5223010424014884,0.6190064465258336],[0.6385610442210419,0.6433143031859524,0.5681072635806403],[0.6222345314407578,0.5323941188935302,0.5919621173000458],[0.6537374687752482,0.45449428683475296,0.5937770646719751],[0.6103471012242947,0.6024368865046605,0.4845902444389406],[0.48753521620543355,0.46232249348530735,0.5899972774186009],[0.4691008972614922,0.5441248871790587,0.5274359460154026],[0.4571395464526016,0.6325147349338225,0.5570009115975503],[0.5239579994934862,0.5620363707435688,0.6283002513946853],[0.5110333901166175,0.47954851286690736,0.5327308529907392],[0.622732094602818,0.5624188269202051,0.7656851316446315],[0.4942038661414701,0.4466672457187556,0.5565077315838721],[0.4727156339343449,0.5210576622443834,0.631175412431621],[0.4742285400420833,0.5570365564061521,0.46961615673720064],[0.6037531750704577,0.5330801703515375,0.6264244185245464],[0.6009012815108717,0.5475397378070348,0.592740151863825],[0.5213314533648853,0.6056904606141249,0.6701771866264569],[0.5870774205656369,0.5330977687483925,0.5111543001219389],[0.5966243745985989,0.632233689175796,0.5828657229617831],[0.4308628068506858,0.5268887062010262,0.572730681267412],[0.5597643108391067,0.6104374499815538,0.5132672664780309],[0.61057873870301,0.6086164647072788,0.6696534749107179],[0.4688289212907475,0.5205468458150853,0.5376201576305035],[0.5829092490168032,0.5230085984346513,0.5726833708223801],[0.6192740627985016,0.6079870020794909,0.5369638590082207],[0.498464273349302,0.5820649823183032,0.6104396861560755],[0.5798942665672808,0.7213539909224349,0.48889276946246696],[0.5030372761535757,0.6089785679895515,0.5915857675934765],[0.4637101273061336,0.4761640146555341,0.5745798671854672],[0.4333579537135487,0.5624215032137632,0.5295773185008954],[0.5016416758233133,0.5375092476321206,0.5726313372668426],[0.502476913531172,0.613588716796114,0.5848570215021942],[0.4988635566797436,0.4644694004242977,0.6566966753742093],[0.7293394509135885,0.5823889508935909,0.6416318305058876],[0.5365159349254457,0.49832872471271406,0.6196249916159091],[0.5999405282991754,0.6177699052557355,0.5703245856893095],[0.6385917662693564,0.5253112411584843,0.4610675881191308],[0.5382106978572794,0.6884260079518623,0.580465131871404],[0.4168362366269445,0.5433381429047116,0.5159661198564909],[0.47094087055071265,0.6235290245063989,0.5748958275592241],[0.5834953782147545,0.5839430213909795,0.4082990939545209],[0.561885696635233,0.4794340103991567,0.5634197200076254],[0.45276834197975,0.5304017643178933,0.49322707386049425],[0.4796392748014203,0.58522077359506,0.5390977236731243],[0.5344668148260167,0.5991311054057673,0.4367573291636617],[0.4053175851421427,0.6143182772294398,0.5625386103115483],[0.5393608600635282,0.5318658815285321,0.5281948164185226],[0.46168186102485037,0.4514440103912342,0.5474193127702429],[0.47105437101713965,0.4814407896872792,0.6302849051024338],[0.5110125569470935,0.5770152746157551,0.5530349422185674],[0.6492957108614403,0.5552763664338531,0.6181996171892629],[0.4022409830961083,0.447557709585897,0.6478222319204067],[0.44589004990320547,0.6974729699182667,0.5307870271565036],[0.576749725062585,0.4502025743076425,0.5790245040961493],[0.3665801407344215,0.49573330848013314,0.5903322658351348],[0.538504529330898,0.6823498394158174,0.6046065625351085],[0.5329890978342882,0.49334121912324874,0.7707599791114761],[0.48797741572608555,0.5610299896302395,0.5617935429114171],[0.5355723431450197,0.5363127597414105,0.5718753311477484],[0.555822584910815,0.6342296189741119,0.6341588327289468],[0.572017428393575,0.5238927391414439,0.5558888089614704],[0.44779406248141307,0.5504814849131922,0.6598484462703741],[0.5585438045387733,0.5356318054818171,0.5597640880455077],[0.42933292390258676,0.6292038224907427,0.5426645517518114],[0.5892496157599034,0.6210207805195029,0.5330759384497438],[0.5395459980433959,0.5614256461111304,0.6309416404080302],[0.5674191510764801,0.5352288393177422,0.6300026799759053],[0.5356664467717411,0.5508541096790259,0.49400831699129266],[0.6338161387691847,0.6762864875248757,0.5018126458379809],[0.5603422445615116,0.6137057808711083,0.5926507976153675],[0.45292666317436875,0.46871669697778173,0.595309248968022],[0.4530639808606403,0.5287021458938608,0.5796088934674817],[0.369300358158161,0.5514619999431398,0.6991313542724448],[0.4699288345990988,0.625351378715837,0.6078359420180478],[0.45646580381941215,0.584428222203098,0.6267138462174564],[0.510808228012315,0.6136078502212088,0.528499247574917],[0.4933737512027568,0.5412832707303046,0.5415556569974044],[0.510547810127701,0.5249879113078936,0.5145662831707248],[0.6115283318381082,0.5405715044465217,0.4825729425534083],[0.4262871394582525,0.532049869630361,0.5495882197422721],[0.4496451941204014,0.5817955312770984,0.6251376253068617],[0.5087201941885878,0.6866723557847549,0.565477592788007],[0.5544512411374255,0.6209591725804866,0.590798152117773],[0.4470168872847652,0.570190706028386,0.5971474753512269]]'
p60
sg46
S'[[0.81,0.27,0.46]]'
p61
sg48
(lp62
F0.151
aF0.8
aF0.887
asg50
S'[[0.05,0.45,0.19]]'
p63
sg52
(lp64
F0.25
aF0.5
aF0.9896907216494846
aF0.9896907216494846
aF0.9896907216494846
aF0.5
aF0.5
aF0.5
aF0.5
aF0.010309278350515465
aF0.010309278350515465
aF0.5
aF0.5
aF0.9896907216494846
aF0.9998915048280351
aF0.9999988697206061
aF0.9999999882262431
aF0.9999999998773567
aF0.9999999998773567
aF0.9999999999987225
aF0.9999999999987226
aF0.9999999998773567
aF0.9999999998773567
aF0.9999999998773567
aF0.9999999998773567
aF0.9999999998773567
aF0.9999999882262433
aF0.9999999882262433
aF0.9999988697206064
aF0.9999988697206064
aF0.9999988697206064
aF0.9999988697206061
aF0.9999988697206063
aF0.9998915048280352
aF0.9998915048280352
aF0.9998915048280352
aF0.9998915048280352
aF0.9998915048280352
aF0.9998915048280352
aF0.9896907216494845
aF0.5
aF0.5000000000000001
aF0.9896907216494846
aF0.9896907216494846
aF0.9896907216494846
aF0.5
aF0.5000000000000001
aF0.5
aF0.5000000000000001
aF0.5
aF0.5000000000000001
aF0.5
aF0.010309278350515465
aF0.010309278350515467
aF0.010309278350515467
aF0.010309278350515467
aF0.010309278350515467
aF0.00010849517196484759
aF0.00010849517196484762
aF0.00010849517196484762
aF0.00010849517196484762
aF0.00010849517196484762
aF0.00010849517196484762
aF0.00010849517196484762
aF0.00010849517196484762
aF0.00010849517196484762
aF0.00010849517196484762
aF1.1302793937633447e-06
aF1.1773756854048407e-08
aF1.2264330199193528e-10
aF1.277534395904375e-12
aF1.277534395904375e-12
aF1.277534395904375e-12
aF1.277534395904375e-12
aF1.3307649957354062e-14
aF1.330764995735406e-14
aF1.3862135372243999e-16
aF1.3862135372243996e-16
aF1.3862135372243996e-16
aF1.3862135372243996e-16
aF1.4439724346087497e-18
aF1.5041379527174477e-20
aF1.5668103674140081e-22
aF1.5668103674140084e-22
aF1.6320941327229255e-24
aF1.6320941327229255e-24
aF1.6320941327229255e-24
aF1.7000980549197142e-26
aF1.7000980549197142e-26
aF1.7000980549197142e-26
aF1.7709354738747025e-28
aF1.7709354738747027e-28
aF1.8447244519528153e-30
aF1.8447244519528153e-30
aF1.8447244519528153e-30
aF1.8447244519528153e-30
aF1.7709354738747027e-28
aF1.7709354738747027e-28
aF1.7709354738747027e-28
aF1.8447244519528153e-30
aF1.8447244519528153e-30
aF1.9215879707841825e-32
aF2.0016541362335235e-34
aF2.0850563919099203e-36
aF2.0850563919099203e-36
aF2.0850563919099203e-36
aF2.0850563919099203e-36
aF2.0850563919099203e-36
aF2.0850563919099203e-36
aF2.0850563919099203e-36
aF2.0850563919099203e-36
aF2.0850563919099203e-36
aF2.0850563919099203e-36
aF2.0850563919099203e-36
aF2.0850563919099203e-36
aF2.0850563919099203e-36
aF2.0850563919099203e-36
aF2.0850563919099203e-36
aF2.0850563919099203e-36
aF2.0850563919099203e-36
aF2.0016541362335235e-34
aF2.0016541362335235e-34
aF2.0016541362335235e-34
aF2.0016541362335235e-34
aF2.0016541362335235e-34
aF2.0016541362335235e-34
aF4.003308272467047e-33
aF4.003308272467048e-33
aF4.003308272467048e-33
aF4.003308272467048e-33
aF4.003308272467048e-33
aF4.003308272467048e-33
aF8.006616544934095e-32
aF8.006616544934095e-32
aF8.006616544934095e-32
aF8.006616544934095e-32
aF1.601323308986819e-30
aF3.2026466179736387e-29
aF6.405293235947278e-28
aF6.405293235947278e-28
aF6.405293235947279e-28
aF1.2810586471894559e-26
aF2.562117294378912e-25
aF2.562117294378912e-25
aF2.562117294378912e-25
aF2.562117294378912e-25
aF2.562117294378912e-25
aF2.562117294378912e-25
aF5.124234588757824e-24
aF1.0248469177515648e-22
assI2
(dp65
g32
(lp66
F0.25
aF0.5
aF0.5
aF0.5
aF0.5
aF0.9896907216494846
aF0.9896907216494846
aF0.9896907216494846
aF0.9896907216494846
aF0.9896907216494846
aF0.9896907216494846
aF0.5
aF0.9896907216494846
aF0.9896907216494846
aF0.9896907216494846
aF0.9896907216494846
aF0.9896907216494846
aF0.9896907216494846
aF0.9896907216494846
aF0.9896907216494846
aF0.9896907216494846
aF0.9998915048280351
aF0.9999988697206061
aF0.9999999882262431
aF0.9999999882262433
aF0.9999999998773568
aF0.9999999998773567
aF0.9999999998773567
aF0.9999999999987225
aF0.9999999999999868
aF0.9999999999999999
aF0.9999999999999999
aF0.9999999999999999
aF1.0
aF1.0
aF1.0
aF1.0
aF1.0
aF1.0
aF1.0
aF1.0
aF1.0
aF1.0
aF1.0
aF1.0
aF1.0
aF1.0
aF1.0
aF1.0
aF1.0
aF1.0
aF1.0
aF1.0
aF1.0
aF1.0
aF1.0
aF1.0
aF1.0
aF1.0
aF1.0
aF1.0
aF1.0
aF1.0
aF1.0
aF1.0
aF1.0
aF1.0
aF1.0
aF1.0
aF1.0
aF1.0
aF1.0
aF1.0
aF1.0
aF1.0
aF1.0
aF1.0
aF1.0
aF1.0
aF1.0
aF1.0
aF1.0
aF1.0
aF1.0
aF1.0
aF1.0
aF1.0
aF1.0
aF1.0
aF1.0
aF1.0
aF1.0
aF1.0
aF1.0
aF1.0
aF1.0
aF1.0
aF1.0
aF1.0
aF1.0
aF1.0
aF1.0
aF1.0
aF1.0
aF1.0
aF1.0
aF1.0
aF1.0
aF1.0
aF1.0
aF1.0
aF1.0
aF1.0
aF1.0
aF1.0
aF1.0
aF1.0
aF1.0
aF1.0
aF1.0
aF1.0
aF1.0
aF1.0
aF1.0
aF1.0
aF1.0
aF1.0
aF1.0
aF1.0
aF1.0
aF1.0
aF1.0
aF1.0
aF1.0
aF1.0
aF1.0
aF1.0
aF1.0
aF1.0
aF1.0
aF1.0
aF1.0
aF1.0
aF1.0
aF1.0
aF1.0
aF1.0
aF1.0
aF1.0
aF1.0
asg34
g56
sg36
S'[[0.96,0.11,0.27],[0.3782015380849652,0.6649020763204045,0.5775798181569883],[0.5661392125384748,0.6150879095646322,0.5018338428976344],[0.5432592578536104,0.7227890107786851,0.4558222801824262],[0.6406141110149324,0.537815265696383,0.7276098891440539],[0.5399542149208277,0.6084679930138179,0.6559188234043135],[0.6296834407915581,0.5664341946349177,0.6309352919353898],[0.48480095838624304,0.6014545313913369,0.5883176079700132],[0.5534522021130333,0.5455051010404921,0.5591454297666886],[0.49357823229373965,0.4904582827955325,0.5695027052278061],[0.4619216501886588,0.5601136316994356,0.6605543962497611],[0.5278187715679115,0.5878656165692676,0.5296877972416802],[0.5747755645935099,0.5113150922725427,0.552398745704573],[0.43313763668002264,0.7219924177529782,0.5423051029127226],[0.5494533077432502,0.4567775311140102,0.5325998186877783],[0.44399533219998455,0.4839350949061809,0.48753732923739773],[0.40144152650962794,0.5960752994542254,0.5853971063087824],[0.6094522390198245,0.7211771141459883,0.5699760190169211],[0.5606335877418313,0.4889733009191752,0.6793533911194808],[0.5932605597340241,0.48323440965122594,0.5229314267712377],[0.5380908079265301,0.5255514998227555,0.53088349182308],[0.5383118843585276,0.5849186347609161,0.6056341600498648],[0.5746292095601166,0.6103677777347883,0.6352407068323666],[0.44276686471683313,0.637799117287578,0.6378115182440647],[0.5421384970880403,0.6267996078511304,0.5274670968584586],[0.567329638571918,0.5003479808415479,0.5735568675935165],[0.505147040886548,0.488685093794125,0.6090565607667896],[0.401331002811481,0.6811599244252349,0.4469266803061929],[0.5235123038016405,0.5096788343375062,0.5255278253233439],[0.5183667020440708,0.5174942715469226,0.6239370229790672],[0.5382182165703782,0.47600955306810694,0.6201271867644783],[0.44178192704191704,0.552249284007025,0.4882960098580084],[0.5740317098252354,0.5320373158563572,0.5625667172666599],[0.598861526362384,0.6323505750676175,0.5504699440796078],[0.5561354364738138,0.5852602818786277,0.5662338175353182],[0.4908625910280455,0.7225438090597355,0.6940827375606462],[0.6038105033883294,0.5767142880554628,0.4156801786257428],[0.5196804867872332,0.5502325821307771,0.6853217233119103],[0.44710391088631507,0.4916979699459472,0.6020547746619894],[0.47393604410471085,0.5931797301707864,0.695144263959341],[0.5166343570560367,0.6578083102999435,0.5754945218955333],[0.7214989042493163,0.547462679221806,0.5280598209260879],[0.42145152035810546,0.5552282055053362,0.4896623267725717],[0.4917126425615912,0.6030621990300008,0.6196907065491859],[0.5305699425850594,0.5886072488771354,0.5232362097031815],[0.44115220855554976,0.5613223953583532,0.5606698296092377],[0.5649639715120423,0.494294059767679,0.6334847789200785],[0.499644101904546,0.658660477448217,0.6358214030351526],[0.5399445109212032,0.6098302481448996,0.5602850519677961],[0.5969386603873622,0.6182493878932391,0.7025549088388388],[0.4286758631698773,0.6582969099693806,0.5340187748894026],[0.6679305083599792,0.476027892307075,0.5556473267316544],[0.5484481052028248,0.7555547674929588,0.6110887769242155],[0.5097083388785746,0.609797503272951,0.528434492795881],[0.6436509824933174,0.5951769228037189,0.6137219927036227],[0.5588420509686737,0.627849231518494,0.5006038920700938],[0.4607860782983684,0.5830559715337869,0.440366388281337],[0.4873911880203721,0.552424663845245,0.5739305730862226],[0.573897388991179,0.4418161071282487,0.7057132270059076],[0.5816491194032546,0.5791611167716764,0.6190408668973555],[0.5934691410657031,0.5608190114740997,0.6669356350066623],[0.5052963447439904,0.576375034245458,0.6379106130952797],[0.5634217201322225,0.646111571893559,0.5472962333980456],[0.5150206872792255,0.5556493675871921,0.6340516008809891],[0.45698498911967284,0.48016481358918445,0.5556743342116383],[0.43748304500173063,0.5200682944449504,0.6231420944350089],[0.6551693741937699,0.6631670345031699,0.6045790965879235],[0.5253501697626979,0.5540673448682498,0.5684433048417501],[0.5833066080209717,0.5682090817029142,0.6187081227267937],[0.5432460509009391,0.5194909068574926,0.5761614856075472],[0.45267671501193635,0.5608126323966232,0.5155614628035461],[0.5038680974442904,0.6660066173889962,0.4643899183497484],[0.6014584209850996,0.48801673074085794,0.38388105929243127],[0.47460597730260307,0.5745035037406991,0.5966986628047624],[0.5167142915712521,0.6750372764882375,0.5739242892303331],[0.6854682736827835,0.6273425548588591,0.43091236596135013],[0.5748510552391,0.5138644077650922,0.48178631040065356],[0.5400843388477806,0.4370000353077407,0.4815768490011932],[0.5456675127142382,0.5973441152215979,0.5779362970379811],[0.5583832316833115,0.5859791103079719,0.5803575473182904],[0.5464851829227151,0.6283183023295795,0.5811785802088412],[0.5091566088720626,0.5000338536188893,0.5150506475232836],[0.4719186517348161,0.5801992776857369,0.5987317277864576],[0.3561686266960803,0.6326338993577247,0.5574864239999704],[0.5296202109225763,0.6312608119174603,0.6620056372992504],[0.5052937451824444,0.5732187357702363,0.6173976009768789],[0.5993189157175215,0.5084119413516675,0.5526325951679135],[0.4250517319297768,0.5713161182176159,0.6007643406193095],[0.48548362641397447,0.6030204787523936,0.5711126735592952],[0.6660384694416679,0.6530881276094742,0.5433045047479224],[0.5676059877947522,0.5006462006254548,0.5760973839982384],[0.5068347708708433,0.5961674491953833,0.6365991702927045],[0.48924689327735055,0.6928469375629782,0.45713188934510535],[0.5811155484106401,0.6133522836497246,0.5662758067152598],[0.4948502274634213,0.4634921223538127,0.5504052496863515],[0.5186786356696773,0.5284123000444705,0.563081675266098],[0.5453585477981977,0.5802152503874517,0.4526955468040487],[0.4526533964596637,0.6248081618958097,0.5568365945470622],[0.295193218889349,0.3851851964648875,0.6122528875098489],[0.5026392834418497,0.5429788014066886,0.6038677671033639],[0.5489804859210353,0.6804062594898138,0.6082269052628727],[0.5752177023374276,0.6287406346202126,0.7338764674638145],[0.4068508270399165,0.5323478099236152,0.5584339848066336],[0.4346973905581275,0.5922352193517989,0.509533733722453],[0.5691837172470835,0.5698010697930197,0.5667336894946768],[0.49936968318342767,0.6021981343467944,0.6254598870995882],[0.3709980716682705,0.6166094496248401,0.4692767583982387],[0.5099321266853059,0.48807266403086025,0.5888697732267495],[0.5341070032680454,0.6307333281010513,0.5789815750091883],[0.5670588032639795,0.5259132992255121,0.6600747650436911],[0.6218751620815657,0.4763374536666746,0.649692252826957],[0.40310410967189964,0.5615886742608904,0.6367984302189346],[0.5690699099012873,0.6235455937255219,0.5991733121715754],[0.4481863515769041,0.5864212870516601,0.532143475238174],[0.5076094407629854,0.46947169161460733,0.5712283111839052],[0.5467709140252996,0.6368393630510053,0.5958113685766506],[0.5362059488047769,0.5895634576737584,0.48157071771946425],[0.5697609238277204,0.5870071479387129,0.5148948401110813],[0.46375354609758307,0.6288973964572763,0.6264891148277779],[0.5404149073705123,0.5537401009609569,0.561027894824376],[0.5195886564610004,0.47411831627869905,0.5504291936606844],[0.4938983252471571,0.5443208606174086,0.621963860508859],[0.5164178022276802,0.49654809196360244,0.5553740981024724],[0.6459239503575522,0.6139689621521113,0.6465305612813157],[0.5118640838736335,0.6680961954269697,0.6069845101037565],[0.4345140804189064,0.5846193304820991,0.492882828437274],[0.6929238954235942,0.5911143941137132,0.6731980266246235],[0.3916569322242239,0.6222481812500866,0.5896479638380541],[0.6200531410300685,0.5666434797058846,0.6860181445425476],[0.5890856091182166,0.5407822785314859,0.6470792679623405],[0.46216266917932664,0.5138477176538585,0.6373463379933553],[0.5468742952594473,0.48606792952991806,0.7022916204754488],[0.6035801632417785,0.5401611577967946,0.5358820830545088],[0.4983289959392003,0.5472875074898356,0.5328531043420079],[0.516160068088168,0.5657089334371566,0.7353933954560785],[0.6305180521671472,0.5196007827046778,0.5892265761368063],[0.46747146923550853,0.5493868471651608,0.5878892766331212],[0.5132624795693925,0.6844353383399655,0.6898471383552547],[0.4564907163884058,0.5391100880536175,0.5745844766178407],[0.6474853286560955,0.4942223844645916,0.5306089318243824],[0.43464528918287043,0.5487944471431889,0.5501063456350274],[0.5162314208427303,0.5471345827319181,0.5201090348095568],[0.49384638830989935,0.4567845031396597,0.6041518169663407],[0.6597702215143674,0.5953396586499671,0.4929692086715064],[0.5710332358844308,0.6070153016296438,0.6096278108512609],[0.5146038632147183,0.5173242556328346,0.46038468921902753],[0.6418299314073638,0.4170822661361539,0.5876389997462932],[0.5348538760049102,0.6478776864467003,0.6345734462614869],[0.5121640712444356,0.6659419509672933,0.5834484325446098],[0.6220044869025491,0.5046356675758337,0.5295993908273589]]'
p67
sg38
g56
sg40
(lp68
F0.25
aF0.0
aF0.0
aF0.0
aF0.0
aF0.0
aF0.0
aF0.0
aF0.0
aF0.0
aF0.0
aF0.0
aF0.0
aF0.0
aF0.0
aF0.0
aF0.0
aF0.0
aF0.0
aF0.0
aF0.0
aF0.0
aF0.0
aF0.0
aF0.0
aF0.0
aF0.0
aF0.0
aF0.0
aF0.0
aF0.0
aF0.0
aF0.0
aF0.0
aF0.0
aF0.0
aF0.0
aF0.0
aF0.0
aF0.0
aF0.0
aF0.0
aF0.0
aF0.0
aF0.0
aF0.0
aF0.0
aF0.0
aF0.0
aF0.0
aF0.0
aF0.0
aF0.0
aF0.0
aF0.0
aF0.0
aF0.0
aF0.0
aF0.0
aF0.0
aF0.0
aF0.0
aF0.0
aF0.0
aF0.0
aF0.0
aF0.0
aF0.0
aF0.0
aF0.0
aF0.0
aF0.0
aF0.0
aF0.0
aF0.0
aF0.0
aF0.0
aF0.0
aF0.0
aF0.0
aF0.0
aF0.0
aF0.0
aF0.0
aF0.0
aF0.0
aF0.0
aF0.0
aF0.0
aF0.0
aF0.0
aF0.0
aF0.0
aF0.0
aF0.0
aF0.0
aF0.0
aF0.0
aF0.0
aF0.0
aF0.0
aF0.0
aF0.0
aF0.0
aF0.0
aF0.0
aF0.0
aF0.0
aF0.0
aF0.0
aF0.0
aF0.0
aF0.0
aF0.0
aF0.0
aF0.0
aF0.0
aF0.0
aF0.0
aF0.0
aF0.0
aF0.0
aF0.0
aF0.0
aF0.0
aF0.0
aF0.0
aF0.0
aF0.0
aF0.0
aF0.0
aF0.0
aF0.0
aF0.0
aF0.0
aF0.0
aF0.0
aF0.0
aF0.0
aF0.0
aF0.0
aF0.0
aF0.0
aF0.0
aF0.0
aF0.0
aF0.0
aF0.0
aF0.0
aF0.0
asg42
(lp69
F0.25
aF0.0
aF0.0
aF0.0
aF0.0
aF0.0
aF0.0
aF0.0
aF0.0
aF0.0
aF0.0
aF0.0
aF0.0
aF0.0
aF0.0
aF0.0
aF0.0
aF0.0
aF0.0
aF0.0
aF0.0
aF0.0
aF0.0
aF0.0
aF0.0
aF0.0
aF0.0
aF0.0
aF0.0
aF0.0
aF0.0
aF0.0
aF0.0
aF0.0
aF0.0
aF0.0
aF0.0
aF0.0
aF0.0
aF0.0
aF0.0
aF0.0
aF0.0
aF0.0
aF0.0
aF0.0
aF0.0
aF0.0
aF0.0
aF0.0
aF0.0
aF0.0
aF0.0
aF0.0
aF0.0
aF0.0
aF0.0
aF0.0
aF0.0
aF0.0
aF0.0
aF0.0
aF0.0
aF0.0
aF0.0
aF0.0
aF0.0
aF0.0
aF0.0
aF0.0
aF0.0
aF0.0
aF0.0
aF0.0
aF0.0
aF0.0
aF0.0
aF0.0
aF0.0
aF0.0
aF0.0
aF0.0
aF0.0
aF0.0
aF0.0
aF0.0
aF0.0
aF0.0
aF0.0
aF0.0
aF0.0
aF0.0
aF0.0
aF0.0
aF0.0
aF0.0
aF0.0
aF0.0
aF0.0
aF0.0
aF0.0
aF0.0
aF0.0
aF0.0
aF0.0
aF0.0
aF0.0
aF0.0
aF0.0
aF0.0
aF0.0
aF0.0
aF0.0
aF0.0
aF0.0
aF0.0
aF0.0
aF0.0
aF0.0
aF0.0
aF0.0
aF0.0
aF0.0
aF0.0
aF0.0
aF0.0
aF0.0
aF0.0
aF0.0
aF0.0
aF0.0
aF0.0
aF0.0
aF0.0
aF0.0
aF0.0
aF0.0
aF0.0
aF0.0
aF0.0
aF0.0
aF0.0
aF0.0
aF0.0
aF0.0
aF0.0
aF0.0
aF0.0
aF0.0
aF0.0
asg44
S'[[0.07,0.89,0.6],[0.4607274097886599,0.47048728383611493,0.48990769673800516],[0.567233530897155,0.5021931381542244,0.6269451700265346],[0.42318159783076015,0.5970925354863607,0.5195376241304738],[0.5857424032836033,0.5577798546076462,0.6100111933248474],[0.4994621855248963,0.6192450572793973,0.5996652197810522],[0.5109071499638724,0.49800861913281613,0.4219776864712267],[0.5647288152933105,0.6094597122232248,0.5256373887033362],[0.4416770892606504,0.6722285603422001,0.46487335146257347],[0.4952548726978322,0.5535067126445506,0.6118925187222974],[0.5296122191792982,0.6955289226515203,0.670637365091754],[0.48107922759037736,0.5798595372413937,0.6750103773456617],[0.5768826183216407,0.49204787177236325,0.6263043230244649],[0.5752873532214169,0.5553947127000025,0.5668415318372027],[0.5013135540426584,0.6559410829732863,0.538388912405465],[0.425304742058138,0.566771919181041,0.5199545186093553],[0.47234578702442126,0.5273429646057737,0.5991002949314643],[0.5342026916082654,0.5801766111212076,0.7266853829560078],[0.48491820968610505,0.5513098560414619,0.5852365088220556],[0.43906791766460884,0.5680458974751703,0.5077692754673354],[0.41184211814562505,0.5298263827965999,0.588431769167473],[0.5157554202572786,0.4395667298784711,0.6039402120605569],[0.5556359287714089,0.5081990903094765,0.5463139282838951],[0.6215335776346088,0.596804354787506,0.5861437357137413],[0.41847850064930164,0.48176193365663017,0.6252047908240848],[0.6694778480246013,0.6456108203625119,0.6041975601480175],[0.4346584943234304,0.5035749345031083,0.4801266990056341],[0.46644004605677863,0.6044402162839426,0.5400368927692037],[0.5903286506736577,0.5364813744938831,0.5971387719385512],[0.5247245752932483,0.5490294161885585,0.5540325008065661],[0.5559495045178136,0.6485500464640455,0.5281072941332078],[0.5292594209217014,0.41018916498153857,0.5908697842255075],[0.5618783402792149,0.5014179087769941,0.6303581758778689],[0.49553777321159476,0.5873286699734891,0.5057553202354542],[0.4603035832616794,0.5566893315924727,0.5983032667758227],[0.5008509282408483,0.5894714569479396,0.6445733785545216],[0.5838050529100579,0.48745083776446646,0.5309229995912674],[0.5455591860108147,0.5850834768807174,0.5948460327357811],[0.5725980562847599,0.5806037407525311,0.6107419578975236],[0.5146758132173043,0.4337041430679422,0.7229816881892052],[0.48910933203033535,0.5851997061993215,0.6732905771907325],[0.6028766049453629,0.6489457497750458,0.5658497326469674],[0.5465090501602083,0.568615769955786,0.6542479382649378],[0.515899876516733,0.5646643702421689,0.6307007937711141],[0.5560943663989677,0.49934135300220117,0.5424578959409694],[0.48896794619222483,0.60419733150748,0.44539477541739847],[0.4614252423309894,0.5809293597825642,0.4667463748043602],[0.4941468303418586,0.5289148836171191,0.481184769611856],[0.5052645895603499,0.6499961832730726,0.5359264613244713],[0.4750717595922671,0.5191142471730086,0.47461176343242323],[0.5848373221157537,0.6582213155886836,0.6351073773400776],[0.6476546933293265,0.5790535681029455,0.5690306419441012],[0.4882325109244462,0.6498721223306803,0.5344139839442137],[0.6018237238345892,0.5579859566651602,0.5018942422257398],[0.49581080030128655,0.6026902682612085,0.5082017093269815],[0.42669480410910976,0.496367879930461,0.5613945180925132],[0.5167528625728048,0.542034295882862,0.6668432617110607],[0.5101174739838802,0.5616116960515146,0.5364370596145804],[0.45281242819714596,0.4436346627308101,0.6742460098905061],[0.48035585667298547,0.5846883832470235,0.6985168701769592],[0.5482566426778817,0.6200041826196901,0.5602253561672392],[0.49959804023301785,0.5515995681835641,0.4789712701075256],[0.4555288501663295,0.5594449096570471,0.6338696927504788],[0.5653041698602975,0.591581932044926,0.5841682874664911],[0.4911963562320046,0.501605309031927,0.7240079781160441],[0.5294234874051092,0.693642817035599,0.5965304054511475],[0.612147975406455,0.6228019693482559,0.5446017373378242],[0.5583374713953027,0.6638814325849096,0.5551911318038009],[0.5627571758846013,0.598123195013716,0.4982497515124483],[0.4385588952125799,0.544148572716835,0.672694454498237],[0.6313338813936792,0.7663319933201224,0.5746605992653097],[0.48050440157372776,0.554667421896015,0.6161311476903852],[0.6332442878678629,0.43481131512298726,0.5531160186440296],[0.4956374142064936,0.5744680764430075,0.5484647626542377],[0.5094747670639694,0.5542106652066167,0.5054169293842437],[0.550224181759008,0.5513964030752492,0.5852252952391577],[0.6297200160761257,0.5128480417151671,0.4936913560429165],[0.4220292602494024,0.4892098875589877,0.5549990669971838],[0.5169643582841019,0.48201028520242656,0.37936879834444415],[0.552384983062655,0.4222708663144221,0.6637968103808173],[0.5197257664281693,0.516890136151058,0.6565644658530877],[0.48971919152427834,0.5320669425358844,0.6010955047162915],[0.5198840708453043,0.6033432018717593,0.554574571556034],[0.5611778448558062,0.5672278282237297,0.5777926347761351],[0.41940442782522896,0.6220188734617442,0.6851404210649359],[0.503573934126891,0.5903057055760648,0.594542298264104],[0.5067853672502522,0.6021096689413443,0.5251783543152703],[0.5204463264913962,0.5725976634900762,0.48211668538542946],[0.5939134106161896,0.5401949295793191,0.6450991765133303],[0.5172118627565392,0.4494544485042624,0.5279900650362859],[0.4799473003469976,0.6220221059056577,0.4745998800223804],[0.5119753082357014,0.5872682713396322,0.5766310849539475],[0.506496747118645,0.4995426692188861,0.4846491131002356],[0.4819673776801611,0.5661020473673205,0.6282928781070127],[0.4540875597918457,0.5392132201419588,0.501631896683803],[0.5284522597704837,0.6112204056706652,0.6297639906943794],[0.4544671206686221,0.6298118030781235,0.6394379985912835],[0.5671969348575642,0.5851698094355962,0.4890521778676197],[0.7122092172274237,0.561597157754695,0.5732548763603588],[0.5426404811058351,0.5315543217928903,0.6369204548156685],[0.7126162649296319,0.6327597081417611,0.5282172785074901],[0.6473355639069468,0.5827565901890643,0.5923237325141162],[0.5554338278232823,0.6506683329811453,0.6674161157431767],[0.46262318881004294,0.5618852336243025,0.4261426240283946],[0.4301422409777748,0.5769264782785808,0.4948419123868838],[0.5459126027586558,0.6559076004991149,0.5229638768596572],[0.5121398094919771,0.6802673295758391,0.5940101231398977],[0.42345081791628114,0.6040042128488955,0.4767251473897779],[0.5939632742305252,0.4984172596387058,0.5622719162259999],[0.5981182658105351,0.6104661593283196,0.5426385108400523],[0.6008817061986128,0.5895902039742629,0.47023568346401373],[0.5812154489804151,0.45860698541006784,0.6561530742974752],[0.46029113112368397,0.6435443955959517,0.6340297645265597],[0.4213645216900173,0.6585746172042162,0.5217476834513809],[0.3922083571372601,0.49137224968686005,0.5509336701545123],[0.48897310790910253,0.6121953581931459,0.5526687006600663],[0.5233180740426613,0.7585623569514034,0.5904296530975299],[0.558931262326794,0.5781237547583766,0.5343357205064281],[0.3945904468504512,0.5603500524752849,0.4438755179434789],[0.5435663822471171,0.5432155528887816,0.5159885943174359],[0.5563023719062012,0.5053316283393874,0.7205869645857618],[0.493621748890928,0.6315380855945836,0.6023690831328541],[0.4379922686230618,0.5725365844220311,0.6131505568641336],[0.4692435616056815,0.678729023515288,0.6469933515560584],[0.5538360255935095,0.524565085756815,0.5496791961854058],[0.43276208151859324,0.535542683615282,0.5199910516682695],[0.5951056527090095,0.49660272120578963,0.6090303935640218],[0.39570662740428714,0.44276923910247123,0.49980989590452685],[0.5737031529920156,0.5933919084844249,0.4956149176823438],[0.4123948989334251,0.4260171406010107,0.44936136613615274],[0.43909035540924773,0.4965311550974528,0.635269964925784],[0.5888412176325873,0.6068497609709089,0.5799488308373673],[0.5232339033495023,0.5749849701273009,0.6358676350529617],[0.5186579621866083,0.47704231972756095,0.4876001303857878],[0.5673675097969554,0.5802662382236489,0.4765214030462719],[0.5425764169325442,0.4523057802551258,0.5743344817175888],[0.652547454491563,0.4697589265434199,0.6539074653230836],[0.4629739058679232,0.6484516948160758,0.5577651896417253],[0.5505680190424282,0.6121566948970196,0.5942423379526798],[0.47894027984742404,0.5398833527341385,0.5253161974145532],[0.5104103120388408,0.627277369529446,0.7137113199082247],[0.5501731411830639,0.6399325880620506,0.6554844627601302],[0.6764207535032046,0.6173616212723613,0.5232279181394008],[0.4028060459538014,0.5184290932464279,0.6509376151277871],[0.5001830288590876,0.6100212551994607,0.5816555887666834],[0.48690420806926504,0.6265699152667206,0.4825351831756704],[0.5599887054100974,0.6032775606188768,0.5972743428862527],[0.5835246046008988,0.46378703075339944,0.5033074314470579],[0.4891659570985786,0.6051740157800831,0.44424903653146375],[0.5010088123792567,0.5599208278803005,0.432824454534503]]'
p70
sg46
S'[[0.0,0.75,0.29]]'
p71
sg48
(lp72
F0.151
aF0.8
aF0.887
asg50
S'[[0.16,0.88,0.74]]'
p73
sg52
(lp74
F0.25
aF0.5
aF0.5
aF0.5
aF0.5
aF0.010309278350515465
aF0.010309278350515465
aF0.010309278350515465
aF0.010309278350515465
aF0.010309278350515465
aF0.010309278350515465
aF0.5
aF0.010309278350515465
aF0.010309278350515465
aF0.010309278350515465
aF0.010309278350515465
aF0.010309278350515465
aF0.010309278350515465
aF0.010309278350515465
aF0.010309278350515465
aF0.010309278350515465
aF0.00010849517196484758
aF1.1302793937633445e-06
aF1.1773756854048403e-08
aF1.1773756854048403e-08
aF1.2264330199193523e-10
aF1.226433019919352e-10
aF1.226433019919352e-10
aF1.2775343959043742e-12
aF1.3307649957354057e-14
aF1.386213537224399e-16
aF1.4439724346087491e-18
aF1.504137952717447e-20
aF1.5041379527174474e-20
aF1.5041379527174474e-20
aF1.566810367414008e-22
aF1.6320941327229251e-24
aF1.700098054919714e-26
aF1.770935473874702e-28
aF1.8447244519528146e-30
aF1.8447244519528146e-30
aF1.921587970784182e-32
aF2.001654136233523e-34
aF2.08505639190992e-36
aF2.1719337415728335e-38
aF2.1719337415728335e-38
aF2.1719337415728335e-38
aF2.1719337415728335e-38
aF2.262430980805035e-40
aF2.262430980805035e-40
aF2.3566989383385783e-42
aF2.4548947274360194e-44
aF2.4548947274360194e-44
aF2.3566989383385786e-42
aF2.3566989383385786e-42
aF2.3566989383385786e-42
aF2.45489472743602e-44
aF2.5571820077458543e-46
aF2.5571820077458543e-46
aF2.5571820077458543e-46
aF2.6637312580685985e-48
aF2.663731258068599e-48
aF2.663731258068599e-48
aF2.774720060488124e-50
aF2.774720060488124e-50
aF2.890333396341796e-52
aF3.010763954522704e-54
aF3.136212452627817e-56
aF3.26688797148731e-58
aF3.26688797148731e-58
aF3.403008303632615e-60
aF3.403008303632615e-60
aF3.5448003162839745e-62
aF3.544800316283974e-62
aF3.692500329462474e-64
aF3.846354509856744e-66
aF4.006619281100776e-68
aF4.006619281100776e-68
aF4.173561751146642e-70
aF4.3474601574444194e-72
aF4.528604330671271e-74
aF4.528604330671271e-74
aF4.7172961777825746e-76
aF4.913850185190182e-78
aF4.913850185190182e-78
aF5.11859394290644e-80
aF5.331868690527543e-82
aF5.554029885966191e-84
aF5.78544779788145e-86
aF6.026508122793177e-88
aF6.026508122793177e-88
aF6.27761262790956e-90
aF6.539179820739125e-92
aF6.539179820739125e-92
aF6.539179820739125e-92
aF6.811645646603256e-94
aF6.811645646603256e-94
aF7.095464215211726e-96
aF7.391108557512215e-98
aF7.699071414075224e-100
aF8.01986605632836e-102
aF8.354027142008709e-104
aF8.702111606259073e-106
aF8.702111606259074e-106
aF8.702111606259074e-106
aF8.702111606259074e-106
aF8.702111606259074e-106
aF8.702111606259074e-106
aF8.702111606259074e-106
aF8.702111606259074e-106
aF8.702111606259074e-106
aF4.351055803129536e-107
aF4.351055803129536e-107
aF4.177013571004355e-105
aF4.177013571004355e-105
aF2.0885067855021773e-106
aF2.1755279015647683e-108
aF2.1755279015647683e-108
aF2.1755279015647683e-108
aF2.1755279015647683e-108
aF2.1755279015647683e-108
aF2.1755279015647683e-108
aF2.1755279015647687e-108
aF2.1755279015647687e-108
aF2.1755279015647687e-108
aF1.0442533927510888e-107
aF1.0442533927510888e-107
aF1.0442533927510888e-107
aF1.0442533927510888e-107
aF1.0442533927510888e-107
aF1.0442533927510888e-107
aF1.0442533927510888e-107
aF5.221266963755444e-109
aF2.610633481877722e-110
aF2.610633481877722e-110
aF2.610633481877722e-110
aF2.6106334818777224e-110
aF2.6106334818777224e-110
aF2.6106334818777224e-110
aF1.3053167409388612e-111
aF1.3053167409388612e-111
aF1.3053167409388614e-111
aF1.3053167409388614e-111
aF6.526583704694307e-113
aF6.526583704694307e-113
aF6.526583704694307e-113
aF6.526583704694307e-113
aF6.526583704694307e-113
aF6.526583704694307e-113
aF3.263291852347154e-114
assI3
(dp75
g32
(lp76
F0.25
aF0.9896907216494846
aF0.9998915048280351
aF0.999994574682212
aF0.9998915048280351
aF0.9998915048280352
aF0.9998915048280352
aF0.9998915048280352
aF0.9896907216494845
aF0.9896907216494846
aF0.9896907216494846
aF0.9896907216494846
aF0.9896907216494846
aF0.9896907216494846
aF0.9896907216494846
aF0.8275862068965518
aF0.8275862068965517
aF0.04761904761904762
aF0.0005205622071837586
aF0.0005205622071837587
aF2.6040988515924076e-05
aF2.604098851592408e-05
aF2.6040988515924083e-05
aF2.6040988515924083e-05
aF2.7126728752515e-07
aF5.425317787989435e-06
aF1.1302793937633454e-06
aF1.1302793937633454e-06
aF1.1302793937633454e-06
aF2.3547508440486684e-07
aF1.1773756854048413e-08
aF1.1773756854048415e-08
aF2.354750844048669e-07
aF2.3547508440486692e-07
aF4.709480617755766e-06
aF4.709480617755765e-06
aF4.709480617755764e-06
aF4.709480617755763e-06
aF4.709480617755763e-06
aF4.709480617755763e-06
aF4.709480617755763e-06
aF4.709480617755763e-06
aF4.709480617755763e-06
aF4.9057318396170084e-08
aF9.811454534084686e-07
aF9.811454534084686e-07
aF9.811454534084686e-07
aF1.0220275062794038e-08
aF1.0220275062794038e-08
aF1.0220275062794038e-08
aF1.0220275062794038e-08
aF1.0220275062794038e-08
aF1.0220275062794038e-08
aF2.0440546156335999e-07
aF4.088093354323628e-06
aF8.175551682695719e-05
aF8.175551682695719e-05
aF8.175551682695719e-05
aF4.088093354323628e-06
aF4.088093354323628e-06
aF4.088093354323628e-06
aF4.088093354323628e-06
aF4.088093354323628e-06
aF8.175551682695717e-05
aF8.175551682695717e-05
aF8.175551682695717e-05
aF8.175551682695717e-05
aF8.175551682695717e-05
aF0.0016325743692740926
aF0.0016325743692740928
aF0.0016325743692740928
aF0.0016325743692740928
aF0.0016325743692740928
aF0.0016325743692740928
aF1.7033501800287664e-05
aF1.703350180028766e-05
aF1.703350180028766e-05
aF1.703350180028766e-05
aF1.703350180028766e-05
aF1.703350180028766e-05
aF1.774353012814315e-07
aF1.7743530128143147e-07
aF1.7743530128143147e-07
aF1.7743530128143147e-07
aF1.7743530128143147e-07
aF1.8482847128830436e-09
aF1.8482847128830436e-09
aF1.8482847128830436e-09
aF1.8482847128830436e-09
aF1.8482847128830436e-09
aF3.696569295952149e-08
aF3.69656929595215e-08
aF1.774353012814315e-07
aF1.774353012814315e-07
aF3.548694062020229e-06
aF3.5486940620202295e-06
aF3.5486940620202295e-06
aF7.096909613581376e-05
aF7.096909613581376e-05
aF7.096909613581376e-05
aF7.096909613581376e-05
aF7.096909613581376e-05
aF7.096909613581376e-05
aF7.096909613581376e-05
aF7.096909613581376e-05
aF0.0014174705871952008
aF0.0002956381268588436
aF0.0002956381268588436
aF0.0002956381268588436
aF0.0002956381268588436
aF0.0002956381268588436
aF0.0002956381268588436
aF0.00029563812685884356
aF1.4786059099617219e-05
aF7.393133399350616e-07
aF3.6965692959521506e-08
aF3.6965692959521506e-08
aF1.8482847128830444e-09
aF1.8482847128830446e-09
aF9.241423580641966e-11
aF4.620711790726651e-12
aF4.62071179072665e-12
aF2.3103558953734663e-13
aF2.3103558953734663e-13
aF2.3103558953734663e-13
aF1.1551779476869868e-14
aF5.544854148897292e-14
aF2.7724270744487922e-15
aF1.330764995735406e-14
aF1.3307649957354059e-14
aF6.387671979529625e-14
aF3.193835989765006e-15
aF1.596917994882508e-16
aF7.98458997441254e-18
aF3.99229498720627e-19
aF1.9163015938590095e-18
aF9.581507969295048e-20
aF4.790753984647525e-21
aF2.3953769923237623e-22
aF1.149780956315406e-21
aF5.74890478157703e-23
aF5.74890478157703e-23
aF2.874452390788515e-24
aF2.874452390788515e-24
aF1.4372261953942575e-25
aF1.4372261953942575e-25
aF7.186130976971287e-27
aF7.186130976971287e-27
aF3.4493428689462174e-26
aF1.724671434473109e-27
asg34
g35
sg36
S'[[0.1,0.88,0.45],[0.4063525042869047,0.28317856728805924,0.3510665661360026],[0.2601706598706758,0.2893274901736367,0.3487487297486448],[0.2074204420606373,0.39215045972856205,0.2265441574951698],[0.25313365397499943,0.2885622813501071,0.18358124139471504],[0.29861737206691424,0.2746114432440736,0.2958165428450678],[0.21328070499611745,0.3792510896174448,0.33194486925922784],[0.3884219360793514,0.24945084844350926,0.26317914237966494],[0.1710080188249591,0.3716882805512872,0.38169535387267706],[0.1639102491086074,0.3423098081711561,0.287287618544448],[0.2927314131240991,0.28587979784969886,0.32964645361835504],[0.23325244697970296,0.4517852654736189,0.25822254338614475],[0.11539262408157332,0.24560777881209495,0.2495377360814044],[0.14476888666439264,0.5200275329394797,0.34727466836314314],[0.12099502832158811,0.3054833306733404,0.24963657136537157],[0.17677820605114064,0.25693168250976633,0.2505791726942226],[0.21423105769544373,0.23428199329942623,0.33851380117389873],[0.28312189223144035,0.318851380500028,0.2628357362862084],[0.1598318903410587,0.35475095417431435,0.27793659998188697],[0.12828318376039557,0.2664461144188378,0.30342729286751463],[0.13815584631615874,0.39468478096344983,0.32183496309934007],[0.17764903092462112,0.38684170211066665,0.16762610519346668],[0.1820885554119228,0.3046237251217116,0.3164264029722338],[0.24673215879932528,0.25976936415359664,0.26628332433678875],[0.2555460248653802,0.2400135117024945,0.2975815974173334],[0.13026505115446887,0.4089869506462237,0.2347971849611438],[0.29170711748369216,0.2067273300775388,0.2994007972318735],[0.1835993865621007,0.2599959059226295,0.4155488224719305],[0.2234573069559897,0.3805604841871227,0.2601020371597701],[0.2917589948285272,0.32907763126544454,0.35810233471154307],[0.3307294253024895,0.3046052717708018,0.31919475842364203],[0.18739499540916027,0.27933927172249107,0.28397887285771584],[0.2461872290121788,0.38515670697545573,0.2387809587943197],[0.18991224496031678,0.3039817102472915,0.31875117215329263],[0.23163839424058782,0.31681064651497054,0.2271195141323296],[0.2550305541007086,0.2777785153371882,0.27228870612376194],[0.14369327129603002,0.25946151031213643,0.24532970475803628],[0.11620129065816132,0.40789776038772335,0.2178895027137034],[0.18880936063542822,0.31343017492681224,0.2838283730259525],[0.1721195090648508,0.36195615927970637,0.26333905319518025],[0.3292666093606675,0.3000643126918702,0.4266483058287774],[0.3431387649476637,0.3103729655628295,0.2969672119437551],[0.23563536869785634,0.31373079885018784,0.2948448129184932],[0.2202710212144864,0.22602603036977423,0.2320951547495338],[0.18693603919410712,0.321882227055806,0.4188528492722944],[0.20289930271663978,0.3286463202664097,0.3741166994810737],[0.21365303643853822,0.28497385428321426,0.36837052868452425],[0.17646443320536925,0.2413889315502494,0.35078890547363234],[0.1982607045145733,0.28129663937438115,0.35435220333321404],[0.22515802066160298,0.29339930076313925,0.3398767112948614],[0.21790936957533819,0.34868074823518214,0.24515277278886555],[0.2275042993292072,0.29165558251578017,0.3386301833212579],[0.1856029142050405,0.2959492824855151,0.35430829021239607],[0.3290035317023568,0.29826242875683584,0.28710381297673215],[0.21653460996896667,0.35624039062672314,0.2607714847363781],[0.17124758763386094,0.3220013622549902,0.3267929966564653],[0.2770272828232596,0.3688476985357011,0.26884858647903503],[0.23662084798607172,0.34784764067078255,0.2390424063368064],[0.2121950799277136,0.2430320868945628,0.3122397730961637],[0.1750220389281288,0.2384724881312287,0.411035865361255],[0.22879421097241348,0.35611285394793757,0.28883797224094443],[0.4446747724528609,0.3046380713408151,0.3153789707724508],[0.2841312938023061,0.34881966735520586,0.24955764897386276],[0.14459296885826525,0.26208592188862506,0.24269947050863694],[0.2663238833853955,0.39199793538288985,0.35333616561781345],[0.3587612987907138,0.3384502061722776,0.2646556016315043],[0.1836391986877948,0.33201616755707253,0.2571812089890909],[0.2866999848323539,0.2931110795655538,0.33393344044814316],[0.210086225778476,0.3239573879274739,0.29574411161165604],[0.13300561464786434,0.28506181977576894,0.3051683096130151],[0.19265513409457977,0.2610976586510695,0.3426647038915983],[0.3313649167997229,0.43473993188375026,0.24167797680001574],[0.24803313797932844,0.27307805489546977,0.18863776263945367],[0.2955669944728139,0.2937035104089777,0.22481775466207968],[0.16210459296687335,0.21513262903041558,0.30193821371369295],[0.23792958963061359,0.3472063723853672,0.2974192552863909],[0.11292390539492766,0.39516138047799176,0.19128807471096324],[0.34147152250081136,0.34442139242741654,0.2421504470495714],[0.2550012127379223,0.3898571026741816,0.23866370891643918],[0.12126615808689237,0.2872601151987941,0.3632800647963439],[0.30184397528484724,0.24939845733562754,0.2874278560140021],[0.3231934711326313,0.26604342140999054,0.25674998937459315],[0.22217564097174938,0.42169556135633063,0.38766407968665845],[0.1871608026430242,0.26347879634559374,0.21236419053622613],[0.19199764521398208,0.3972913537627895,0.26692540078452864],[0.2831880343453979,0.22935896266609404,0.23419394394421653],[0.2897232593754498,0.329919034369893,0.35413097893328394],[0.29176941322439387,0.3046843125436086,0.3376551397191656],[0.15671582113813756,0.27499055366737785,0.2871170046547808],[0.19931740364788744,0.3240099473843246,0.27066404234777386],[0.2766715713897769,0.2582636239416839,0.26597823151632294],[0.1599257459704212,0.2569266710110497,0.3037611258138335],[0.08900892475997907,0.27567673652602187,0.26509507367090296],[0.2723247140125657,0.2598387661380098,0.2915439454595524],[0.2491211538192674,0.35921943853661087,0.3128834658045568],[0.06463534587787627,0.31695640831037153,0.31954151493967736],[0.29721092974420166,0.2930992645177087,0.29706954341946873],[0.2465318050673818,0.2792007205321271,0.28306160903364413],[0.28118914153483066,0.2540594368586956,0.4354853611422961],[0.31215105669037696,0.25405706150339824,0.3790610725041208],[0.16676347196507693,0.3230797710400532,0.24235504242836914],[0.16389447642155308,0.3681220795821972,0.23110963175370003],[0.21306712318975948,0.29888686004653187,0.35270662920855855],[0.23053363981662067,0.3157217965532239,0.3681550279039937],[0.20488283707600616,0.4339737648693854,0.3856323336120419],[0.1534080324162338,0.3188269555173636,0.33847298207059645],[0.19534406182719283,0.2113844922769265,0.25739529643210807],[0.17730311602582366,0.3378158458819248,0.2215698663744182],[0.26186093732985255,0.2824272250752852,0.2733015485981969],[0.1923099387265796,0.34549250763406764,0.17773788690644285],[0.1656593518632643,0.2739101210641982,0.3575549177409843],[0.14981991035262493,0.281110670049759,0.1998870040091126],[0.18774883873307827,0.22281773020293433,0.33304926299830784],[0.0937341224811546,0.5478270187798131,0.3958361725162039],[0.3439288660839219,0.3377312902934505,0.3820466229107947],[0.2781977099234854,0.2626975485479577,0.2581901992567391],[0.18530369537734057,0.3204769281355994,0.2751862108218413],[0.19523337678257335,0.2627799989379721,0.4006909028668602],[0.24179768932682863,0.3402866291466808,0.19743904267468135],[0.17734670944444006,0.24515880506154958,0.33617655912278066],[0.13163545539105242,0.2370546505523227,0.299145912332504],[0.255269463325997,0.24268760127774983,0.40220946871692076],[0.31361399358524544,0.2737716074412902,0.25022020200407363],[0.3624868837905549,0.25336569253578856,0.2564778004370226],[0.28551885366106877,0.3148447070123365,0.2943303418424116],[0.22305584539647186,0.269680223758339,0.33216765855350133],[0.22844700948534857,0.23966315719151607,0.32593700439180057],[0.25512006136331156,0.4114078826485594,0.3524265147434778],[0.20287445681298782,0.3948218629395469,0.24604265854759624],[0.26765716375146253,0.2842636669191493,0.24984479416168473],[0.36667589006285445,0.2367457054143917,0.2715298270439609],[0.36332416972326054,0.44594073783881016,0.30522513541515883],[0.22492179410103233,0.2705882657932077,0.2624153042076153],[0.17698863217395894,0.2326859537970593,0.26228421459492746],[0.23419169687413488,0.24968885424614715,0.21099582020137952],[0.17163172674207589,0.3516404647738091,0.2743572589336387],[0.2466639228044183,0.35025786243347556,0.22193488449036552],[0.2458393810662063,0.42790514660831835,0.3297393897608457],[0.12463544927235197,0.31620100565109277,0.39377086347035095],[0.13461405861230458,0.2890495432136756,0.2724624756968875],[0.3578332830514629,0.3196566679209064,0.26671108165821666],[0.3334195266113341,0.25316951946916133,0.2167776611499927],[0.23694014611800784,0.24514857264467546,0.32461111214238125],[0.1976577520111517,0.361646051020004,0.25372500488941135],[0.24074727257067013,0.329619070243501,0.21342832764199343],[0.2332495687237154,0.3445246659929712,0.26537345096367637],[0.19993916980168153,0.38904183992251895,0.2380344553587841],[0.31919058200011036,0.2691071738644049,0.20468965183122584],[0.3596329127836485,0.297340399602133,0.27331945557545695],[0.11670081152037101,0.2014982377100772,0.4772545614688262]]'
p77
sg38
g56
sg40
(lp78
F0.25
aF0.0
aF0.0
aF0.0
aF0.0
aF0.0
aF0.0
aF0.0
aF0.0
aF0.0
aF0.0
aF0.0
aF0.0
aF0.0
aF0.0
aF0.0
aF0.0
aF0.0
aF0.0
aF0.0
aF0.0
aF0.0
aF0.0
aF0.0
aF0.0
aF0.0
aF0.0
aF0.0
aF0.0
aF0.0
aF0.0
aF0.0
aF0.0
aF0.0
aF0.0
aF0.0
aF0.0
aF0.0
aF0.0
aF0.0
aF0.0
aF0.0
aF0.0
aF0.0
aF0.0
aF0.0
aF0.0
aF0.0
aF0.0
aF0.0
aF0.0
aF0.0
aF0.0
aF0.0
aF0.0
aF0.0
aF0.0
aF0.0
aF0.0
aF0.0
aF0.0
aF0.0
aF0.0
aF0.0
aF0.0
aF0.0
aF0.0
aF0.0
aF0.0
aF0.0
aF0.0
aF0.0
aF0.0
aF0.0
aF0.0
aF0.0
aF0.0
aF0.0
aF0.0
aF0.0
aF0.0
aF0.0
aF0.0
aF0.0
aF0.0
aF0.0
aF0.0
aF0.0
aF0.0
aF0.0
aF0.0
aF0.0
aF0.0
aF0.0
aF0.0
aF0.0
aF0.0
aF0.0
aF0.0
aF0.0
aF0.0
aF0.0
aF0.0
aF0.0
aF0.0
aF0.0
aF0.0
aF0.0
aF0.0
aF0.0
aF0.0
aF0.0
aF0.0
aF0.0
aF0.0
aF0.0
aF0.0
aF0.0
aF0.0
aF0.0
aF0.0
aF0.0
aF0.0
aF0.0
aF0.0
aF0.0
aF0.0
aF0.0
aF0.0
aF0.0
aF0.0
aF0.0
aF0.0
aF0.0
aF0.0
aF0.0
aF0.0
aF0.0
aF0.0
aF0.0
aF0.0
aF0.0
aF0.0
aF0.0
aF0.0
aF0.0
aF0.0
aF0.0
aF0.0
aF0.0
asg42
(lp79
F0.25
aF0.0
aF0.0
aF0.0
aF0.0
aF0.0
aF0.0
aF0.0
aF0.0
aF0.0
aF0.0
aF0.0
aF0.0
aF0.0
aF0.0
aF0.0
aF0.0
aF0.0
aF0.0
aF0.0
aF0.0
aF0.0
aF0.0
aF0.0
aF0.0
aF0.0
aF0.0
aF0.0
aF0.0
aF0.0
aF0.0
aF0.0
aF0.0
aF0.0
aF0.0
aF0.0
aF0.0
aF0.0
aF0.0
aF0.0
aF0.0
aF0.0
aF0.0
aF0.0
aF0.0
aF0.0
aF0.0
aF0.0
aF0.0
aF0.0
aF0.0
aF0.0
aF0.0
aF0.0
aF0.0
aF0.0
aF0.0
aF0.0
aF0.0
aF0.0
aF0.0
aF0.0
aF0.0
aF0.0
aF0.0
aF0.0
aF0.0
aF0.0
aF0.0
aF0.0
aF0.0
aF0.0
aF0.0
aF0.0
aF0.0
aF0.0
aF0.0
aF0.0
aF0.0
aF0.0
aF0.0
aF0.0
aF0.0
aF0.0
aF0.0
aF0.0
aF0.0
aF0.0
aF0.0
aF0.0
aF0.0
aF0.0
aF0.0
aF0.0
aF0.0
aF0.0
aF0.0
aF0.0
aF0.0
aF0.0
aF0.0
aF0.0
aF0.0
aF0.0
aF0.0
aF0.0
aF0.0
aF0.0
aF0.0
aF0.0
aF0.0
aF0.0
aF0.0
aF0.0
aF0.0
aF0.0
aF0.0
aF0.0
aF0.0
aF0.0
aF0.0
aF0.0
aF0.0
aF0.0
aF0.0
aF0.0
aF0.0
aF0.0
aF0.0
aF0.0
aF0.0
aF0.0
aF0.0
aF0.0
aF0.0
aF0.0
aF0.0
aF0.0
aF0.0
aF0.0
aF0.0
aF0.0
aF0.0
aF0.0
aF0.0
aF0.0
aF0.0
aF0.0
aF0.0
aF0.0
asg44
S'[[0.89,0.17,0.2],[0.30493808357499985,0.526562554948707,0.5132880800395703],[0.228076027227202,0.2302669991884705,0.33064639536220686],[0.15981737004031932,0.2892592186194232,0.23208618558545982],[0.24925540831204188,0.26391275269521314,0.3726752102610889],[0.20323740662820353,0.2847225752857686,0.34633990914602253],[0.23139488527902277,0.35687204352535734,0.36496438398688325],[0.2528928076425919,0.2742296325075858,0.4643891751208608],[0.24898736930652104,0.23212706069429348,0.38245136900249765],[0.2028698133977617,0.2936788376495752,0.3072261887888836],[0.24542880563653635,0.22252626380447374,0.31787651849160575],[0.27805334071183097,0.31559549517652585,0.2674196805909548],[0.20222492965355027,0.2902606449260994,0.29565748812683923],[0.2388277081051796,0.2944323941234963,0.42347063506106036],[0.33624034330945907,0.3053894734940416,0.2983087735531934],[0.18325167774201517,0.3244148803581871,0.23114614222428562],[0.17370302332863513,0.21093874799993753,0.3894821262296343],[0.2389924370133075,0.36837443866479036,0.2913476603496939],[0.1933813120682947,0.44279151572296627,0.32361696461968364],[0.1954785221514153,0.3239706186589144,0.31818085560883386],[0.24355439840362333,0.328759804762526,0.29999566686014717],[0.26626789232681647,0.40592506244208304,0.28599099715274223],[0.2257175653849531,0.3606497728097419,0.28110903874532905],[0.20321218185409934,0.2332240747512564,0.2804037697852464],[0.21180347406081404,0.3555315729610416,0.3092232504508131],[0.1813474872305344,0.238591746057997,0.301584306199753],[0.18069192528472094,0.32148294171535435,0.2984435919419649],[0.2864730095138871,0.30030536634137317,0.46350972174690436],[0.3401182918213332,0.4678786999736131,0.34445970737824466],[0.1269427456007985,0.28077398803283393,0.27507605950364095],[0.2276732237783496,0.31030407794683257,0.3358773733263897],[0.21483776193770363,0.347537937007501,0.22865524571726317],[0.17446395390391461,0.3434579971618409,0.37187760194132835],[0.24517335538169743,0.3227469920143837,0.3223453846076353],[0.1284276959603768,0.30257921904549706,0.22911595471689755],[0.2163127018464282,0.25799961197470245,0.3026708657229632],[0.3024711416528763,0.30766577969633435,0.40523207674985723],[0.2945094671369136,0.3464622502154935,0.29746221316300564],[0.1835168489117673,0.3257561431919964,0.26260321953273075],[0.2252059594777749,0.3492455928313841,0.38176168107009734],[0.3205885018247675,0.33773216826448854,0.37699973079900595],[0.2960195854127131,0.30883721393827923,0.34244290296250124],[0.24739875832780514,0.2978397289988579,0.21990414052192522],[0.18897524508573138,0.2778499669078923,0.33723190494248567],[0.167792333647594,0.2543696292207654,0.29828804809270115],[0.2981894108674431,0.3465884474579511,0.25902935675411337],[0.311284543212487,0.2998393789460628,0.2899734147101219],[0.2247508228741867,0.21004572118226209,0.24904924982899476],[0.3536065825810656,0.3658509586392561,0.2517681118801231],[0.2073079113189423,0.3070410522894576,0.2997372161134321],[0.2358454948739183,0.32295791372128213,0.25055865365280505],[0.2251139398520547,0.3039275469821796,0.2697596020712064],[0.18711120321012792,0.2397923047832585,0.3480177942879077],[0.1669142706188532,0.3227515841350233,0.25600042368180365],[0.1531632744425291,0.3291757069678059,0.2187146667108717],[0.1753123315256226,0.2670007329669387,0.31689090542422965],[0.32130926503725965,0.247329287608628,0.2968791666819398],[0.23153498916171916,0.3173864911147053,0.3685695841168074],[0.20276012998371867,0.3658462025249353,0.22800317117727195],[0.2101520996991383,0.2329259569567796,0.3786415866720341],[0.3268426519676275,0.28107877661269415,0.323116953340466],[0.29713904795182516,0.4197383639710462,0.24360600470712707],[0.30022444120183406,0.26134045731933997,0.2869195591721211],[0.14981933072324877,0.3644186031526101,0.21411093281066423],[0.23861094761789364,0.35772115757616396,0.3841080568218922],[0.20459156264116046,0.2947585902489332,0.2350372158183121],[0.22259404539754088,0.28781428325600505,0.23990251053818631],[0.22801228792978678,0.3342383480803737,0.35757898390654425],[0.14176661138703067,0.31571307971446333,0.34556075661952484],[0.199088303405452,0.2531956974547207,0.28271749250224454],[0.311517499341653,0.297346127531661,0.34133358457874313],[0.20220516166799946,0.29303652659962515,0.19661125176376862],[0.2450720731250196,0.32608752470787283,0.3117055463799362],[0.21720568026027523,0.2848587637860024,0.33150105333985264],[0.2684406798031766,0.2747817676141434,0.22083490192313526],[0.18644914946208252,0.265324737716204,0.23917921578569573],[0.32540119874763357,0.3276423906755062,0.2487011791290105],[0.2646847589007387,0.2940951843253127,0.26366178442183585],[0.28440803373972656,0.24744727475065237,0.33700066971838005],[0.24786082117343308,0.3250496572851731,0.29165536091807265],[0.2425231069693468,0.3593488403482594,0.29749078450937394],[0.2638010541559568,0.2770012583007519,0.3959267467282372],[0.3075464592222099,0.28585321096990707,0.32402835438815814],[0.20268222726920065,0.3191751903668871,0.2315681676990934],[0.2131182701185355,0.21932871004371518,0.2788822802279144],[0.19158841298492954,0.26418089559141783,0.2998439582076298],[0.18461387082235892,0.20467101530369405,0.24305781138740734],[0.32517442917804706,0.302856283204617,0.27945577796029786],[0.27748926012936453,0.2977886117182486,0.276189134047252],[0.3016882245028195,0.33820908663865656,0.36322498395209946],[0.1774923052293702,0.32018540299420034,0.2694531792370202],[0.2212587114356721,0.24379112213140872,0.3261367616492338],[0.25245186782499884,0.28106960243053747,0.3286620345480512],[0.3203106538568926,0.31052759639097627,0.3419686300852839],[0.10679257384818461,0.3047142872466654,0.28679113850282406],[0.21674008279670587,0.3194153525636237,0.32053884265684773],[0.21997055631272935,0.27576524857510365,0.2706958717618444],[0.1734185642966618,0.25168405908383235,0.307017255397919],[0.2098107402645887,0.29454710896866454,0.23520095050975315],[0.18380227360553172,0.2939557747688357,0.28381286809826534],[0.18602727838184174,0.37762472081424364,0.2164943007793744],[0.2420998624102305,0.37270009471811394,0.30370987309804237],[0.2487853197843685,0.3165372184185514,0.3665197457761294],[0.21931030933942894,0.29982327448525053,0.30556752551730687],[0.21196802788397248,0.28903157882720754,0.25683070378040423],[0.17847907847464806,0.30135687980568576,0.2441670483901127],[0.15823263897019282,0.41005147487644533,0.2760732875655655],[0.2086494779736328,0.29007536784304544,0.24430786197132465],[0.28084893815945355,0.30450322523070505,0.2768639718994644],[0.2793510509865419,0.2810320136967135,0.2826781155955126],[0.24691606306374272,0.29298230349478704,0.3354830690870043],[0.24011345979310184,0.3556928293143307,0.269616588422901],[0.17414281389480035,0.2821069428750174,0.3316101942632369],[0.26892088597716773,0.24709678455086742,0.2812707497179566],[0.22503007087159813,0.289859141076074,0.2938380346685746],[0.29627297523096596,0.31519372285597713,0.27301950726876384],[0.3763967322655497,0.3707265945042641,0.24224908269590134],[0.27061831602447056,0.34116227266775456,0.22850077514455797],[0.2158960544404674,0.30847290872489413,0.4118722337678425],[0.2138125719439155,0.3746801400241435,0.34917997105165155],[0.18517733789310303,0.29336619384340706,0.2697228020575507],[0.1615589694879233,0.33228257173528897,0.3137268856685542],[0.2147898229685568,0.29235131799710606,0.2948759816026705],[0.178996298436356,0.2821399247029636,0.3111962335107867],[0.14673976974939612,0.2893505840194769,0.3047005220731125],[0.19674818414453718,0.3378623499869865,0.3045235957405175],[0.18994242930223304,0.3032849570509882,0.2629973733099595],[0.3193120111176338,0.3222574563581581,0.2886434510596578],[0.20839743231973254,0.2996718972243258,0.31239290936553454],[0.17670278588428928,0.3227440785620255,0.30290917379794846],[0.23400690485880404,0.3000042972533682,0.23221654861797308],[0.21000868073645823,0.313993013303975,0.3699210392065522],[0.2720837765460662,0.35725019493137034,0.37435729459364936],[0.23201291969031018,0.32815602164296265,0.2994323892503533],[0.23580365704928097,0.2921268752786138,0.3046014546715533],[0.22358539169080122,0.27516761725698735,0.28450222326131674],[0.21117573047862015,0.28320941611438954,0.2575691109361975],[0.29000699253319207,0.27635840621905483,0.4294718696261248],[0.23044819281437273,0.364804879016742,0.2320890774925206],[0.22884269809570945,0.209074151967188,0.3278717554887151],[0.28180478947361076,0.3295289641288627,0.3381109520984825],[0.20412771732676224,0.40309151476032296,0.2938560546255141],[0.18353186696210497,0.3090817207821126,0.30418659934754255],[0.1754800809215979,0.3351073230955768,0.27817187946133637],[0.32260391276049954,0.298985008408802,0.2937847844113986],[0.18064872220789796,0.38926152160967087,0.32878624039137244],[0.26763309350389664,0.30633666117388414,0.3145252879995687],[0.2663562664060448,0.42665090406427925,0.28254081809722525],[0.2535244083361899,0.35505615168828514,0.30280268589090253],[0.21038341005724578,0.3937273172400246,0.37000432296115127]]'
p80
sg46
S'[[0.21,0.91,0.44]]'
p81
sg48
(lp82
F0.151
aF0.8
aF0.887
asg50
S'[[0.47,0.61,0.24]]'
p83
sg52
(lp84
F0.25
aF0.010309278350515465
aF0.00010849517196484758
aF5.425317787989432e-06
aF0.00010849517196484756
aF0.00010849517196484758
aF0.00010849517196484758
aF0.00010849517196484758
aF0.010309278350515464
aF0.010309278350515465
aF0.010309278350515465
aF0.010309278350515465
aF0.010309278350515465
aF0.010309278350515465
aF0.010309278350515465
aF0.17241379310344832
aF0.1724137931034483
aF0.9523809523809523
aF0.9994794377928161
aF0.9994794377928162
aF0.999973959011484
aF0.9999739590114841
aF0.9999739590114841
aF0.9999739590114841
aF0.9999997287327125
aF0.9999945746822121
aF0.9999988697206064
aF0.9999988697206064
aF0.9999988697206064
aF0.9999997645249156
aF0.9999999882262433
aF0.9999999882262433
aF0.9999997645249155
aF0.9999997645249156
aF0.9999952905193823
aF0.9999952905193823
aF0.9999952905193823
aF0.9999952905193823
aF0.9999952905193823
aF0.9999952905193823
aF0.9999952905193823
aF0.9999952905193823
aF0.9999952905193823
aF0.9999999509426817
aF0.9999990188545466
aF0.9999990188545466
aF0.9999990188545466
aF0.9999999897797249
aF0.9999999897797249
aF0.9999999897797249
aF0.9999999897797249
aF0.9999999897797249
aF0.9999999897797249
aF0.9999997955945386
aF0.9999959119066455
aF0.999918244483173
aF0.9999182444831731
aF0.9999182444831731
aF0.9999959119066457
aF0.9999959119066457
aF0.9999959119066457
aF0.9999959119066457
aF0.9999959119066457
aF0.999918244483173
aF0.9999182444831731
aF0.9999182444831731
aF0.9999182444831731
aF0.9999182444831731
aF0.9983674256307258
aF0.998367425630726
aF0.998367425630726
aF0.998367425630726
aF0.998367425630726
aF0.998367425630726
aF0.9999829664981997
aF0.9999829664981997
aF0.9999829664981997
aF0.9999829664981997
aF0.9999829664981997
aF0.9999829664981997
aF0.9999998225646988
aF0.9999998225646987
aF0.9999998225646987
aF0.9999998225646987
aF0.9999998225646987
aF0.9999999981517153
aF0.9999999981517153
aF0.9999999981517153
aF0.9999999981517153
aF0.9999999981517153
aF0.999999963034307
aF0.999999963034307
aF0.9999998225646987
aF0.9999998225646987
aF0.999996451305938
aF0.999996451305938
aF0.999996451305938
aF0.9999290309038643
aF0.9999290309038643
aF0.9999290309038643
aF0.9999290309038643
aF0.9999290309038643
aF0.9999290309038643
aF0.9999290309038643
aF0.9999290309038643
aF0.9985825294128049
aF0.9997043618731413
aF0.9997043618731413
aF0.9997043618731413
aF0.9997043618731413
aF0.9997043618731413
aF0.9997043618731413
aF0.9997043618731412
aF0.9999852139409002
aF0.9999992606866601
aF0.999999963034307
aF0.999999963034307
aF0.9999999981517154
aF0.9999999981517153
aF0.9999999999075858
aF0.9999999999953794
aF0.9999999999953793
aF0.9999999999997689
aF0.9999999999997689
aF0.9999999999997689
aF0.9999999999999885
aF0.9999999999999445
aF0.9999999999999973
aF0.9999999999999868
aF0.9999999999999867
aF0.9999999999999362
aF0.9999999999999968
aF0.9999999999999999
aF0.9999999999999999
aF0.9999999999999999
aF0.9999999999999999
aF0.9999999999999999
aF0.9999999999999999
aF0.9999999999999999
aF0.9999999999999999
aF0.9999999999999999
aF0.9999999999999999
aF0.9999999999999999
aF0.9999999999999999
aF0.9999999999999999
aF0.9999999999999999
aF0.9999999999999999
aF1.0
aF1.0
aF1.0
assI4
(dp85
g32
(lp86
F0.25
aF0.5
aF0.5
aF0.010309278350515465
aF0.010309278350515465
aF0.00010849517196484758
aF0.00010849517196484759
aF1.1302793937633445e-06
aF1.1773756854048403e-08
aF1.1773756854048403e-08
aF1.1773756854048403e-08
aF1.2264330199193523e-10
aF1.226433019919352e-10
aF1.2775343959043742e-12
aF1.2775343959043742e-12
aF1.2775343959043742e-12
aF1.2775343959043742e-12
aF1.2775343959043742e-12
aF1.277534395904374e-12
aF1.3307649957354056e-14
aF1.3307649957354056e-14
aF1.3307649957354056e-14
aF1.3862135372243994e-16
aF1.386213537224399e-16
aF1.386213537224399e-16
aF1.3307649957354056e-14
aF1.3307649957354056e-14
aF1.3307649957354056e-14
aF1.3307649957354056e-14
aF1.3307649957354056e-14
aF1.3307649957354056e-14
aF1.3307649957354056e-14
aF2.7724270744487906e-15
aF2.887944869217498e-17
aF3.008275905434894e-19
aF1.504137952717447e-20
aF1.5041379527174474e-20
aF1.5041379527174477e-20
aF3.0082759054348956e-19
aF3.0082759054348956e-19
aF3.0082759054348956e-19
aF3.0082759054348956e-19
aF3.1336207348280167e-21
aF3.264188265445851e-23
aF3.264188265445851e-23
aF3.400196109839429e-25
aF1.7000980549197144e-26
aF1.7000980549197144e-26
aF1.7000980549197144e-26
aF1.7000980549197144e-26
aF1.7000980549197144e-26
aF1.7000980549197144e-26
aF1.7000980549197144e-26
aF1.7000980549197144e-26
aF1.7000980549197144e-26
aF1.7000980549197144e-26
aF1.7000980549197144e-26
aF1.7000980549197144e-26
aF1.6320941327229259e-24
aF1.6320941327229259e-24
aF8.16047066361463e-26
aF8.16047066361463e-26
aF8.16047066361463e-26
aF8.16047066361463e-26
aF8.16047066361463e-26
aF4.080235331807315e-27
aF4.250245137299286e-29
aF4.250245137299287e-29
aF4.250245137299287e-29
aF2.125122568649643e-30
aF2.2136693423433785e-32
aF2.2136693423433785e-32
aF2.1251225686496435e-30
aF2.1251225686496435e-30
aF2.0401176659036574e-28
aF1.0200588329518288e-29
aF1.0200588329518288e-29
aF1.020058832951829e-29
aF9.792564796337558e-28
aF4.896282398168779e-29
aF5.1002941647591455e-31
aF5.100294164759146e-31
aF5.100294164759146e-31
aF5.100294164759146e-31
aF5.100294164759146e-31
aF5.100294164759146e-31
aF5.100294164759146e-31
aF2.550147082379573e-32
aF2.550147082379573e-32
aF2.6564032108120556e-34
aF2.550147082379573e-32
aF2.4481411990843903e-30
aF2.4481411990843903e-30
aF2.4481411990843903e-30
aF2.3502155511210147e-28
aF2.3502155511210147e-28
aF2.3502155511210147e-28
aF2.3502155511210147e-28
aF2.3502155511210147e-28
aF2.3502155511210147e-28
aF1.1751077755605073e-29
aF1.1751077755605073e-29
aF2.3502155511210147e-28
aF4.70043110224203e-27
aF4.7004311022420306e-27
aF4.700431102242031e-27
aF2.3502155511210156e-28
aF2.3502155511210156e-28
aF4.700431102242031e-27
aF2.3502155511210156e-28
aF2.2562069290761748e-26
aF2.2562069290761748e-26
aF2.2562069290761748e-26
aF2.1659586519131276e-24
aF2.1659586519131276e-24
aF2.165958651913128e-24
aF2.165958651913128e-24
aF2.165958651913128e-24
aF2.165958651913128e-24
aF2.165958651913128e-24
aF2.165958651913128e-24
aF2.0793203058366029e-22
aF2.0793203058366029e-22
aF2.0793203058366029e-22
aF2.0793203058366029e-22
aF4.158640611673206e-21
aF4.1586406116732066e-21
aF4.1586406116732066e-21
aF2.079320305836603e-22
aF2.079320305836603e-22
aF2.079320305836603e-22
aF2.079320305836603e-22
aF2.079320305836603e-22
aF2.079320305836603e-22
aF4.1586406116732066e-21
aF4.1586406116732066e-21
aF4.1586406116732066e-21
aF4.1586406116732066e-21
aF4.1586406116732066e-21
aF8.317281223346413e-20
aF1.6634562446692827e-18
aF1.6634562446692829e-18
aF1.6634562446692829e-18
aF1.663456244669283e-18
aF1.663456244669283e-18
aF1.663456244669283e-18
aF3.3269124893385664e-17
aF3.3269124893385664e-17
aF3.3269124893385664e-17
aF3.3269124893385664e-17
asg34
g35
sg36
S'[[0.53,0.18,0.47],[0.5669291542828732,0.6207562652809666,0.6428439010287967],[0.728973460641909,0.5938630342705119,0.5659590883596873],[0.6310520028052571,0.6540750412743284,0.5785197281755964],[0.7408355939428257,0.5959768045235586,0.6550799580882485],[0.7660485952042548,0.6483795219497461,0.6016000334992678],[0.7592836594446143,0.5941498703088478,0.6663837995452873],[0.7939026418592033,0.7790595140281075,0.7264356263346303],[0.46606693320284664,0.4798016531824888,0.45559376259629414],[0.6690054565529957,0.7204383098376819,0.6680340450448601],[0.7452278836988644,0.8331097219571998,0.6720616368542502],[0.5369958498318697,0.608830863114067,0.8057163825363048],[0.6368350465675735,0.514261841960538,0.5164526694784006],[0.561316830197357,0.6527399649787133,0.7149651582334666],[0.640828091280723,0.5829575574523516,0.7958626197097578],[0.6496586880384562,0.564221316495943,0.7398582216278724],[0.5076959610098734,0.6873686423837349,0.7307787377568669],[0.7093598917724763,0.7887277219892378,0.6900631124123281],[0.5195266123213285,0.541568655595397,0.6412426184135807],[0.5681312775023294,0.5510030116057707,0.6095862970084257],[0.48757948250059435,0.5861867365573835,0.4938531700277191],[0.6121245016964194,0.5792045317491096,0.6114484550595966],[0.6095113151049241,0.6408249760235227,0.7093921119718593],[0.7168436409272606,0.7775505630400055,0.6659969089784642],[0.6882626982043037,0.6042212086615979,0.6581220812262193],[0.5453268918658329,0.5226364377249464,0.5182850145588629],[0.5992670528383164,0.5612206961522885,0.7539877405558231],[0.7004976516197544,0.6114711475961876,0.5688661428329416],[0.6749617900155596,0.7429141431982171,0.5389642809373997],[0.5488701862385897,0.5122163528606613,0.44450421745757274],[0.6705584736609778,0.4946456775069198,0.6109989584672525],[0.5964768660018308,0.744361912923886,0.7209853474517862],[0.5545929084460669,0.5889861261589145,0.743053886617454],[0.5976068563153577,0.6943917288092732,0.5689336870492545],[0.7008616701659207,0.6658524332223278,0.6147573289492261],[0.8038404750323901,0.4960594739533013,0.4632082681651754],[0.4890576045019476,0.5955976738046301,0.6392902718287287],[0.551484409221315,0.6216081622449521,0.7418668047028893],[0.49473626189965036,0.767121268509565,0.6928755101850046],[0.7636766443169536,0.7624760889106311,0.6498522286608535],[0.6069210911272476,0.6782004898173779,0.4101745197736008],[0.4661677533940704,0.6392939358980045,0.6252393115322229],[0.6492346591155894,0.6286239195299512,0.6918354372176684],[0.6107390734972025,0.5316923063515793,0.6828368634092161],[0.6284578605362974,0.6848131157918569,0.5661853132750972],[0.5436746401351982,0.5559471158964115,0.5141815966736231],[0.634066252150549,0.5648593327146465,0.7420786202461259],[0.6149363514916122,0.6973489101443751,0.5992641481332667],[0.6814459038023034,0.774874031306018,0.5495619238960565],[0.5063340146769478,0.6849799466374604,0.5471619715252324],[0.514224443605408,0.5933730519298077,0.5450677444237673],[0.5970819884442056,0.5237263236533427,0.660518996078052],[0.6018202534604076,0.5937601262385653,0.6934121350318097],[0.28930505314850763,0.5635236949109763,0.49435214487529117],[0.3280598082787433,0.5823041585971267,0.573433370930866],[0.5813328707342377,0.6162371829485884,0.6078513325286783],[0.5306853406908848,0.6813638583699125,0.5894490307819742],[0.5127314324017369,0.7114183603945307,0.645370331125654],[0.635793745696422,0.6562674348605929,0.7604962969227398],[0.6596623756552189,0.7528129175125378,0.7300995605636932],[0.5963286524663699,0.6069230115683348,0.5765730006330569],[0.5216886963305607,0.6331131300851323,0.549521692234827],[0.669965893188039,0.6731750708030088,0.7755394802681372],[0.6679243775669839,0.606783771532075,0.6471683590114555],[0.47065826545180717,0.6710755458350796,0.6190350505539394],[0.5825976661525802,0.5814727020331476,0.6530122404605389],[0.5577850026064112,0.7127651747580307,0.6578630890428114],[0.44076917169997215,0.6319063354720178,0.6577201689587063],[0.7471209232320859,0.7470758796034902,0.7599521181327308],[0.5563377347578466,0.6553963878508904,0.6960928908505647],[0.688229569727022,0.6351198143330287,0.6635241624668844],[0.45186334199713746,0.6928654622290389,0.536906073624604],[0.554846598225831,0.5177581060685491,0.663736062205784],[0.6244847502501346,0.6337655522897893,0.7714017250048835],[0.3283510380055977,0.6930704198709274,0.6873331095863544],[0.6098879165578445,0.681804460048437,0.5512889737625247],[0.686189766534692,0.7073442931118895,0.6830346109825631],[0.6651583293387946,0.5863429758220777,0.6507267317247085],[0.5412768843785037,0.6974917931639182,0.6618502911793955],[0.6609810313819657,0.723284628750182,0.654894861327969],[0.6038957641192908,0.5236077722799368,0.6594245393284067],[0.6433316180749716,0.6730756784835643,0.5033843859314379],[0.5783050800081755,0.7773224173933109,0.5992953803438431],[0.6384872273924329,0.6603259258776759,0.5341344097236939],[0.5915891288023777,0.5641046421083392,0.5977041543883131],[0.5266426265247813,0.7690080144671094,0.8290092901678621],[0.5681469966906706,0.503516321825466,0.6666700101542153],[0.48889746649573657,0.682017313880372,0.6015360324575277],[0.5691690924186619,0.5406290432560799,0.7060627898231447],[0.6474044636542765,0.6393368669009701,0.7035644409297959],[0.5916242811705196,0.4851536990122832,0.7507419387305383],[0.5831294191860843,0.6636610691657705,0.636047313140281],[0.4709167508641894,0.607063038082614,0.48800660923557115],[0.6421414820298377,0.6207966013054971,0.6108412405665481],[0.5653657732071744,0.6211544173739048,0.6583812833091454],[0.3712709672301833,0.7426945901349474,0.5300043898427462],[0.6190913118728114,0.6064331470392605,0.6834933174165203],[0.4644759658003327,0.6887616993806629,0.6714547691927235],[0.6915346959991715,0.6985038530002873,0.8164998252332263],[0.6263254885835787,0.6482171012602317,0.6293990388317312],[0.6427481803477043,0.611305757474913,0.7179142617510873],[0.5066998699796448,0.7990943542441267,0.6974171924982716],[0.5036913578088522,0.636091321136966,0.6972358476551033],[0.648251110238923,0.6231180580190885,0.6642040510644259],[0.565492528915928,0.6234881477585652,0.5889843910617134],[0.6486033567716627,0.5609534239466198,0.5867561339853102],[0.5780410286224634,0.5392352027743771,0.6323732093745695],[0.5319668569340815,0.6669046391264498,0.5323214064444948],[0.5515574138906904,0.7678877257799114,0.6683216079373032],[0.5213515034190809,0.6516910635108808,0.46223410864893977],[0.5893476668108407,0.4166237191059429,0.6652817494697922],[0.5593326324604588,0.6662453751924449,0.5633492623191295],[0.6743540584022761,0.7317474700701526,0.5594500923922008],[0.6172283952907032,0.7230048448276876,0.5589578610739897],[0.7523960765047417,0.5499217497842531,0.6746198039922883],[0.6552210491088166,0.6937666262145845,0.6413779867268172],[0.436277487712083,0.6522193665611187,0.6279635909855132],[0.6921517158339343,0.7451030012859533,0.6740524305760958],[0.6978886678693623,0.7054509425001544,0.4934387184219743],[0.5364114021176151,0.5841570049932037,0.5603906948623919],[0.4095188998252324,0.48794537734567295,0.5100640357789481],[0.5650763571884815,0.6330723296688379,0.6553247201819787],[0.6211585132954422,0.6289145019063473,0.6512590139713623],[0.5662109486035042,0.6860577371289519,0.7509082837739947],[0.6062394063332393,0.7695824521808937,0.6007104943480818],[0.6299540905716638,0.7787632517825024,0.6413534073819691],[0.4311731932360501,0.6588299915625535,0.6777455342667084],[0.5692021611217825,0.6365559018991008,0.6364283129922654],[0.7148053341310875,0.6884256275022459,0.7448702463737731],[0.4364515147498168,0.632994834066785,0.49221982209684956],[0.6723961370925357,0.6647463651659457,0.607449558673064],[0.6550740319967988,0.6214855443666222,0.6632952790847068],[0.6956309775342995,0.7321072465189677,0.6076824943885158],[0.7174480551720812,0.7554203526561558,0.786593121683574],[0.7225097966784059,0.6565724183779429,0.6737833994247545],[0.45228745613689736,0.6718490444620235,0.5330375795586345],[0.6575521164857758,0.5682779700922728,0.5457462307777774],[0.5428629946027721,0.5987831864029383,0.7008192531371702],[0.4601535385084281,0.5696821036568278,0.7645289028133164],[0.5146466930303418,0.5628379864887563,0.689985874100475],[0.6736691979137093,0.5478795083887984,0.695914533437616],[0.5230985070256098,0.6700631839159874,0.7008368829701788],[0.7547110714222992,0.7396609934742532,0.6397688556611933],[0.7283677299647761,0.6988764747332089,0.7463540767911244],[0.5273225314472675,0.6912099189140972,0.779120269390479],[0.5233881040959927,0.5461641764128655,0.5472500063242456],[0.548332659044711,0.5356019131852043,0.6556348575852777],[0.6176280346284394,0.5602590414746177,0.7114445404841829],[0.6644232311492333,0.646747507446265,0.7582177074726407],[0.4414825132569445,0.7306670989572919,0.4383504667118845]]'
p87
sg38
g56
sg40
(lp88
F0.25
aF0.0
aF0.0
aF0.0
aF0.0
aF0.0
aF0.0
aF0.0
aF0.0
aF0.0
aF0.0
aF0.0
aF0.0
aF0.0
aF0.0
aF0.0
aF0.0
aF0.0
aF0.0
aF0.0
aF0.0
aF0.0
aF0.0
aF0.0
aF0.0
aF0.0
aF0.0
aF0.0
aF0.0
aF0.0
aF0.0
aF0.0
aF0.0
aF0.0
aF0.0
aF0.0
aF0.0
aF0.0
aF0.0
aF0.0
aF0.0
aF0.0
aF0.0
aF0.0
aF0.0
aF0.0
aF0.0
aF0.0
aF0.0
aF0.0
aF0.0
aF0.0
aF0.0
aF0.0
aF0.0
aF0.0
aF0.0
aF0.0
aF0.0
aF0.0
aF0.0
aF0.0
aF0.0
aF0.0
aF0.0
aF0.0
aF0.0
aF0.0
aF0.0
aF0.0
aF0.0
aF0.0
aF0.0
aF0.0
aF0.0
aF0.0
aF0.0
aF0.0
aF0.0
aF0.0
aF0.0
aF0.0
aF0.0
aF0.0
aF0.0
aF0.0
aF0.0
aF0.0
aF0.0
aF0.0
aF0.0
aF0.0
aF0.0
aF0.0
aF0.0
aF0.0
aF0.0
aF0.0
aF0.0
aF0.0
aF0.0
aF0.0
aF0.0
aF0.0
aF0.0
aF0.0
aF0.0
aF0.0
aF0.0
aF0.0
aF0.0
aF0.0
aF0.0
aF0.0
aF0.0
aF0.0
aF0.0
aF0.0
aF0.0
aF0.0
aF0.0
aF0.0
aF0.0
aF0.0
aF0.0
aF0.0
aF0.0
aF0.0
aF0.0
aF0.0
aF0.0
aF0.0
aF0.0
aF0.0
aF0.0
aF0.0
aF0.0
aF0.0
aF0.0
aF0.0
aF0.0
aF0.0
aF0.0
aF0.0
aF0.0
aF0.0
aF0.0
aF0.0
aF0.0
aF0.0
asg42
(lp89
F0.25
aF0.0
aF0.0
aF0.0
aF0.0
aF0.0
aF0.0
aF0.0
aF0.0
aF0.0
aF0.0
aF0.0
aF0.0
aF0.0
aF0.0
aF0.0
aF0.0
aF0.0
aF0.0
aF0.0
aF0.0
aF0.0
aF0.0
aF0.0
aF0.0
aF0.0
aF0.0
aF0.0
aF0.0
aF0.0
aF0.0
aF0.0
aF0.0
aF0.0
aF0.0
aF0.0
aF0.0
aF0.0
aF0.0
aF0.0
aF0.0
aF0.0
aF0.0
aF0.0
aF0.0
aF0.0
aF0.0
aF0.0
aF0.0
aF0.0
aF0.0
aF0.0
aF0.0
aF0.0
aF0.0
aF0.0
aF0.0
aF0.0
aF0.0
aF0.0
aF0.0
aF0.0
aF0.0
aF0.0
aF0.0
aF0.0
aF0.0
aF0.0
aF0.0
aF0.0
aF0.0
aF0.0
aF0.0
aF0.0
aF0.0
aF0.0
aF0.0
aF0.0
aF0.0
aF0.0
aF0.0
aF0.0
aF0.0
aF0.0
aF0.0
aF0.0
aF0.0
aF0.0
aF0.0
aF0.0
aF0.0
aF0.0
aF0.0
aF0.0
aF0.0
aF0.0
aF0.0
aF0.0
aF0.0
aF0.0
aF0.0
aF0.0
aF0.0
aF0.0
aF0.0
aF0.0
aF0.0
aF0.0
aF0.0
aF0.0
aF0.0
aF0.0
aF0.0
aF0.0
aF0.0
aF0.0
aF0.0
aF0.0
aF0.0
aF0.0
aF0.0
aF0.0
aF0.0
aF0.0
aF0.0
aF0.0
aF0.0
aF0.0
aF0.0
aF0.0
aF0.0
aF0.0
aF0.0
aF0.0
aF0.0
aF0.0
aF0.0
aF0.0
aF0.0
aF0.0
aF0.0
aF0.0
aF0.0
aF0.0
aF0.0
aF0.0
aF0.0
aF0.0
aF0.0
aF0.0
asg44
S'[[0.61,0.76,0.73],[0.4083809968095401,0.48670279851561454,0.6743011024345965],[0.5476776250212044,0.6547353892136811,0.5737195250705902],[0.6525824920957742,0.7200050182165436,0.7088636098950648],[0.5013313545313468,0.6326634070286967,0.6112351355305539],[0.7377744282513501,0.6375089604041739,0.5260606456851893],[0.6232864569090347,0.6446642668628827,0.7384195092751595],[0.5088483933842578,0.5527620000400512,0.6956580964393102],[0.7035514744154956,0.5021980854119423,0.6703405176210568],[0.5918958344911929,0.6735072633176877,0.7013127225172284],[0.6391222648479554,0.6814280887999813,0.8226283781997206],[0.43413486877992263,0.5417634446124813,0.5658748890914673],[0.6678542771560279,0.6306119825945216,0.5439439061100735],[0.5263515810577623,0.6447090947071792,0.5282016284737548],[0.7327924218285735,0.739153024474458,0.7322664569515622],[0.5412512829645341,0.6911732217090194,0.6793473193740891],[0.6466598998138035,0.6956185431881614,0.7681956420084346],[0.4963169549696763,0.4571452358698327,0.6956675864202844],[0.5373506436464505,0.6877589308426134,0.5336067282132356],[0.6509397084646541,0.6382894475211506,0.49680786737991545],[0.6975356130260633,0.6975585778968056,0.696259191181267],[0.4854036833997675,0.7089713680500725,0.5951481152880107],[0.5358297215659023,0.6594415172335364,0.6452595989819607],[0.6266363974449349,0.6841769364873007,0.6339367978841013],[0.4714079018495199,0.5033506327355888,0.47324511416141374],[0.5520791629526195,0.6972882632464208,0.7294482413508907],[0.6207771409321411,0.6389850949440209,0.45542594850199214],[0.6177418678643941,0.7342343981887262,0.7316239569516283],[0.6305185928981414,0.442374899888211,0.5371730787682099],[0.5016253134028548,0.45497843814271227,0.6582405003345932],[0.6235234663406877,0.6339910341386684,0.7524614084490934],[0.5488875125886057,0.7652727629790862,0.4879438029043066],[0.5552525469227193,0.6844438104116085,0.6066630421553503],[0.6252385213103745,0.7634965774550173,0.6795107697978956],[0.5252073237661687,0.5203729553583185,0.5636639044964623],[0.6072055951793258,0.528012873291668,0.5837138235290478],[0.7306933191986861,0.5020674582307239,0.6748796478256696],[0.6512316114270116,0.701370037567652,0.5737114942635568],[0.6709374023162468,0.7042865353392868,0.7106645485000949],[0.55434312442958,0.4446917367650599,0.6683324182805304],[0.5539788017015715,0.6755535765626632,0.7634093064785998],[0.7362656817239124,0.4693359192824376,0.7156732597046381],[0.6759385411323998,0.5989869684700688,0.6021453235568698],[0.4852492943689987,0.46083852317864205,0.640427562653603],[0.6454992532296174,0.5862222989117254,0.650752941125025],[0.5936143231503312,0.6850937178652136,0.6100787721088557],[0.47445084871587706,0.6565572058054558,0.6061567874252154],[0.649870704232879,0.6984022030584522,0.7277525678831412],[0.378021955052443,0.5185098569213212,0.5421080554110437],[0.6834126825062707,0.5212184797702981,0.6514570587867603],[0.6311352779026174,0.6162480904564096,0.7097057705859748],[0.650132020658998,0.6646255236700016,0.6834851894583106],[0.31009793518632806,0.5910049727600447,0.611421199619146],[0.7062718262459008,0.6588265426977505,0.5948508322589378],[0.6842422121073779,0.6054528444363177,0.5358433553156343],[0.6297092687931972,0.5871501388192903,0.6479611140218287],[0.7652858664124257,0.6561287981648528,0.718507289761398],[0.5428419066861411,0.7785347860886402,0.840375457977178],[0.5856858328212373,0.6614801424447917,0.6811154319915388],[0.6340972186435094,0.6872555410934588,0.7109148429525693],[0.45563358186110153,0.5804654065040559,0.7716221559241176],[0.5676869579917183,0.6627254584788067,0.6855458761040315],[0.5191156471587666,0.6950726217492822,0.6175612260461351],[0.4578848831061024,0.5419946165325926,0.4939148108729249],[0.661930031595175,0.6497281046704744,0.577441835308608],[0.4873507084162165,0.6873612217027192,0.5788413993753879],[0.5467279813095167,0.6533042293685907,0.5523567393302258],[0.5530429922802226,0.720761712772527,0.7532950721297815],[0.5924032593339622,0.7125251514618564,0.48073760644251584],[0.6367587000793721,0.5742582280392248,0.4970480217144103],[0.48771955573961223,0.5776604228556508,0.772966726005798],[0.7474347368845058,0.5314324935913421,0.5674801405854072],[0.5789743132816351,0.6647287776206771,0.7530746799421363],[0.3562751522914263,0.557260953471198,0.5158732247334433],[0.6448687935785513,0.6293060827335399,0.5040739603662909],[0.5298796043903853,0.6292555510899468,0.6468690916700119],[0.5281345230643602,0.6438230302861234,0.6011347463642184],[0.6633179574195178,0.6981935619769477,0.7373020772011518],[0.6522582976680888,0.6747839198839828,0.7325366710516159],[0.5422085330067571,0.4731906295498673,0.52608364168638],[0.5609284120477944,0.612539763721124,0.5494569209562865],[0.6169693944461905,0.6362196527793397,0.6724171153665458],[0.44850706489693365,0.7600713438040873,0.6424004842479725],[0.6910779696349195,0.6952907795454704,0.7093940057266587],[0.5492925683562706,0.727211561162295,0.7449895878293271],[0.5713930746137368,0.6148454176608701,0.6245873397852827],[0.6592345045535574,0.6980313262830121,0.5773726521865475],[0.5518036664932029,0.5765687023757596,0.6845286906491265],[0.7493360615657636,0.6302320038548163,0.6575094151695554],[0.517827558351615,0.5265213195322593,0.5248186102197094],[0.547700365847897,0.5371245581623232,0.6986609383220046],[0.5400515916057933,0.718814540464918,0.597469189897213],[0.7162086042349394,0.6034942149934697,0.7031214543473647],[0.6261617189745057,0.6932679080769028,0.7151994553084128],[0.49824964480678646,0.4965186262558229,0.4760173348947416],[0.6325260200602745,0.6407270061772061,0.5620300061878527],[0.6286224697859014,0.5556172630064473,0.6562573950074999],[0.6173071332104054,0.6307957864603235,0.6918224708069775],[0.5625684706780206,0.6005519702100099,0.6827586542912736],[0.6459986474881612,0.707377842007823,0.6827935321785513],[0.6030260679801878,0.553269859101326,0.6105030172779983],[0.574264533784564,0.6474088730030318,0.7764005805733325],[0.5911435222602615,0.566326490908065,0.7108789888604752],[0.6654677034693899,0.7484632004588323,0.6812247386593986],[0.543143022010389,0.5918744735578446,0.5518150568545768],[0.6571273759671058,0.5467956370878386,0.6116209546582869],[0.49701863387983247,0.7205989992573378,0.7540253876853382],[0.6416042013373872,0.7226246318561234,0.5996112062460106],[0.5869807994673819,0.47820729305794585,0.5474076720751214],[0.4479291771989241,0.5129898195254731,0.6030821408610036],[0.6142863587152074,0.5856403537955728,0.6253921900855942],[0.6041921173750848,0.65153734619295,0.5336714432569372],[0.6232158787727783,0.6032317987241766,0.6922946624025703],[0.6243505017893501,0.7930850291773948,0.8066330318880686],[0.6256994024233049,0.7526402717884776,0.5364681334548248],[0.35432795064748934,0.5588212860788171,0.5408955058875693],[0.5678169455813169,0.5822973748508462,0.6486521673409226],[0.485185155564084,0.6903661823959573,0.596750746008791],[0.520782764990754,0.5408539788542821,0.5686408029264848],[0.33282023106758984,0.5425224481892837,0.38418861928281406],[0.5286671296849396,0.5082273526379183,0.5517282492696058],[0.4681899708521831,0.6191603607581425,0.6881388977101671],[0.5087412551487851,0.6797112730947752,0.5328876640489395],[0.6400125430357064,0.7200806326289999,0.707083776957255],[0.5907730368521676,0.7453391192860936,0.7145163649177049],[0.5134054057072233,0.5500751722480881,0.6078191872558241],[0.631825852798204,0.5338207051356714,0.6113279277827502],[0.6332445544191947,0.8074608396759888,0.7002668411725391],[0.6014445297476647,0.7360353373200281,0.586332548161352],[0.6831103166000472,0.4287615857908912,0.607404759159514],[0.6179256210171056,0.6193031179320888,0.4659632940544651],[0.6143530965575044,0.6099771811082622,0.7687443810910474],[0.5904360451484977,0.701730847790879,0.6411528535396898],[0.6574921188681132,0.6155841482143541,0.7111083061279555],[0.5137977022472603,0.546844354709628,0.6013583628264134],[0.47895541092526184,0.5532334309656718,0.7178873330957701],[0.6520162108196672,0.5734856829665207,0.6359285231831004],[0.6468067918597129,0.5475060155565077,0.581424816880435],[0.6691917751984489,0.5532147521457658,0.47207171937308656],[0.49303754996860805,0.5253058316931953,0.5725679457161765],[0.6266190410182523,0.5653097065725553,0.6624779040390492],[0.5204131149077205,0.6483060619724833,0.6049401957060803],[0.7008613951999086,0.7018106787018363,0.6987370686468878],[0.49495053033029424,0.7524286375464956,0.6725097411160841],[0.6443583504507641,0.6276990489316524,0.5201418240201385],[0.588116798945485,0.6426604270012268,0.6793555236855483],[0.6166300924909154,0.6878062340177825,0.5662989498540036],[0.6863240564887803,0.6103639988363541,0.669499522446713],[0.5621128253040585,0.6148604436722652,0.47535578804683815],[0.5274774613931626,0.5522806994635173,0.5925372936293141]]'
p90
sg46
S'[[0.05,0.85,0.46]]'
p91
sg48
(lp92
F0.151
aF0.8
aF0.887
asg50
S'[[0.04,0.34,0.22]]'
p93
sg52
(lp94
F0.25
aF0.5
aF0.5
aF0.9896907216494846
aF0.9896907216494846
aF0.9998915048280351
aF0.9998915048280352
aF0.9999988697206061
aF0.9999999882262431
aF0.9999999882262433
aF0.9999999882262433
aF0.9999999998773568
aF0.9999999998773567
aF0.9999999999987225
aF0.9999999999987226
aF0.9999999999987226
aF0.9999999999987226
aF0.9999999999987226
aF0.9999999999987224
aF0.9999999999999866
aF0.9999999999999867
aF0.9999999999999867
aF1.0
aF0.9999999999999999
aF0.9999999999999999
aF0.9999999999999867
aF0.9999999999999867
aF0.9999999999999867
aF0.9999999999999867
aF0.9999999999999867
aF0.9999999999999867
aF0.9999999999999868
aF0.9999999999999973
aF0.9999999999999999
aF0.9999999999999999
aF0.9999999999999999
aF0.9999999999999999
aF1.0
aF1.0
aF1.0
aF1.0
aF1.0
aF1.0
aF1.0
aF1.0
aF1.0
aF1.0
aF1.0
aF1.0
aF1.0
aF1.0
aF1.0
aF1.0
aF1.0
aF1.0
aF1.0
aF1.0
aF1.0
aF1.0
aF1.0
aF1.0
aF1.0
aF1.0
aF1.0
aF1.0
aF1.0
aF1.0
aF1.0
aF1.0
aF1.0
aF1.0
aF1.0
aF1.0
aF1.0
aF1.0
aF1.0
aF1.0
aF1.0
aF1.0
aF1.0
aF1.0
aF1.0
aF1.0
aF1.0
aF1.0
aF1.0
aF1.0
aF1.0
aF1.0
aF1.0
aF1.0
aF1.0
aF1.0
aF1.0
aF1.0
aF1.0
aF1.0
aF1.0
aF1.0
aF1.0
aF1.0
aF1.0
aF1.0
aF1.0
aF1.0
aF1.0
aF1.0
aF1.0
aF1.0
aF1.0
aF1.0
aF1.0
aF1.0
aF1.0
aF1.0
aF1.0
aF1.0
aF1.0
aF1.0
aF1.0
aF1.0
aF1.0
aF1.0
aF1.0
aF1.0
aF1.0
aF1.0
aF1.0
aF1.0
aF1.0
aF1.0
aF1.0
aF1.0
aF1.0
aF1.0
aF1.0
aF1.0
aF1.0
aF1.0
aF1.0
aF1.0
aF1.0
aF1.0
aF1.0
aF1.0
aF1.0
aF1.0
aF1.0
aF1.0
aF1.0
assI5
(dp95
g32
(lp96
F0.25
aF0.5
aF0.9896907216494846
aF0.9896907216494846
aF0.9896907216494846
aF0.9896907216494846
aF0.9896907216494846
aF0.5
aF0.5
aF0.5
aF0.010309278350515465
aF0.010309278350515465
aF0.00010849517196484758
aF0.010309278350515465
aF0.0001084951719648476
aF1.1302793937633445e-06
aF1.1302793937633447e-06
aF1.1773756854048405e-08
aF1.1773756854048407e-08
aF1.1773756854048407e-08
aF1.1773756854048407e-08
aF2.452866034122981e-09
aF2.4528660341229816e-09
aF2.4528660341229816e-09
aF2.5550687917467303e-11
aF2.5550687917467303e-11
aF2.5550687917467303e-11
aF2.5550687917467303e-11
aF2.5550687917467303e-11
aF2.5550687917467303e-11
aF2.5550687917467303e-11
aF2.5550687917467303e-11
aF2.5550687917467303e-11
aF2.5550687917467303e-11
aF5.110137581012678e-10
aF5.110137581012678e-10
aF5.110137581012678e-10
aF5.110137581012678e-10
aF5.110137581012678e-10
aF4.9057318396170064e-08
aF4.709480617755762e-06
aF4.9057318396170064e-08
aF4.905731839617006e-08
aF4.905731839617006e-08
aF4.905731839617006e-08
aF4.905731839617006e-08
aF5.110137581012678e-10
aF5.110137581012677e-10
aF5.110137581012678e-10
aF5.323059982913362e-12
aF5.110137581012679e-10
aF5.11013758101268e-10
aF5.11013758101268e-10
aF5.323059982913364e-12
aF5.3230599829133644e-12
aF5.323059982913365e-12
aF5.323059982913365e-12
aF5.323059982913365e-12
aF5.323059982913365e-12
aF5.323059982913365e-12
aF5.323059982913365e-12
aF5.11013758101268e-10
aF5.11013758101268e-10
aF5.11013758101268e-10
aF5.323059982913364e-12
aF5.3230599829133644e-12
aF5.323059982913365e-12
aF2.661529991470141e-13
aF2.7724270744487938e-15
aF2.7724270744487938e-15
aF2.7724270744487938e-15
aF1.3862135372244006e-16
aF1.3862135372244006e-16
aF1.3862135372244006e-16
aF1.4439724346087509e-18
aF1.504137952717449e-20
aF1.5041379527174492e-20
aF1.5041379527174495e-20
aF1.5041379527174495e-20
aF1.5041379527174495e-20
aF1.5041379527174495e-20
aF1.5041379527174495e-20
aF1.5041379527174495e-20
aF1.5668103674140102e-22
aF1.5668103674140102e-22
aF7.83405183707005e-24
aF3.9170259185350255e-25
aF3.917025918535025e-25
aF3.917025918535025e-25
aF3.917025918535025e-25
aF3.917025918535025e-25
aF3.917025918535025e-25
aF3.917025918535025e-25
aF3.917025918535025e-25
aF3.917025918535025e-25
aF3.9170259185350255e-25
aF3.917025918535026e-25
aF3.917025918535026e-25
aF3.917025918535026e-25
aF3.917025918535026e-25
aF3.9170259185350264e-25
aF3.917025918535027e-25
aF7.834051837070054e-24
aF7.834051837070054e-24
aF7.834051837070054e-24
aF7.834051837070054e-24
aF7.834051837070054e-24
aF7.834051837070054e-24
aF7.834051837070054e-24
aF3.9170259185350273e-25
aF1.9585129592675136e-26
aF1.9585129592675136e-26
aF1.9585129592675136e-26
aF1.9585129592675136e-26
aF1.9585129592675136e-26
aF1.9585129592675136e-26
aF9.792564796337568e-28
aF9.792564796337568e-28
aF1.9585129592675138e-26
aF1.9585129592675138e-26
aF1.9585129592675138e-26
aF1.9585129592675138e-26
aF1.9585129592675138e-26
aF9.792564796337568e-28
aF4.896282398168784e-29
aF2.448141199084392e-30
aF5.100294164759151e-31
aF5.100294164759151e-31
aF5.100294164759151e-31
aF5.100294164759151e-31
aF5.100294164759151e-31
aF5.100294164759151e-31
aF2.5501470823795754e-32
aF2.5501470823795754e-32
aF2.5501470823795754e-32
aF2.5501470823795754e-32
aF1.2750735411897877e-33
aF6.375367705948938e-35
aF6.375367705948938e-35
aF6.375367705948938e-35
aF6.375367705948938e-35
aF6.375367705948938e-35
aF3.187683852974469e-36
aF1.5938419264872345e-37
aF1.5938419264872347e-37
aF1.5938419264872347e-37
aF1.5938419264872347e-37
aF1.5938419264872349e-37
aF1.593841926487235e-37
aF7.969209632436175e-39
asg34
g35
sg36
S'[[0.76,0.94,0.84],[0.6350607616350095,0.44193731418454824,0.4944601813719681],[0.44196915579736284,0.48739012597750186,0.6539577224080717],[0.49986326669360165,0.5238061383923177,0.4946362839309166],[0.41639186084838764,0.5341893292036509,0.6023753365528564],[0.4048433010788906,0.571150857163788,0.587864493883475],[0.5520676391689374,0.5140870238061925,0.6708365836916317],[0.5483128630604439,0.5004430633131023,0.4829994747555756],[0.4972513175094254,0.5082275170503829,0.6003182924765808],[0.5494450698681952,0.4833725995364874,0.5269115064676267],[0.47658600176375054,0.5830656588345637,0.43499001390224007],[0.5223517927390151,0.5613902327152582,0.4987240444234999],[0.5223990551316507,0.48427328746037795,0.6435399598085668],[0.3729118671727482,0.4992732683255321,0.6280901002044921],[0.42713613427111197,0.5510821404893786,0.48590072339888135],[0.5553251486214639,0.47237191860206673,0.5646326282645711],[0.447438370447205,0.6010230916927484,0.6106602923462503],[0.4880880487075979,0.5165837703640778,0.49615449332653216],[0.5403434552066467,0.5600420009171374,0.44364928971831724],[0.5397200537753644,0.5863363163904407,0.5075206150300692],[0.6002011596531398,0.5225973948844203,0.43989140268295995],[0.5184801573675896,0.525303424549943,0.4775699330208627],[0.36870232475965203,0.5361192751709192,0.5620899906347441],[0.5671315328178881,0.5710395173870007,0.5941187984009402],[0.48448747275881887,0.5202756296748625,0.4587362303592316],[0.5609698894694508,0.6148554250257149,0.65082687055257],[0.4850618149762046,0.5782990685958899,0.5521490047078378],[0.5310489092281991,0.5698360138909038,0.5537319595550214],[0.46709280387139707,0.4681898875194214,0.5791859799865551],[0.5896031550581167,0.5159121376805715,0.5748330587438528],[0.6085596778385864,0.5603738696624174,0.5278009707633369],[0.3695622895455509,0.48968788296626864,0.6195433834321287],[0.5121094458787947,0.719208518105286,0.6129628564552885],[0.6030314415663288,0.48822156119793797,0.4008695150715427],[0.32129844308758543,0.576210996199263,0.48586006481080374],[0.3793828955548742,0.5400453678577966,0.5536489839957054],[0.46325126663837,0.44375424845118144,0.5403845175020996],[0.548044950288878,0.5612353056835727,0.5544600643318106],[0.4683786287544659,0.628515354854422,0.44348734791984334],[0.5038545197663462,0.6330783807041563,0.5648123675850432],[0.45077418157588783,0.5509480572784854,0.6274116982337457],[0.4702522813241665,0.5649999959219774,0.5154949389279931],[0.5268195694249902,0.5477138988858148,0.5275202375047817],[0.5634481071960664,0.5235235746811113,0.6367278624381745],[0.5044379967264818,0.5086197443231352,0.43343885326915965],[0.3961922838711898,0.6712598575434534,0.6447772220641127],[0.48195579078704165,0.4559092816454255,0.3984155242588774],[0.4686351348739777,0.45793558953598595,0.48319010461548684],[0.3845889715072216,0.5384190422051252,0.5736176885237241],[0.43895169228646924,0.4269537559131093,0.5298932043170211],[0.49201207046659745,0.5359014935567983,0.5378397299651859],[0.42517844936667404,0.5511843116272674,0.539615081192186],[0.5879702315470644,0.492862169827459,0.5819584076142885],[0.3535208362497114,0.502972987167918,0.6062001821135963],[0.5416688251031838,0.572365565555921,0.5539155993883614],[0.48341383666643917,0.5648886537613886,0.5549051579851647],[0.441259583617974,0.5337899505880462,0.587807918299401],[0.4697897217181521,0.6384166992814765,0.4972595075142451],[0.41465436528370897,0.4794480566822698,0.6378673186888529],[0.45904056072312305,0.5311412287826223,0.5465320179177671],[0.3817732200648285,0.5506787090252638,0.7215946350938163],[0.5366644464191263,0.671509652320553,0.44226705312154185],[0.6309579965159079,0.45246667675898394,0.5307150443676167],[0.39221637993021374,0.48360770279129184,0.6694641397507392],[0.471668354124737,0.5454746504808008,0.47810949798111935],[0.5687076479625419,0.5417527086094862,0.46883605065186174],[0.4247959516616405,0.4774801994685996,0.5603763873918804],[0.49397981640918615,0.42328205023814675,0.542455053767547],[0.5520783767154358,0.4199099931626349,0.5089984275897936],[0.4869170739660758,0.5119786200017931,0.48867398461740724],[0.3896033245351861,0.6047255734162477,0.5344496107577323],[0.4985907664174539,0.47561523515541626,0.6245783467801935],[0.458272822952594,0.5804611548386214,0.4974550934762914],[0.44303723195440536,0.542685987129383,0.5248238595382333],[0.41878750739340687,0.5447538419109424,0.5005071786032607],[0.5037474444831547,0.48158839551641525,0.5027528184094302],[0.517380779201505,0.568620266797233,0.5234151097479691],[0.3721918501559833,0.5949907336017396,0.5660701317662898],[0.4429638813642155,0.5813041631855859,0.5656148452771245],[0.5741700865792532,0.6514180042257003,0.43509263115942964],[0.6081725641070077,0.503436091842155,0.5932655186297481],[0.550349899871968,0.5192063306768808,0.5681023035428735],[0.5774529236225899,0.6141788086839314,0.4600172199960803],[0.3068264456109563,0.4983577182320385,0.4716842355036538],[0.4598555475987795,0.5132531241163127,0.5683401313907879],[0.4303231485519282,0.4600335875968072,0.5437904572739344],[0.45002164512250153,0.4399894432898982,0.5298399551234808],[0.4825825858707312,0.53403272323474,0.6621317493955787],[0.456500763841812,0.6815912084502476,0.5226073433369633],[0.4405912418218951,0.5435114737703028,0.5794351826385272],[0.47696809957199493,0.48706466708289237,0.5733240979063902],[0.46520490272953624,0.5746163837230115,0.5652414937463932],[0.5717619068687849,0.5256453883687239,0.43791566311703967],[0.5600352521370693,0.5512526251364267,0.5460733017006114],[0.523640262141542,0.4546341941462536,0.5020610550810984],[0.5803036495513634,0.43832913539876206,0.5613013479013785],[0.4730224649860603,0.5569734817329467,0.6011667046178477],[0.5474790106534615,0.5067981771290297,0.4595442235712393],[0.39273205900051644,0.6135068545771014,0.5779092766066747],[0.47556217748730767,0.5485739838520658,0.34431575421965366],[0.4459242747567824,0.4740407332490655,0.5754677832615019],[0.6077506183474036,0.612202603922381,0.6286601254305271],[0.46809116951712815,0.6521470173124715,0.4601222770940023],[0.44045955076745225,0.42933211588349407,0.541441279795017],[0.5257499406990076,0.41042344886679405,0.4798288368088889],[0.5191682457192593,0.5891827642412576,0.623672990539846],[0.4987157047960614,0.49528420575007415,0.6304993974273383],[0.6028793325941768,0.5625968972161541,0.5244885321975521],[0.5806366829859074,0.49476281288388446,0.6236136075856163],[0.3719291883857884,0.3953747245523861,0.6336591272570861],[0.4367621636525588,0.44265454436485435,0.5417219733535612],[0.40385471027860415,0.5512349977666604,0.6692668134300855],[0.4611880747222486,0.4613566689449328,0.5741524591629207],[0.4774154001335901,0.6677457602742413,0.5599950687423176],[0.39518017043112197,0.49897337653475315,0.5470050979480617],[0.5192393490191065,0.5800362367423473,0.5048858434992824],[0.5028297896980498,0.5197431620916235,0.5827603128186732],[0.5669621519587555,0.519043621552428,0.5890188501225924],[0.5320805424415457,0.5903415089528468,0.5410047565680937],[0.6300209358372569,0.5642500841246203,0.6367447387084004],[0.5755781542790308,0.563350518485163,0.6095070199133878],[0.5023278496645485,0.6192038741557971,0.5655435899686005],[0.35095136813688116,0.479400329424272,0.4708008374983931],[0.47780795177435953,0.5203304672350255,0.48311878710721334],[0.3740995028228048,0.683005346198277,0.5678699038037422],[0.5418126721064901,0.4245974416855306,0.5721192943938478],[0.4329508948097539,0.5088192086941834,0.6046251869980928],[0.5739475956793608,0.6060401489617747,0.4668113778406095],[0.43380330584909554,0.5408513167552614,0.5673386534857076],[0.5298668800697561,0.5079671472728842,0.5263586513764988],[0.5667606807850258,0.6437398112584827,0.5145450650612884],[0.48487387410183674,0.6531620833624844,0.6722760904440095],[0.5421081335739509,0.6279221200163552,0.4058940118938338],[0.48594700682402153,0.5373249062487295,0.5163235019331626],[0.5251475886336741,0.5787975452013698,0.5145064005381137],[0.43053796808627115,0.5649705375962153,0.4987790129555176],[0.5505433237020678,0.4775378911387138,0.649592803784384],[0.4901956738601044,0.5515242414619107,0.5159816933127963],[0.46574156356041907,0.6299410859363189,0.5714236520155261],[0.5545873938086111,0.4665692424961817,0.5790140198342637],[0.5240916714854847,0.5350661835026426,0.5307931145375158],[0.43241826355323776,0.5863316990894948,0.5681036913479158],[0.4518368708712635,0.57396070876327,0.44538254872763094],[0.42680959093471227,0.599665041053385,0.5924959547614688],[0.6149863917386823,0.4790075320103451,0.4488772696075748],[0.5493062301739029,0.5491726167857377,0.47650895101870294],[0.4388432935843687,0.5581271436620792,0.6472706333205444],[0.5485756435959137,0.5016891782353597,0.4710987838429815],[0.40750831200511994,0.5027484157774882,0.49103148544067443],[0.5564436836953345,0.5462995114477716,0.6611511781495611]]'
p97
sg38
g56
sg40
(lp98
F0.25
aF0.0
aF0.0
aF0.0
aF0.0
aF0.0
aF0.0
aF0.0
aF0.0
aF0.0
aF0.0
aF0.0
aF0.0
aF0.0
aF0.0
aF0.0
aF0.0
aF0.0
aF0.0
aF0.0
aF0.0
aF0.0
aF0.0
aF0.0
aF0.0
aF0.0
aF0.0
aF0.0
aF0.0
aF0.0
aF0.0
aF0.0
aF0.0
aF0.0
aF0.0
aF0.0
aF0.0
aF0.0
aF0.0
aF0.0
aF0.0
aF0.0
aF0.0
aF0.0
aF0.0
aF0.0
aF0.0
aF0.0
aF0.0
aF0.0
aF0.0
aF0.0
aF0.0
aF0.0
aF0.0
aF0.0
aF0.0
aF0.0
aF0.0
aF0.0
aF0.0
aF0.0
aF0.0
aF0.0
aF0.0
aF0.0
aF0.0
aF0.0
aF0.0
aF0.0
aF0.0
aF0.0
aF0.0
aF0.0
aF0.0
aF0.0
aF0.0
aF0.0
aF0.0
aF0.0
aF0.0
aF0.0
aF0.0
aF0.0
aF0.0
aF0.0
aF0.0
aF0.0
aF0.0
aF0.0
aF0.0
aF0.0
aF0.0
aF0.0
aF0.0
aF0.0
aF0.0
aF0.0
aF0.0
aF0.0
aF0.0
aF0.0
aF0.0
aF0.0
aF0.0
aF0.0
aF0.0
aF0.0
aF0.0
aF0.0
aF0.0
aF0.0
aF0.0
aF0.0
aF0.0
aF0.0
aF0.0
aF0.0
aF0.0
aF0.0
aF0.0
aF0.0
aF0.0
aF0.0
aF0.0
aF0.0
aF0.0
aF0.0
aF0.0
aF0.0
aF0.0
aF0.0
aF0.0
aF0.0
aF0.0
aF0.0
aF0.0
aF0.0
aF0.0
aF0.0
aF0.0
aF0.0
aF0.0
aF0.0
aF0.0
aF0.0
aF0.0
aF0.0
aF0.0
aF0.0
asg42
(lp99
F0.25
aF0.0
aF0.0
aF0.0
aF0.0
aF0.0
aF0.0
aF0.0
aF0.0
aF0.0
aF0.0
aF0.0
aF0.0
aF0.0
aF0.0
aF0.0
aF0.0
aF0.0
aF0.0
aF0.0
aF0.0
aF0.0
aF0.0
aF0.0
aF0.0
aF0.0
aF0.0
aF0.0
aF0.0
aF0.0
aF0.0
aF0.0
aF0.0
aF0.0
aF0.0
aF0.0
aF0.0
aF0.0
aF0.0
aF0.0
aF0.0
aF0.0
aF0.0
aF0.0
aF0.0
aF0.0
aF0.0
aF0.0
aF0.0
aF0.0
aF0.0
aF0.0
aF0.0
aF0.0
aF0.0
aF0.0
aF0.0
aF0.0
aF0.0
aF0.0
aF0.0
aF0.0
aF0.0
aF0.0
aF0.0
aF0.0
aF0.0
aF0.0
aF0.0
aF0.0
aF0.0
aF0.0
aF0.0
aF0.0
aF0.0
aF0.0
aF0.0
aF0.0
aF0.0
aF0.0
aF0.0
aF0.0
aF0.0
aF0.0
aF0.0
aF0.0
aF0.0
aF0.0
aF0.0
aF0.0
aF0.0
aF0.0
aF0.0
aF0.0
aF0.0
aF0.0
aF0.0
aF0.0
aF0.0
aF0.0
aF0.0
aF0.0
aF0.0
aF0.0
aF0.0
aF0.0
aF0.0
aF0.0
aF0.0
aF0.0
aF0.0
aF0.0
aF0.0
aF0.0
aF0.0
aF0.0
aF0.0
aF0.0
aF0.0
aF0.0
aF0.0
aF0.0
aF0.0
aF0.0
aF0.0
aF0.0
aF0.0
aF0.0
aF0.0
aF0.0
aF0.0
aF0.0
aF0.0
aF0.0
aF0.0
aF0.0
aF0.0
aF0.0
aF0.0
aF0.0
aF0.0
aF0.0
aF0.0
aF0.0
aF0.0
aF0.0
aF0.0
aF0.0
aF0.0
aF0.0
asg44
S'[[0.54,0.42,0.89],[0.403783478959864,0.552879443040483,0.4285987883150807],[0.5740181553898726,0.6308054580603518,0.5380047410444366],[0.3536191538571618,0.5396400218646515,0.646182400220776],[0.4495882235588158,0.5778638963301865,0.5364091668868085],[0.5247310926526678,0.5133116486657217,0.5163037195073737],[0.5115348934053278,0.4383786333761763,0.44830028541026373],[0.3968415452618094,0.48115613682099356,0.5568950916119767],[0.43695015119467684,0.5931375809402659,0.4105350334764989],[0.4887048546083198,0.4520915267643405,0.5006113714826743],[0.49604642426708895,0.39568482714080616,0.6689891030418068],[0.5160590747627027,0.5598470313118004,0.6347568531625207],[0.5001747354351813,0.5456060511472113,0.44821556695105425],[0.5203049338226324,0.515509368961606,0.3791688475098878],[0.49722394161551337,0.5645661530895444,0.5819441210694284],[0.5096569588663078,0.5052608345367985,0.5666732290909909],[0.4637512566115583,0.5765020485745926,0.41249917882327536],[0.5702789668018922,0.5229510889468211,0.5494310758445858],[0.39198572191327646,0.43683603490316053,0.5783664486203499],[0.5696505953342557,0.47692808367008716,0.5310094778513593],[0.4772835837487969,0.45169394629976206,0.568744301929104],[0.5194568965217945,0.5838816266805666,0.5612363504634098],[0.2879724727485876,0.5563459324850555,0.4690852090215098],[0.4899829067699959,0.5056779456662237,0.5726871193364764],[0.4968260497411358,0.5902897107141813,0.5792742602352331],[0.39129839068453115,0.49298148904083705,0.44203254353039173],[0.322575930930508,0.6222288090317105,0.53529764146103],[0.4890185305320993,0.4677695865352717,0.5582270217573648],[0.4325901283350467,0.4405807504009496,0.5778799109289599],[0.46297653717628895,0.4984808527386038,0.5802951401806626],[0.3193215531510812,0.5860521219732445,0.4617606299868794],[0.45227744455996016,0.6445118019147443,0.548113136164153],[0.3928289506549891,0.5075501802892106,0.6042576604622407],[0.372937310189697,0.5775288924716386,0.5810488020053625],[0.4890932646182323,0.5872338286021784,0.4826893365835976],[0.5605871897946033,0.5878108400988638,0.6003023262758],[0.403659275952267,0.5309608375529828,0.5371981674077726],[0.5663121962045901,0.467568160636011,0.4461229864114518],[0.574495815235319,0.48294015238792787,0.53776463219922],[0.42433961634977874,0.4928136660032202,0.5082722392609644],[0.2606823533605701,0.5339802274666279,0.6026406378473573],[0.4346221373743794,0.45351659120996857,0.6774649384941844],[0.4720471797033259,0.5949117627537648,0.5154582727493631],[0.49471406492654085,0.5055456892747268,0.4407557158838709],[0.4033997097227003,0.5023221181945414,0.5274719344778491],[0.4993720134022186,0.5542000790012798,0.5099834103297035],[0.31727949797363053,0.43053875232828503,0.4704081911291615],[0.5474214637879012,0.33462336507167667,0.44849091659435125],[0.4581904482742597,0.7021576712228859,0.5121782138302619],[0.4211909403161651,0.42076231673840275,0.5616438329729734],[0.4931663061567849,0.45823739708652733,0.6623911095674416],[0.5574317750250454,0.5393579350093833,0.6122205011542473],[0.46589596635116887,0.5501390571729823,0.5726995441820625],[0.568042860856073,0.4848277194895564,0.41631101039807356],[0.6367359457438054,0.39323574994115706,0.5952773422085709],[0.4206814365069132,0.6834193292545073,0.34294882503533675],[0.6062104423607297,0.6101582079459488,0.4160706568623773],[0.4574307521717347,0.6221647526639129,0.5724127983937224],[0.5784519081473033,0.47733521604660706,0.4702437310508304],[0.4504236794254058,0.5432687891046726,0.5080250128010795],[0.4474067643333067,0.48300327887986516,0.5203218814371979],[0.3636616973196676,0.6516446539940806,0.5571532591354739],[0.49947906065199754,0.4458811613383566,0.5111548292714375],[0.4525365403235302,0.41918773898950806,0.5125388212799837],[0.43603249673353545,0.48838112388680166,0.6019944841784268],[0.4522090496277011,0.4895762965932489,0.4292292103828433],[0.3574962007954656,0.4728971843707611,0.5996273186402983],[0.4101932513351615,0.538519444926332,0.5490027535984638],[0.3724997546664389,0.5872384839731215,0.6202477769873532],[0.502688927238017,0.5321764660804363,0.4952930325514794],[0.33183264514948957,0.5478187835131317,0.5241514909030203],[0.5295486121765267,0.5132435196253056,0.48298675697215865],[0.4830623453332327,0.6200979343801853,0.5838430108842713],[0.448475379542632,0.4477416307671332,0.5061132586463751],[0.4902505844390535,0.43821655286027783,0.3998342775331022],[0.44234534346743254,0.5806329520780228,0.4438173604815609],[0.5694089311560029,0.5290929056403352,0.3946440971036663],[0.44552452596408304,0.5606635282115534,0.5383976331921068],[0.5871727644912121,0.5301312971877887,0.5516928872981696],[0.3613837144515542,0.607604003878277,0.5031729456623704],[0.5451764456084545,0.48117198229037017,0.46088399060580565],[0.31324313512978674,0.5672441171026573,0.5105265168375743],[0.5516261802850649,0.5241551548406513,0.5242090418631395],[0.4269640625111427,0.554799111832052,0.6341368042650102],[0.43815716655909653,0.44701125977382317,0.4751018207609432],[0.5923421924423192,0.6587907926771105,0.5310047084257132],[0.5508407198905394,0.6169615435785492,0.5977039545460429],[0.40305532134830047,0.41775979801011376,0.4740104731095764],[0.5714166106303366,0.6356146068557422,0.4985623698538008],[0.4460323997818598,0.4708667027519904,0.5647097009036038],[0.4427195642881733,0.5075604409194407,0.5095409629982202],[0.39621308152421164,0.4896657857455561,0.3884477771387593],[0.4578981670618768,0.5440077865219054,0.4556022917273057],[0.38682238716187023,0.5188671109909839,0.4788609544603224],[0.44837145018803026,0.48952859789195796,0.41918960590850673],[0.4535139075506452,0.6789687254695665,0.4452862642924642],[0.5091002419257863,0.45552835886537285,0.6232580201536086],[0.5437893317881278,0.4682072705402523,0.4766629816977163],[0.5741706055716331,0.42013388488406084,0.5876826059539101],[0.5413274446876317,0.5842919805114006,0.4770424245165463],[0.3582028779178001,0.5842438754339166,0.44328077687371453],[0.5177126411190179,0.509285040077396,0.6240002289406783],[0.5481717042689981,0.6639616086608939,0.4892065123579238],[0.476079906162136,0.48027122888360363,0.6457355204147719],[0.44458011296882194,0.4749106297920764,0.520715082696272],[0.48956737880253626,0.4950601626052105,0.490175111096341],[0.4642784060345595,0.4737359115853259,0.4418753224531944],[0.4009353304984889,0.5097800077115696,0.4129332979039523],[0.477437973313872,0.5081627080955387,0.6812897401488993],[0.5534110328782046,0.5919691250489649,0.5628084821197495],[0.42811896101669394,0.48315837326098415,0.4999625467409118],[0.43550896223165675,0.4263309379761682,0.439940823611307],[0.4367038318975096,0.4741343403486282,0.5152546983830268],[0.4815327180320992,0.5382991468163267,0.4535123386305086],[0.5625083475409742,0.501688288489298,0.5133048475647005],[0.48610677439821615,0.47276078588671505,0.4649700396518045],[0.5032361693308667,0.49994831891710695,0.544001875954992],[0.48274802574834774,0.6282370289102925,0.43536665152571974],[0.5095834549758814,0.571041724763439,0.5514878206138671],[0.5956879245143986,0.5415590057574222,0.5953706868776989],[0.5019920051804061,0.5670243058242778,0.5218901838485863],[0.39591858094715854,0.4669252451172297,0.616352790676726],[0.4433620323208284,0.42990280282913035,0.45042775584931344],[0.522696438728937,0.547711718875272,0.5115168150092818],[0.40226991116320254,0.5287651687727533,0.5202496443624408],[0.386273925512817,0.4577599069128054,0.5750097759627344],[0.5963524728333264,0.5826895376305701,0.3967216084975241],[0.6306930210046623,0.458905684384185,0.48504622646865503],[0.577160313078122,0.5840884220291905,0.5064242444286987],[0.4130412126168479,0.5991813989189585,0.486051165613652],[0.4455203436237406,0.5698135464124028,0.5576561278877927],[0.5154253495336606,0.6089800609360101,0.4617357121323419],[0.5641425939757988,0.3809779504471676,0.544304760879095],[0.36530729820730606,0.45194284161594755,0.4963154228169232],[0.4098587104769118,0.5035521405799155,0.3562021358821105],[0.4033502502476316,0.5284318096870637,0.6333123534671697],[0.4719041849268151,0.57335583650869,0.4799073121916579],[0.5161171904743537,0.6530950091634,0.47574941791932757],[0.35980268827235706,0.5269870492641846,0.5216800515458506],[0.46820153500139916,0.5917386693635074,0.46046684610298766],[0.42176277911258364,0.4497157947556599,0.5489388462718562],[0.3888540700619668,0.4751614129271421,0.6140668246970533],[0.4776631733972588,0.488309875451549,0.5019177279954339],[0.45425852118477045,0.5397632095308975,0.528395742517803],[0.40475690870813397,0.5445701425673559,0.5727747413215469],[0.5382844398111327,0.5393560030623312,0.6552559833822229],[0.4591465256779633,0.5473209874533562,0.6075248379362603],[0.48282336700790357,0.568405865126553,0.4709980767206189],[0.6093600275615635,0.5705389388631883,0.548964089569054],[0.5390340374590632,0.5065200180150847,0.5699802765054699]]'
p100
sg46
S'[[0.7,0.94,0.31]]'
p101
sg48
(lp102
F0.151
aF0.8
aF0.887
asg50
S'[[0.91,0.67,0.9]]'
p103
sg52
(lp104
F0.25
aF0.5
aF0.010309278350515465
aF0.010309278350515465
aF0.010309278350515465
aF0.010309278350515465
aF0.010309278350515465
aF0.5
aF0.5
aF0.5
aF0.9896907216494846
aF0.9896907216494846
aF0.9998915048280351
aF0.9896907216494845
aF0.9998915048280352
aF0.9999988697206061
aF0.9999988697206063
aF0.999999988226243
aF0.9999999882262431
aF0.9999999882262433
aF0.9999999882262433
aF0.9999999975471339
aF0.999999997547134
aF0.999999997547134
aF0.9999999999744493
aF0.9999999999744493
aF0.9999999999744493
aF0.9999999999744493
aF0.9999999999744493
aF0.9999999999744493
aF0.9999999999744493
aF0.9999999999744493
aF0.9999999999744493
aF0.9999999999744493
aF0.9999999994889862
aF0.9999999994889862
aF0.9999999994889862
aF0.9999999994889862
aF0.9999999994889862
aF0.9999999509426817
aF0.9999952905193823
aF0.9999999509426817
aF0.9999999509426816
aF0.9999999509426816
aF0.9999999509426816
aF0.9999999509426816
aF0.9999999994889863
aF0.9999999994889861
aF0.9999999994889862
aF0.9999999999946768
aF0.9999999994889861
aF0.9999999994889862
aF0.9999999994889862
aF0.9999999999946768
aF0.9999999999946768
aF0.999999999994677
aF0.999999999994677
aF0.999999999994677
aF0.999999999994677
aF0.999999999994677
aF0.999999999994677
aF0.9999999994889862
aF0.9999999994889862
aF0.9999999994889862
aF0.9999999999946768
aF0.9999999999946768
aF0.999999999994677
aF0.9999999999997339
aF0.9999999999999972
aF0.9999999999999972
aF0.9999999999999972
aF0.9999999999999999
aF0.9999999999999999
aF0.9999999999999999
aF0.9999999999999999
aF0.9999999999999999
aF1.0
aF1.0
aF1.0
aF1.0
aF1.0
aF1.0
aF1.0
aF1.0
aF1.0
aF1.0
aF1.0
aF1.0
aF1.0
aF1.0
aF1.0
aF1.0
aF1.0
aF1.0
aF1.0
aF1.0
aF1.0
aF1.0
aF1.0
aF1.0
aF1.0
aF1.0
aF1.0
aF1.0
aF1.0
aF1.0
aF1.0
aF1.0
aF1.0
aF1.0
aF1.0
aF1.0
aF1.0
aF1.0
aF1.0
aF1.0
aF1.0
aF1.0
aF1.0
aF1.0
aF1.0
aF1.0
aF1.0
aF1.0
aF1.0
aF1.0
aF1.0
aF1.0
aF1.0
aF1.0
aF1.0
aF1.0
aF1.0
aF1.0
aF1.0
aF1.0
aF1.0
aF1.0
aF1.0
aF1.0
aF1.0
aF1.0
aF1.0
aF1.0
aF1.0
aF1.0
aF1.0
aF1.0
aF1.0
aF1.0
assI6
(dp105
g32
(lp106
F0.25
aF0.9896907216494846
aF0.9896907216494846
aF0.5
aF0.5
aF0.9896907216494846
aF0.9896907216494846
aF0.9998915048280351
aF0.9998915048280352
aF0.9999945746822119
aF0.9999999434859695
aF0.9999999434859695
aF0.9999999994113122
aF0.9999999434859697
aF0.9999999434859697
aF0.9999999434859697
aF0.9999999434859697
aF0.9999999434859697
aF0.9999999971742984
aF0.999999986436632
aF0.9999999993218317
aF0.9999999999660917
aF0.9999999999996467
aF0.9999999999999825
aF0.9999999999999823
aF0.9999999999999991
aF0.9999999999999991
aF0.9999999999999999
aF0.9999999999999999
aF0.9999999999999999
aF1.0
aF0.9999999999999959
aF0.9999999999999998
aF1.0
aF1.0
aF1.0
aF1.0
aF1.0
aF1.0
aF1.0
aF1.0
aF1.0
aF1.0
aF1.0
aF1.0
aF1.0
aF1.0
aF1.0
aF1.0
aF1.0
aF1.0
aF1.0
aF1.0
aF1.0
aF1.0
aF1.0
aF1.0
aF1.0
aF1.0
aF1.0
aF1.0
aF1.0
aF1.0
aF1.0
aF1.0
aF1.0
aF1.0
aF1.0
aF1.0
aF1.0
aF1.0
aF1.0
aF1.0
aF1.0
aF1.0
aF1.0
aF1.0
aF1.0
aF1.0
aF1.0
aF1.0
aF1.0
aF1.0
aF1.0
aF1.0
aF1.0
aF1.0
aF1.0
aF1.0
aF1.0
aF1.0
aF1.0
aF1.0
aF1.0
aF1.0
aF1.0
aF1.0
aF1.0
aF1.0
aF1.0
aF1.0
aF1.0
aF1.0
aF1.0
aF1.0
aF1.0
aF1.0
aF1.0
aF1.0
aF1.0
aF1.0
aF1.0
aF1.0
aF1.0
aF1.0
aF1.0
aF1.0
aF1.0
aF1.0
aF1.0
aF1.0
aF1.0
aF1.0
aF1.0
aF1.0
aF1.0
aF1.0
aF1.0
aF1.0
aF1.0
aF1.0
aF1.0
aF1.0
aF1.0
aF1.0
aF1.0
aF1.0
aF1.0
aF1.0
aF1.0
aF1.0
aF1.0
aF1.0
aF1.0
aF1.0
aF1.0
aF1.0
aF1.0
aF1.0
aF1.0
asg34
g56
sg36
S'[[0.17,0.51,0.16],[0.42792196955171347,0.4214442904561981,0.3548212112679354],[0.22558929717021461,0.2114511981396845,0.27329392867045543],[0.22760969166432776,0.26377899249390363,0.2904348835632753],[0.3115008322911292,0.3001976856113358,0.23323872017965583],[0.31338247531574503,0.3890238049497723,0.2161135514429496],[0.31429995506516617,0.33170205455825164,0.4025917102643971],[0.3323222790561186,0.30207397445906353,0.3690275086745178],[0.11565784915517816,0.4397311273371507,0.34437059743739207],[0.17211464183918673,0.35731701730375054,0.29340718956098305],[0.24909561212862733,0.3270942354941463,0.37422640731130674],[0.25121500055674445,0.26400068820846184,0.38373385546759275],[0.38690549388649903,0.21915141349133632,0.3476249882571105],[0.13378905739200284,0.2634380075891723,0.29864280877655996],[0.22875742199851165,0.2305332518639868,0.23276157471966616],[0.4405959542273665,0.20027242646209364,0.3859477019982992],[0.16552926089798367,0.24954498281893306,0.29557041746248164],[0.29244394845493643,0.20468455391068424,0.35872345590738136],[0.21630699900768321,0.39547151179287293,0.20336582037506154],[0.21026446735940038,0.3533961533932642,0.36234747756292973],[0.2774248680700242,0.2781109177135826,0.3008624641883747],[0.1575830640744891,0.46185398588975535,0.3127850483040746],[0.19588660813290937,0.38146213727520667,0.3694404389404834],[0.4561688586167394,0.33796766625822544,0.44956533383894975],[0.31147729451709927,0.22791348124219707,0.33280263331143006],[0.29185285649366455,0.2644308136627771,0.2515463932497522],[0.2220165512753592,0.2878789037996851,0.28193896164744625],[0.06873006017788202,0.3565729621781573,0.24431474949080725],[0.27487170924909526,0.31025581574467487,0.3187968245407061],[0.1823638117570049,0.3455937872697919,0.43252889693818686],[0.2005687177748599,0.2773762373969363,0.2635197222173775],[0.23259517587705783,0.3170882209245922,0.2717857086563021],[0.1784206757349342,0.3179012296045737,0.2855080904977253],[0.1946132463930209,0.3019027865013889,0.284323305132817],[0.1764177923544849,0.3173531592602812,0.4659225379050406],[0.22334449631849734,0.1698360966986995,0.257099610839571],[0.2140445038079705,0.23970325870006945,0.39952970786906666],[0.10107075030029784,0.3118787151154934,0.24118491580698742],[0.12099787390119492,0.2865595828197778,0.29457141445690455],[0.3486642366576879,0.21309504275094365,0.40715232522396605],[0.29885593402170707,0.41961521235032606,0.19810030439232001],[0.4081407425670198,0.26426086868804755,0.30665432810566906],[0.2617103604595639,0.315829806956835,0.33504946863983187],[0.3226352922804962,0.41022974386829913,0.4254974587125995],[0.1350284670846636,0.40422735115233843,0.26859893224076775],[0.2223355323681367,0.3387030989742619,0.27897802318499976],[0.18879074245061686,0.38718316506872397,0.4507732018237188],[0.3196575715204842,0.2589191950422691,0.2854882257847936],[0.23436245974689135,0.40844065930387713,0.3026094168917808],[0.3295702940568045,0.24074983852400833,0.313421984060687],[0.24479702091742772,0.30470379497923905,0.24250293302027365],[0.21943216928643666,0.308497164111568,0.2540942849803925],[0.13879009440636167,0.23553940233491738,0.3264359755180126],[0.23137288757106175,0.3387404948378743,0.2616706269535113],[0.10731767543138519,0.2911596298199377,0.2243237431025987],[0.37871017021583336,0.2964623351377179,0.2453202174474439],[0.16031463089366013,0.3551402711170085,0.28799683499091827],[0.23039496905722592,0.37552501029074037,0.1984240604435844],[0.4224093092492332,0.24515951550772913,0.302072761393946],[0.5188635663484131,0.4263614891378048,0.27309582689291356],[0.15199696517392167,0.3165998161925504,0.2552266296663818],[0.18518313238490428,0.2969444106742765,0.2804007145355517],[0.31749638509198,0.3501532730492709,0.3925567867538827],[0.3103741048060909,0.25104046556087184,0.17433633065263282],[0.1880596930500245,0.2785139874769939,0.3318204851640851],[0.2302393464452467,0.39597496337636706,0.34518125463874816],[0.24975512572772957,0.22706133914017101,0.23357508381572806],[0.28700483587397435,0.33023583674111584,0.39644980254694395],[0.2246420357892008,0.29439035689930965,0.43425782864031187],[0.1681769483770021,0.3511174148718222,0.3046111660266124],[0.19119959288867586,0.30297455977431537,0.3404287335850245],[0.321575362920981,0.2850945859546673,0.174306505470859],[0.291484291888373,0.3325796092689667,0.16627980038815776],[0.11028847498713631,0.4650097294922908,0.333528669509339],[0.1432147639711084,0.42458679480490147,0.2914290272354949],[0.19344696875698048,0.2296430982578932,0.3066754022703001],[0.17025459237018986,0.3396882184435651,0.33989865084296034],[0.20615285082467433,0.33031023121886893,0.38525902406187446],[0.31865894223843233,0.328222727559612,0.22045129760328433],[0.2112723780699263,0.3463941876688748,0.3184827598365342],[0.29086358015975455,0.35898819683634803,0.46633594635165104],[0.2850683917968431,0.28014061214345115,0.31762804953933704],[0.27618164354898367,0.3574167346382109,0.23186615842019115],[0.330840687879716,0.3695947260212019,0.3548413374938715],[0.29718854986337484,0.23761816691369747,0.29893658521682964],[0.21165270899717886,0.22102569534476868,0.3317243915522953],[0.3426666512146216,0.3594394335207719,0.3005654582752989],[0.2782946187773444,0.4280174690900237,0.28499872987406805],[0.2880294226399428,0.23296301546210904,0.28171167041189216],[0.23400344281513202,0.23597109530728982,0.3412389225717702],[0.14837753525415084,0.2535748685698157,0.2538196122433013],[0.4381203192000295,0.24401820264268972,0.28285771588834197],[0.5220462018949983,0.3604303853396252,0.3807600306212926],[0.1928694927725494,0.3746035603914353,0.20986750710412921],[0.21920502962359115,0.33429290427254554,0.31498451800819804],[0.1556959345101689,0.4473271069223205,0.3763922238607883],[0.2946134270291906,0.3611719276658306,0.24482637034243598],[0.16260438113951103,0.32411915082405124,0.3265812803032083],[0.29671939370030437,0.32084977360387945,0.3176123262767424],[0.12587470612212076,0.3380893761754186,0.42844396275800234],[0.17056882703711676,0.23600891566802193,0.2426203102998059],[0.38118676983183863,0.290427001503078,0.24143188203313168],[0.16945261195420755,0.3851295164479701,0.3638897887519172],[0.32153224884163834,0.25000721466620673,0.31058232572546896],[0.17149362752852296,0.20102183408340304,0.36882775603740664],[0.16516866293425805,0.2938682034138122,0.31825251048258735],[0.12500797135095468,0.28186720012427247,0.2640086324554952],[0.29800376684154006,0.2934121575470666,0.24848372664196505],[0.21501891311885676,0.26413087328261775,0.3500564449129468],[0.20775096925364817,0.2594908145819289,0.30474206275311416],[0.21076360175825215,0.2374180033946666,0.25629136898620464],[0.21390214460959228,0.22797924563909291,0.44165375495653675],[0.16377772058193635,0.30256868784014423,0.23943624130946617],[0.17137976198739654,0.3823068295932819,0.25038714426480024],[0.2798228421372443,0.3475469322709697,0.22658257189848485],[0.19838160536085164,0.3408711705934245,0.39106052001941205],[0.14364830409714366,0.2854385345698208,0.49496560864398303],[0.2405567989446781,0.25141589361495986,0.24597416378898207],[0.3067094717148341,0.34681317505164444,0.32291151093523396],[0.05191114810665466,0.25387724207388346,0.25740241354225024],[0.3841793659515226,0.3009586442554095,0.3734585702001663],[0.24261218675888366,0.37878566143825565,0.25445925366746797],[0.25777477201074067,0.2502189253547615,0.22409923708802051],[0.22785291651074724,0.259124729119663,0.33711029929900915],[0.15722982211833236,0.2996489401333154,0.29961118215939553],[0.32911918611277374,0.42420549904871363,0.36561337951251777],[0.2634373004273135,0.36055894893597995,0.3105831229701326],[0.2240395488377977,0.25027303123270384,0.2442395169783707],[0.22911434039943526,0.22766858372051382,0.38152823799142144],[0.3104862928835138,0.4252430314343372,0.17709637973648068],[0.30664467892479774,0.20263128709627382,0.37787939455346137],[0.23185912973562656,0.33340536587381303,0.3266844774690126],[0.11153375516411715,0.24344124177651896,0.258820998188327],[0.29084101771455007,0.27046338822716753,0.2684321050088966],[0.191607626367771,0.3250949435636069,0.2977131211701563],[0.23598865701136945,0.25973139568488524,0.34235862603661793],[0.33415314556932996,0.26571324498127064,0.2707976450045816],[0.18885850611277866,0.3074340704348323,0.22288983652183508],[0.18312476853191811,0.25423836186917115,0.3424166224644327],[0.2341577983329149,0.27515578470735785,0.26967612397182505],[0.26326696982155473,0.31518285369158,0.31898894879149653],[0.26744016132674264,0.4627163381522868,0.41875500509961305],[0.16098279880929817,0.2741927935270917,0.4649360636998872],[0.2260391879773807,0.35550040750985284,0.29190783024874956],[0.11945861731423708,0.29737233946705244,0.23116236754351355],[0.20493180447500783,0.23900167819118204,0.2652512367714282],[0.18430198489764701,0.2012473846269444,0.3085466094123708],[0.19984378636458094,0.3241412912329057,0.25182337205299216],[0.25184810398364205,0.3737115555064536,0.2323435416708511],[0.1331865952509353,0.32990862033969304,0.33094539449668414]]'
p107
sg38
g56
sg40
(lp108
F0.25
aF0.0
aF0.0
aF0.0
aF0.0
aF0.0
aF0.0
aF0.0
aF0.0
aF0.0
aF0.0
aF0.0
aF0.0
aF0.0
aF0.0
aF0.0
aF0.0
aF0.0
aF0.0
aF0.0
aF0.0
aF0.0
aF0.0
aF0.0
aF0.0
aF0.0
aF0.0
aF0.0
aF0.0
aF0.0
aF0.0
aF0.0
aF0.0
aF0.0
aF0.0
aF0.0
aF0.0
aF0.0
aF0.0
aF0.0
aF0.0
aF0.0
aF0.0
aF0.0
aF0.0
aF0.0
aF0.0
aF0.0
aF0.0
aF0.0
aF0.0
aF0.0
aF0.0
aF0.0
aF0.0
aF0.0
aF0.0
aF0.0
aF0.0
aF0.0
aF0.0
aF0.0
aF0.0
aF0.0
aF0.0
aF0.0
aF0.0
aF0.0
aF0.0
aF0.0
aF0.0
aF0.0
aF0.0
aF0.0
aF0.0
aF0.0
aF0.0
aF0.0
aF0.0
aF0.0
aF0.0
aF0.0
aF0.0
aF0.0
aF0.0
aF0.0
aF0.0
aF0.0
aF0.0
aF0.0
aF0.0
aF0.0
aF0.0
aF0.0
aF0.0
aF0.0
aF0.0
aF0.0
aF0.0
aF0.0
aF0.0
aF0.0
aF0.0
aF0.0
aF0.0
aF0.0
aF0.0
aF0.0
aF0.0
aF0.0
aF0.0
aF0.0
aF0.0
aF0.0
aF0.0
aF0.0
aF0.0
aF0.0
aF0.0
aF0.0
aF0.0
aF0.0
aF0.0
aF0.0
aF0.0
aF0.0
aF0.0
aF0.0
aF0.0
aF0.0
aF0.0
aF0.0
aF0.0
aF0.0
aF0.0
aF0.0
aF0.0
aF0.0
aF0.0
aF0.0
aF0.0
aF0.0
aF0.0
aF0.0
aF0.0
aF0.0
aF0.0
aF0.0
aF0.0
aF0.0
asg42
(lp109
F0.25
aF0.0
aF0.0
aF0.0
aF0.0
aF0.0
aF0.0
aF0.0
aF0.0
aF0.0
aF0.0
aF0.0
aF0.0
aF0.0
aF0.0
aF0.0
aF0.0
aF0.0
aF0.0
aF0.0
aF0.0
aF0.0
aF0.0
aF0.0
aF0.0
aF0.0
aF0.0
aF0.0
aF0.0
aF0.0
aF0.0
aF0.0
aF0.0
aF0.0
aF0.0
aF0.0
aF0.0
aF0.0
aF0.0
aF0.0
aF0.0
aF0.0
aF0.0
aF0.0
aF0.0
aF0.0
aF0.0
aF0.0
aF0.0
aF0.0
aF0.0
aF0.0
aF0.0
aF0.0
aF0.0
aF0.0
aF0.0
aF0.0
aF0.0
aF0.0
aF0.0
aF0.0
aF0.0
aF0.0
aF0.0
aF0.0
aF0.0
aF0.0
aF0.0
aF0.0
aF0.0
aF0.0
aF0.0
aF0.0
aF0.0
aF0.0
aF0.0
aF0.0
aF0.0
aF0.0
aF0.0
aF0.0
aF0.0
aF0.0
aF0.0
aF0.0
aF0.0
aF0.0
aF0.0
aF0.0
aF0.0
aF0.0
aF0.0
aF0.0
aF0.0
aF0.0
aF0.0
aF0.0
aF0.0
aF0.0
aF0.0
aF0.0
aF0.0
aF0.0
aF0.0
aF0.0
aF0.0
aF0.0
aF0.0
aF0.0
aF0.0
aF0.0
aF0.0
aF0.0
aF0.0
aF0.0
aF0.0
aF0.0
aF0.0
aF0.0
aF0.0
aF0.0
aF0.0
aF0.0
aF0.0
aF0.0
aF0.0
aF0.0
aF0.0
aF0.0
aF0.0
aF0.0
aF0.0
aF0.0
aF0.0
aF0.0
aF0.0
aF0.0
aF0.0
aF0.0
aF0.0
aF0.0
aF0.0
aF0.0
aF0.0
aF0.0
aF0.0
aF0.0
aF0.0
aF0.0
asg44
S'[[0.94,0.22,0.48],[0.1798082258590326,0.3201478435840194,0.3128758497614355],[0.16387790722268214,0.24482871775608633,0.2988980873499677],[0.20874182605360242,0.3897394713463558,0.2938592386312022],[0.1861542158668472,0.2944409203130409,0.27789543944498313],[0.2905582193113191,0.281650537082227,0.22228783158798784],[0.2350853510525826,0.2370013651952986,0.2930563062079305],[0.19202455238564625,0.3259943943243869,0.23869678405340547],[0.3388811854849687,0.33158024182985796,0.418482083401567],[0.37511016417454246,0.23189757506678363,0.25583408354021575],[0.22165673351216358,0.3342171199599338,0.3611386537276321],[0.2515705289495054,0.3740873915918026,0.28531932336255583],[0.2078999589267787,0.29461150449232015,0.2592291285437889],[0.3527247616123754,0.29050886615649657,0.4336055858547717],[0.21755035970556272,0.33101416843042863,0.19922012191867072],[0.2219818883351219,0.3555793711644939,0.3134487768682261],[0.3368756600229077,0.2578260060243214,0.6261585926447394],[0.4192345678164884,0.22849549868003294,0.35883291356357294],[0.27691416747375,0.26016032108820286,0.24428168660185579],[0.18163932379883013,0.22402542412720736,0.3422897503108989],[0.19852878744522565,0.32384870737906274,0.24493773664676505],[0.19315211737194543,0.3145987400214547,0.29197966148033005],[0.19557624377654867,0.26457046091579,0.3606968589506552],[0.262654856654011,0.37326141307784655,0.29441203778042113],[0.20128862816955798,0.3766238985333044,0.3673516121380924],[0.2377515658360514,0.2681022740567206,0.20002233265879296],[0.25711466363468516,0.31854328570495327,0.42440817344521137],[0.13116044072596772,0.4535112137353917,0.3780070522124736],[0.19309794523996787,0.38545863832933625,0.4122447565735884],[0.3560561440631948,0.38645309479870243,0.2973337050620995],[0.23690745109061995,0.2508222845846507,0.33322353623490797],[0.39192537327144433,0.3495116235459756,0.37413591724109396],[0.14077672974715147,0.2832046319105759,0.34837856618057667],[0.32221252583553284,0.30269057825521495,0.38568727625266375],[0.2599504554561277,0.27721115053827583,0.2062538375790411],[0.2914253493373168,0.30221361053208956,0.22423635223080834],[0.14517419246570956,0.25967936413862613,0.27359242012311713],[0.15682927763974458,0.21229236484444364,0.225330974540677],[0.19991193345216438,0.3746336716470748,0.3076999482920226],[0.33009117613196304,0.2023086269516078,0.25659527773507096],[0.15294241586486523,0.27098583477712973,0.27968183144550707],[0.3572921951398091,0.2580890059755061,0.3193938313892956],[0.16303541403589855,0.3306348934386106,0.3000211611637177],[0.21586072235554302,0.3361811569391186,0.3043233063240907],[0.2619973141491426,0.3505998547720261,0.31196592780930676],[0.29478227350739705,0.24458799923898283,0.29604315805101866],[0.3025377049220147,0.35910712985871024,0.3833332389571309],[0.35311602226870326,0.28876614772705556,0.40517682271901573],[0.36896822922255035,0.36051699329381937,0.45249608735194274],[0.4004198241945375,0.2879465669976218,0.5615690414550045],[0.22215197728042596,0.3390414282142951,0.2902579670678923],[0.18244180108456715,0.348291900982409,0.2770102659419777],[0.21704774511948471,0.36360532590232636,0.23697235207906645],[0.14887175067522282,0.39259799810424834,0.31214560424281534],[0.17290190639275937,0.3982352401312957,0.3299101233024775],[0.15475398153590705,0.38496624362924714,0.2660112412059742],[0.23390191621874673,0.46644030665397845,0.22813704079384048],[0.18932147126264834,0.33996236450708667,0.4808465224702719],[0.3933862919864941,0.32790413846907007,0.4851730623553824],[0.300446694371306,0.3304693841183511,0.30717966412990355],[0.14515394084255223,0.2767251509676314,0.24084080274466038],[0.16408105206920304,0.27715912806293763,0.36109753685114915],[0.23707255270676195,0.2624051173420142,0.2857434498545621],[0.344382790335937,0.4129560076242028,0.30223657267943616],[0.1974735791092133,0.2482554683761772,0.30385715143726627],[0.27916100407173317,0.2624272591912097,0.24812066396608096],[0.22659243894908082,0.26302638418801705,0.3322625152935418],[0.27450345677050525,0.2666830648451162,0.38860407856433293],[0.15935992246187403,0.30290249303959793,0.27654896979784016],[0.330962382525527,0.3351360314014716,0.44373474424249937],[0.29574533563645106,0.2315410473943321,0.20097546854935647],[0.29045385827049697,0.3709958490268928,0.4335546184519429],[0.21946838112232778,0.3376936136027549,0.3418439790668531],[0.15042045364549833,0.23756690865173344,0.26533243078402685],[0.3522366021336715,0.3446964132306847,0.33399786149520894],[0.2028590170608772,0.2744870724626912,0.3997658030551085],[0.2871489377382033,0.28206320674492424,0.21171514121638818],[0.1342574160191829,0.4259051883376831,0.21967216306278797],[0.42963760359921555,0.35196847756777583,0.3434019528951437],[0.21774615793857915,0.2309137219367842,0.19963656232880192],[0.44725674805079807,0.33532361890554274,0.33804938702349513],[0.1832043845029952,0.3096328276811919,0.22602809533012377],[0.14433799929948712,0.3409253072071099,0.3176304221126963],[0.17010304578747446,0.2504987032308262,0.29673834353786904],[0.3731609192575143,0.3006580996264886,0.31242604269371554],[0.29500142691617987,0.29659502940570254,0.35969665761793657],[0.2041909823781644,0.2736610123559998,0.3378789708901241],[0.3238352617238759,0.423461173971505,0.25457996557987833],[0.12876185286040892,0.3090733015127031,0.3303852220127904],[0.2729163393887558,0.38498212556552475,0.19381322806302426],[0.13267539851085425,0.20978992149718995,0.33134328577960237],[0.25138628241712546,0.4177983489463394,0.37215347170932345],[0.13689329953461157,0.24006245648723606,0.27032285459449873],[0.2743905930017769,0.3578760225973347,0.27577117602218093],[0.19748373001275055,0.2953413364684626,0.2192746383948057],[0.2718267610729539,0.4736908951489564,0.3097513904416682],[0.3547430512478906,0.37887655925430713,0.28999836007006646],[0.2986339431086741,0.22336341737372495,0.3913347903007156],[0.1758665899706545,0.3506739476730463,0.36447913850241487],[0.2806972757640399,0.21139325124744998,0.27251470592783705],[0.2280991805958657,0.3536347247121968,0.33677598707757217],[0.3567876140851475,0.3825045154950985,0.3739980483496343],[0.2850999360638578,0.3101485633736401,0.46214756740387947],[0.29813137975606707,0.28892448519092284,0.23803828817030084],[0.19870647171255926,0.21768760396413178,0.21944295745536174],[0.37053881164751445,0.33911371144583313,0.4071685763869593],[0.24052148012510965,0.38173384473823974,0.30409217189464893],[0.18456071890095718,0.29116323357815477,0.2879458989747124],[0.16588388348946326,0.35151372508952894,0.3214998455034316],[0.1831338175863294,0.25869779586999225,0.3184508067473385],[0.21667944560534194,0.2760190333194155,0.447614495806694],[0.3150851276064029,0.24305511458640644,0.23948499905842277],[0.3035256218984575,0.3268419629458004,0.22426312208474025],[0.28374317802418864,0.3207453789097312,0.3125338333918428],[0.25053483004315574,0.3373471678628524,0.4993225942041818],[0.20666663938526622,0.37466577890126157,0.3201478036833514],[0.1929881108556652,0.4120778537066139,0.3242653215963279],[0.2928292602515413,0.35868416192863584,0.258278083564335],[0.14071662545761393,0.31988042288426943,0.41915427320830867],[0.32159913585165656,0.2546750600162978,0.31645717604298274],[0.1941522837268463,0.3443966626365822,0.3357375031779443],[0.3199221685146088,0.34969369613674406,0.309480584677904],[0.1785992360393599,0.17363860587862828,0.24145138185878254],[0.1351046442659784,0.3352873633316973,0.27718124743768724],[0.2714206600622724,0.5036395203643673,0.222696274998775],[0.29132566974751395,0.2543717022533736,0.2880379743682473],[0.2841419487830181,0.37670688566399,0.2317377295115565],[0.2124623394082461,0.22674758401363854,0.32992525224238084],[0.1816679462645124,0.28068110571829286,0.3456138385153412],[0.22928045809089453,0.25802673903971796,0.34621550490235464],[0.2832456431917393,0.2787585074938829,0.2235219886177386],[0.30720949615738086,0.2595781991463937,0.3019021179624558],[0.20415240933629247,0.316461375048038,0.3528359285632926],[0.35026368597018365,0.27300387311141266,0.33407576056973726],[0.2359344824073874,0.34143140275045963,0.49196308639919917],[0.18940763907415148,0.4715721472582738,0.42132860023978874],[0.14319521652483383,0.37677006761673865,0.3768498601982306],[0.3310550374296155,0.31395862298999705,0.3380115895396373],[0.2879479849676147,0.402248141164909,0.382538017818951],[0.2916668637697817,0.37105611889994444,0.29383804597186225],[0.13891199594571674,0.26992156038485826,0.3174652359092229],[0.188055623428098,0.28373492657372734,0.25626494326731475],[0.22928259095940237,0.2172681061424501,0.2815923974240687],[0.28330843633943614,0.2405636892495416,0.35843678169852683],[0.30026439880774036,0.3893797388476679,0.3768299184415897],[0.20337380894470897,0.413037237776951,0.4098684410280513],[0.21126247896658912,0.294642541911404,0.4528779256152761],[0.44113102439789637,0.31066751623254574,0.3579696571925598],[0.39820941517342756,0.4001006779466911,0.3347261690613045],[0.30485643932674555,0.3773601413057725,0.26165378983167586]]'
p110
sg46
S'[[0.67,0.71,0.89]]'
p111
sg48
(lp112
F0.151
aF0.8
aF0.887
asg50
S'[[0.29,0.15,0.68]]'
p113
sg52
(lp114
F0.25
aF0.010309278350515465
aF0.010309278350515465
aF0.5
aF0.5
aF0.010309278350515465
aF0.010309278350515465
aF0.00010849517196484758
aF0.00010849517196484759
aF5.425317787989432e-06
aF5.651403037097901e-08
aF5.651403037097901e-08
aF5.886878492869345e-10
aF5.6514030370979025e-08
aF5.651403037097902e-08
aF5.651403037097902e-08
aF5.651403037097902e-08
aF5.651403037097902e-08
aF2.825701670256152e-09
aF1.3563367871590608e-08
aF6.781684023178656e-10
aF3.390842013773912e-11
aF3.532127097799679e-13
aF1.7660635489004323e-14
aF1.766063548900432e-14
aF8.830317744502308e-16
aF8.830317744502309e-16
aF4.415158872251157e-17
aF4.415158872251158e-17
aF4.4151588722511585e-17
aF4.4151588722511597e-17
aF4.238552517361095e-15
aF2.1192762586805557e-16
aF2.2075794361255794e-18
aF1.059638129340278e-17
aF5.086263020833334e-17
aF2.543131510416667e-18
aF1.2715657552083336e-19
aF1.2715657552083336e-19
aF6.357828776041668e-21
aF3.178914388020834e-22
aF3.178914388020834e-22
aF3.178914388020834e-22
aF6.357828776041668e-21
aF6.357828776041668e-21
aF3.178914388020834e-22
aF3.178914388020834e-22
aF3.178914388020834e-22
aF3.178914388020834e-22
aF3.178914388020834e-22
aF1.589457194010417e-23
aF7.947285970052086e-25
aF3.973642985026043e-26
aF1.9073486328125004e-25
aF9.536743164062502e-27
aF4.768371582031251e-28
aF4.768371582031251e-28
aF4.768371582031251e-28
aF4.768371582031251e-28
aF4.768371582031251e-28
aF2.3841857910156257e-29
aF1.1920928955078128e-30
aF5.960464477539064e-32
aF5.960464477539064e-32
aF5.960464477539064e-32
aF2.9802322387695324e-33
aF2.9802322387695324e-33
aF5.960464477539065e-32
aF5.960464477539065e-32
aF5.960464477539065e-32
aF5.960464477539065e-32
aF5.960464477539065e-32
aF1.2417634328206386e-32
aF1.2417634328206386e-32
aF2.4835268656412773e-31
aF2.4835268656412773e-31
aF1.2417634328206386e-32
aF1.2417634328206386e-32
aF1.2417634328206386e-32
aF6.208817164103193e-34
aF6.208817164103193e-34
aF3.1044085820515964e-35
aF1.552204291025798e-36
aF7.761021455128991e-38
aF7.761021455128991e-38
aF7.761021455128991e-38
aF1.5522042910257985e-36
aF1.6168794698185403e-38
aF8.084397349092701e-40
aF4.042198674546351e-41
aF2.0210993372731754e-42
aF2.0210993372731754e-42
aF1.0105496686365877e-43
aF5.052748343182939e-45
aF2.4253192047278106e-44
aF2.4253192047278106e-44
aF1.164153218269349e-43
aF1.164153218269349e-43
aF5.587935447692875e-43
aF5.587935447692876e-43
aF5.587935447692876e-43
aF5.587935447692876e-43
aF5.364418029785161e-41
aF2.6822090148925807e-42
aF2.682209014892581e-42
aF2.6822090148925814e-42
aF2.574920654296878e-40
aF1.287460327148439e-41
aF6.437301635742195e-43
aF6.437301635742195e-43
aF1.287460327148439e-41
aF6.437301635742195e-43
aF6.437301635742195e-43
aF1.287460327148439e-41
aF2.574920654296878e-40
aF2.574920654296878e-40
aF5.149841308593757e-39
aF5.149841308593757e-39
aF2.5749206542968784e-40
aF5.149841308593757e-39
aF1.0299682617187514e-37
aF2.0599365234375028e-36
aF2.0599365234375028e-36
aF2.0599365234375028e-36
aF2.0599365234375028e-36
aF2.0599365234375028e-36
aF1.0299682617187514e-37
aF2.0599365234375028e-36
aF9.887695312500013e-36
aF1.9775390625000026e-34
aF1.9775390625000026e-34
aF1.9775390625000026e-34
aF3.955078125000005e-33
aF7.91015625000001e-32
aF1.582031250000002e-30
aF3.1640625000000045e-29
aF3.1640625000000045e-29
aF6.32812500000001e-28
aF1.265625000000002e-26
aF1.2656250000000022e-26
aF6.328125000000011e-28
aF6.328125000000011e-28
aF6.328125000000011e-28
aF1.3183593750000025e-28
aF2.6367187500000054e-27
aF5.273437500000011e-26
aF1.0546875000000023e-24
aF2.1093750000000045e-23
aF4.2187500000000093e-22
aF2.1093750000000045e-23
assa.