(lp0
(dp1
S'iterationMax'
p2
I50
sS'CPU_Time'
p3
ccopy_reg
_reconstructor
p4
(cpsutil._pslinux
scputimes
p5
c__builtin__
tuple
p6
(F11313514.7
F817.16
F1282297.38
F239084207.08
F23243.95
F0.0
F1257.72
F0.0
F0.0
F0.0
tp7
tp8
Rp9
sS'itemsCounts'
p10
I10
sS'memory_usage'
p11
I231051264
sS'generatedDataNumber'
p12
I100
sS'typeSelectionMode'
p13
S'AS'
p14
sS'simHeight'
p15
I10
sS'mcts_mode'
p16
S'UCTH'
p17
sS'endTime'
p18
F1547570948.811141
sS'reuseTree'
p19
S'False'
p20
sS'beginTime'
p21
F1547570860.138842
sS'PF_add_threshold'
p22
F0.9
sS'PF_weight'
p23
F1.2
sS'timeSteps'
p24
I46
sS'agentsCounts'
p25
I2
sS'simWidth'
p26
I10
sS'estimationMode'
p27
S'MIN'
p28
sS'maxDepth'
p29
I50
sa(dp30
I0
(dp31
S'l2TypeProbHistory'
p32
(lp33
F0.25
aF0.5
aF0.9896907216494846
aF0.9896907216494846
aF0.9896907216494846
aF0.9896907216494846
aF0.9896907216494846
aF0.9834515366430261
aF0.3823529411764706
aF0.006407097092163629
aF6.716645397289576e-05
aF6.996970688451861e-07
aF6.996970688451862e-07
aF6.716645397289576e-05
aF6.716645397289576e-05
aF6.716645397289576e-05
aF6.716645397289576e-05
aF6.716645397289576e-05
aF6.716645397289576e-05
aF6.990775023890421e-05
aF6.990775023890421e-05
aF5.377606003685876e-05
aF2.1511118084650054e-05
aF8.604558290061688e-06
aF8.604558290061688e-06
aF8.604558290061687e-06
aF8.604558290061688e-06
aF8.604558290061688e-06
aF8.604558290061688e-06
aF3.441841085338021e-06
aF3.4418410853380217e-06
aF3.5852633419264165e-08
aF3.585263341926417e-08
aF3.4418410853380213e-06
aF3.585263341926417e-08
aF3.734649447008942e-10
aF3.7346494470089426e-10
aF3.7346494470089426e-10
aF3.7346494470089426e-10
aF3.7346494470089426e-10
aF3.7346494470089426e-10
aF3.7346494470089426e-10
aF3.7346494470089426e-10
aF3.7346494470089426e-10
aF3.7346494470089426e-10
aF3.7346494470089426e-10
aF3.7346494470089426e-10
asS'maxProbability'
p34
S'l1'
p35
sS'l1EstimationHistory'
p36
S'[[0.66,0.61,0.78],[0.66,0.61,0.78],[0.66,0.61,0.78],[0.66,0.61,0.78],[0.66,0.61,0.78],[0.66,0.61,0.78],[0.66,0.61,0.78],[0.4724480343177048,0.7459061913634147,0.4860517230261214],[0.4724480343177048,0.7459061913634147,0.4860517230261214],[0.4724480343177048,0.7459061913634147,0.4860517230261214],[0.4724480343177048,0.7459061913634147,0.4860517230261214],[0.4724480343177048,0.7459061913634147,0.4860517230261214],[0.4724480343177048,0.7459061913634147,0.4860517230261214],[0.4724480343177048,0.7459061913634147,0.4860517230261214],[0.4724480343177048,0.7459061913634147,0.4860517230261214],[0.4724480343177048,0.7459061913634147,0.4860517230261214],[0.4724480343177048,0.7459061913634147,0.4860517230261214],[0.4724480343177048,0.7459061913634147,0.4860517230261214],[0.4724480343177048,0.7459061913634147,0.4860517230261214],[0.45757110573248405,0.7592084441315679,0.5469838729776663],[0.45757110573248405,0.7592084441315679,0.5469838729776663],[0.4584987946424414,0.766578105909024,0.5519526143137229],[0.4554069433727544,0.7691198781424177,0.5485950364301027],[0.45248928090699336,0.7715184519401272,0.5454266178638695],[0.45248928090699336,0.7715184519401272,0.5454266178638695],[0.45248928090699336,0.7715184519401272,0.5454266178638695],[0.45248928090699336,0.7715184519401272,0.5454266178638695],[0.45248928090699336,0.7715184519401272,0.5454266178638695],[0.45248928090699336,0.7715184519401272,0.5454266178638695],[0.4497314903571645,0.7737855970365922,0.5424318112738684],[0.4497314903571645,0.7737855970365922,0.5424318112738684],[0.4497314903571645,0.7737855970365922,0.5424318112738684],[0.4497314903571645,0.7737855970365922,0.5424318112738684],[0.4497314903571645,0.7737855970365922,0.5424318112738684],[0.4497314903571645,0.7737855970365922,0.5424318112738684],[0.4497314903571645,0.7737855970365922,0.5424318112738684],[0.4497314903571645,0.7737855970365922,0.5424318112738684],[0.4497314903571645,0.7737855970365922,0.5424318112738684],[0.4497314903571645,0.7737855970365922,0.5424318112738684],[0.4497314903571645,0.7737855970365922,0.5424318112738684],[0.4497314903571645,0.7737855970365922,0.5424318112738684],[0.4497314903571645,0.7737855970365922,0.5424318112738684],[0.39596292266048955,0.8127017267392925,0.4983364940992604],[0.39596292266048955,0.8127017267392925,0.4983364940992604],[0.39596292266048955,0.8127017267392925,0.4983364940992604],[0.39596292266048955,0.8127017267392925,0.4983364940992604],[0.39596292266048955,0.8127017267392925,0.4983364940992604]]'
p37
sS'trueType'
p38
S'l2'
p39
sS'f1TypeProbHistory'
p40
(lp41
F0.25
aF0.0
aF0.0
aF0.0
aF0.0
aF0.0
aF0.0
aF0.0
aF0.0
aF0.0
aF0.0
aF0.0
aF0.0
aF0.0
aF0.0
aF0.0
aF0.0
aF0.0
aF0.0
aF0.0
aF0.0
aF0.0
aF0.0
aF0.0
aF0.0
aF0.0
aF0.0
aF0.0
aF0.0
aF0.0
aF0.0
aF0.0
aF0.0
aF0.0
aF0.0
aF0.0
aF0.0
aF0.0
aF0.0
aF0.0
aF0.0
aF0.0
aF0.0
aF0.0
aF0.0
aF0.0
aF0.0
asS'f2TypeProbHistory'
p42
(lp43
F0.25
aF0.0
aF0.0
aF0.0
aF0.0
aF0.0
aF0.0
aF0.0
aF0.0
aF0.0
aF0.0
aF0.0
aF0.0
aF0.0
aF0.0
aF0.0
aF0.0
aF0.0
aF0.0
aF0.0
aF0.0
aF0.0
aF0.0
aF0.0
aF0.0
aF0.0
aF0.0
aF0.0
aF0.0
aF0.0
aF0.0
aF0.0
aF0.0
aF0.0
aF0.0
aF0.0
aF0.0
aF0.0
aF0.0
aF0.0
aF0.0
aF0.0
aF0.0
aF0.0
aF0.0
aF0.0
aF0.0
asS'l2EstimationHistory'
p44
S'[[0.41,0.58,0.72],[0.41,0.58,0.72],[0.41,0.58,0.72],[0.41,0.58,0.72],[0.41,0.58,0.72],[0.41,0.58,0.72],[0.41,0.58,0.72],[0.52681205329153,0.7329067399273348,0.4430272115662519],[0.52681205329153,0.7329067399273348,0.4430272115662519],[0.52681205329153,0.7329067399273348,0.4430272115662519],[0.52681205329153,0.7329067399273348,0.4430272115662519],[0.52681205329153,0.7329067399273348,0.4430272115662519],[0.52681205329153,0.7329067399273348,0.4430272115662519],[0.52681205329153,0.7329067399273348,0.4430272115662519],[0.52681205329153,0.7329067399273348,0.4430272115662519],[0.52681205329153,0.7329067399273348,0.4430272115662519],[0.52681205329153,0.7329067399273348,0.4430272115662519],[0.52681205329153,0.7329067399273348,0.4430272115662519],[0.52681205329153,0.7329067399273348,0.4430272115662519],[0.5993284892905768,0.7710718673103292,0.5549550342642244],[0.5993284892905768,0.7710718673103292,0.5549550342642244],[0.5985651637445395,0.761917187847065,0.5642029882455549],[0.5972215102906555,0.7622085184349531,0.562961479329828],[0.5958977628138662,0.7624955330141318,0.5617383631387786],[0.5958977628138662,0.7624955330141318,0.5617383631387786],[0.5958977628138662,0.7624955330141318,0.5617383631387786],[0.5958977628138662,0.7624955330141318,0.5617383631387786],[0.5958977628138662,0.7624955330141318,0.5617383631387786],[0.5958977628138662,0.7624955330141318,0.5617383631387786],[0.5945934822117355,0.7627783267906755,0.5605332339505388],[0.5945934822117355,0.7627783267906755,0.5605332339505388],[0.5945934822117355,0.7627783267906755,0.5605332339505388],[0.5945934822117355,0.7627783267906755,0.5605332339505388],[0.5945934822117355,0.7627783267906755,0.5605332339505388],[0.5945934822117355,0.7627783267906755,0.5605332339505388],[0.5945934822117355,0.7627783267906755,0.5605332339505388],[0.5945934822117355,0.7627783267906755,0.5605332339505388],[0.5945934822117355,0.7627783267906755,0.5605332339505388],[0.5945934822117355,0.7627783267906755,0.5605332339505388],[0.5945934822117355,0.7627783267906755,0.5605332339505388],[0.5945934822117355,0.7627783267906755,0.5605332339505388],[0.5945934822117355,0.7627783267906755,0.5605332339505388],[0.5199842104796847,0.7789550894319475,0.4915957591995286],[0.5199842104796847,0.7789550894319475,0.4915957591995286],[0.5199842104796847,0.7789550894319475,0.4915957591995286],[0.5199842104796847,0.7789550894319475,0.4915957591995286],[0.5199842104796847,0.7789550894319475,0.4915957591995286]]'
p45
sS'f1EstimationHistory'
p46
S'[[0.23,0.59,0.26]]'
p47
sS'trueParameters'
p48
(lp49
F0.68
aF0.703
aF0.621
asS'f2EstimationHistory'
p50
S'[[0.4,0.47,0.86]]'
p51
sS'l1TypeProbHistory'
p52
(lp53
F0.25
aF0.5
aF0.010309278350515465
aF0.010309278350515465
aF0.010309278350515465
aF0.010309278350515465
aF0.010309278350515465
aF0.016548463356974
aF0.6176470588235294
aF0.9935929029078365
aF0.9999328335460271
aF0.999999300302931
aF0.9999993003029312
aF0.9999328335460271
aF0.999932833546027
aF0.999932833546027
aF0.999932833546027
aF0.999932833546027
aF0.999932833546027
aF0.999930092249761
aF0.999930092249761
aF0.9999462239399631
aF0.9999784888819153
aF0.9999913954417099
aF0.99999139544171
aF0.9999913954417099
aF0.99999139544171
aF0.99999139544171
aF0.99999139544171
aF0.9999965581589145
aF0.9999965581589148
aF0.9999999641473665
aF0.9999999641473666
aF0.9999965581589145
aF0.9999999641473666
aF0.9999999996265351
aF0.9999999996265351
aF0.9999999996265351
aF0.9999999996265351
aF0.9999999996265351
aF0.9999999996265351
aF0.9999999996265351
aF0.9999999996265351
aF0.9999999996265351
aF0.9999999996265351
aF0.9999999996265351
aF0.9999999996265351
assI1
(dp54
g32
(lp55
F0.25
aF0.5
aF0.5
aF0.047619047619047616
aF0.0024937655860349127
aF2.6040988515924062e-05
aF2.712672875251498e-07
aF2.7126728752514986e-07
aF2.712672875251498e-07
aF2.712672875251498e-07
aF2.825701670256151e-09
aF1.412850838920756e-10
aF1.4128508389207556e-10
aF1.3563367871590601e-08
aF1.4128508389207556e-10
aF1.4128508389207556e-10
aF1.4128508389207556e-10
aF1.4128508389207556e-10
aF1.4128508389207554e-10
aF1.4128508389207554e-10
aF1.3563367871590603e-08
aF2.712672875251499e-07
aF2.712672875251499e-07
aF2.712672875251499e-07
aF2.712672875251499e-07
aF2.7126728752514986e-07
aF5.651403037097901e-08
aF5.6514030370979006e-08
aF5.651403037097899e-08
aF5.6514030370979e-08
aF5.798192717862021e-08
aF6.001638064173441e-08
aF6.001638064173441e-08
aF6.00163806417344e-08
aF5.539973623274648e-08
aF5.539973623274647e-08
aF5.539973623274647e-08
aF5.539973623274647e-08
aF5.539973623274647e-08
aF5.539973623274647e-08
aF5.539973623274647e-08
aF1.5828494437980788e-07
aF1.5828494437980788e-07
aF1.5828494437980788e-07
aF1.5828494437980788e-07
aF1.5828494437980788e-07
aF1.5828494437980788e-07
asg34
g35
sg36
S'[[0.57,0.82,0.24],[0.57,0.82,0.24],[0.57,0.82,0.24],[0.57,0.82,0.24],[0.57,0.82,0.24],[0.57,0.82,0.24],[0.57,0.82,0.24],[0.57,0.82,0.24],[0.57,0.82,0.24],[0.57,0.82,0.24],[0.57,0.82,0.24],[0.57,0.82,0.24],[0.57,0.82,0.24],[0.57,0.82,0.24],[0.57,0.82,0.24],[0.57,0.82,0.24],[0.57,0.82,0.24],[0.57,0.82,0.24],[0.57,0.82,0.24],[0.57,0.82,0.24],[0.57,0.82,0.24],[0.57,0.82,0.24],[0.57,0.82,0.24],[0.57,0.82,0.24],[0.57,0.82,0.24],[0.57,0.82,0.24],[0.57,0.82,0.24],[0.57,0.82,0.24],[0.57,0.82,0.24],[0.57,0.82,0.24],[0.5168331035118524,0.6233316364841198,0.8512976954764214],[0.5347885955429444,0.6196327548843783,0.8501064064742861],[0.5347885955429444,0.6196327548843783,0.8501064064742861],[0.5347885955429444,0.6196327548843783,0.8501064064742861],[0.5492352103762066,0.6224279650159281,0.8491669637194477],[0.5492352103762066,0.6224279650159281,0.8491669637194477],[0.5492352103762066,0.6224279650159281,0.8491669637194477],[0.5492352103762066,0.6224279650159281,0.8491669637194477],[0.5492352103762066,0.6224279650159281,0.8491669637194477],[0.5492352103762066,0.6224279650159281,0.8491669637194477],[0.5492352103762066,0.6224279650159281,0.8491669637194477],[0.5568792017990432,0.6183715223270063,0.8481799736177782],[0.5568792017990432,0.6183715223270063,0.8481799736177782],[0.5568792017990432,0.6183715223270063,0.8481799736177782],[0.5568792017990432,0.6183715223270063,0.8481799736177782],[0.5568792017990432,0.6183715223270063,0.8481799736177782],[0.5568792017990432,0.6183715223270063,0.8481799736177782]]'
p56
sg38
S'l1'
p57
sg40
(lp58
F0.25
aF0.0
aF0.0
aF0.0
aF0.0
aF0.0
aF0.0
aF0.0
aF0.0
aF0.0
aF0.0
aF0.0
aF0.0
aF0.0
aF0.0
aF0.0
aF0.0
aF0.0
aF0.0
aF0.0
aF0.0
aF0.0
aF0.0
aF0.0
aF0.0
aF0.0
aF0.0
aF0.0
aF0.0
aF0.0
aF0.0
aF0.0
aF0.0
aF0.0
aF0.0
aF0.0
aF0.0
aF0.0
aF0.0
aF0.0
aF0.0
aF0.0
aF0.0
aF0.0
aF0.0
aF0.0
aF0.0
asg42
(lp59
F0.25
aF0.0
aF0.0
aF0.0
aF0.0
aF0.0
aF0.0
aF0.0
aF0.0
aF0.0
aF0.0
aF0.0
aF0.0
aF0.0
aF0.0
aF0.0
aF0.0
aF0.0
aF0.0
aF0.0
aF0.0
aF0.0
aF0.0
aF0.0
aF0.0
aF0.0
aF0.0
aF0.0
aF0.0
aF0.0
aF0.0
aF0.0
aF0.0
aF0.0
aF0.0
aF0.0
aF0.0
aF0.0
aF0.0
aF0.0
aF0.0
aF0.0
aF0.0
aF0.0
aF0.0
aF0.0
aF0.0
asg44
S'[[0.16,0.33,0.32],[0.16,0.33,0.32],[0.16,0.33,0.32],[0.16,0.33,0.32],[0.16,0.33,0.32],[0.16,0.33,0.32],[0.16,0.33,0.32],[0.16,0.33,0.32],[0.16,0.33,0.32],[0.16,0.33,0.32],[0.16,0.33,0.32],[0.16,0.33,0.32],[0.16,0.33,0.32],[0.16,0.33,0.32],[0.16,0.33,0.32],[0.16,0.33,0.32],[0.16,0.33,0.32],[0.16,0.33,0.32],[0.16,0.33,0.32],[0.16,0.33,0.32],[0.16,0.33,0.32],[0.16,0.33,0.32],[0.16,0.33,0.32],[0.16,0.33,0.32],[0.16,0.33,0.32],[0.16,0.33,0.32],[0.16,0.33,0.32],[0.16,0.33,0.32],[0.16,0.33,0.32],[0.16,0.33,0.32],[0.5538375097784314,0.6149147735900559,0.8620969774090324],[0.5470452495536933,0.6049542505090957,0.8613807341343184],[0.5470452495536933,0.6049542505090957,0.8613807341343184],[0.5470452495536933,0.6049542505090957,0.8613807341343184],[0.5425181975327831,0.607962205093412,0.8605946456194443],[0.5425181975327831,0.607962205093412,0.8605946456194443],[0.5425181975327831,0.607962205093412,0.8605946456194443],[0.5425181975327831,0.607962205093412,0.8605946456194443],[0.5425181975327831,0.607962205093412,0.8605946456194443],[0.5425181975327831,0.607962205093412,0.8605946456194443],[0.5425181975327831,0.607962205093412,0.8605946456194443],[0.5420150494494806,0.6035493749539925,0.8605023610752154],[0.5420150494494806,0.6035493749539925,0.8605023610752154],[0.5420150494494806,0.6035493749539925,0.8605023610752154],[0.5420150494494806,0.6035493749539925,0.8605023610752154],[0.5420150494494806,0.6035493749539925,0.8605023610752154],[0.5420150494494806,0.6035493749539925,0.8605023610752154]]'
p60
sg46
S'[[0.07,0.63,0.49]]'
p61
sg48
(lp62
F0.99
aF0.188
aF0.886
asg50
S'[[0.2,0.85,0.54]]'
p63
sg52
(lp64
F0.25
aF0.5
aF0.5
aF0.9523809523809524
aF0.9975062344139652
aF0.9999739590114842
aF0.9999997287327124
aF0.9999997287327126
aF0.9999997287327124
aF0.9999997287327124
aF0.9999999971742984
aF0.999999999858715
aF0.999999999858715
aF0.999999986436632
aF0.9999999998587149
aF0.999999999858715
aF0.999999999858715
aF0.999999999858715
aF0.9999999998587148
aF0.9999999998587148
aF0.999999986436632
aF0.9999997287327126
aF0.9999997287327126
aF0.9999997287327126
aF0.9999997287327126
aF0.9999997287327125
aF0.9999999434859698
aF0.9999999434859697
aF0.9999999434859697
aF0.9999999434859697
aF0.9999999420180729
aF0.9999999399836194
aF0.9999999399836195
aF0.9999999399836194
aF0.9999999446002638
aF0.9999999446002639
aF0.9999999446002639
aF0.9999999446002639
aF0.9999999446002639
aF0.9999999446002639
aF0.9999999446002639
aF0.9999998417150556
aF0.9999998417150556
aF0.9999998417150556
aF0.9999998417150556
aF0.9999998417150557
aF0.9999998417150557
assa.