(lp0
(dp1
S'iterationMax'
p2
I50
sS'CPU_Time'
p3
ccopy_reg
_reconstructor
p4
(cpsutil._pslinux
scputimes
p5
c__builtin__
tuple
p6
(F17104922.43
F888.7
F1054611.47
F233401509.7
F19509.45
F0.0
F2189.4
F0.0
F0.0
F0.0
tp7
tp8
Rp9
sS'itemsCounts'
p10
I10
sS'memory_usage'
p11
I234340352
sS'generatedDataNumber'
p12
I100
sS'typeSelectionMode'
p13
S'AS'
p14
sS'simHeight'
p15
I10
sS'mcts_mode'
p16
S'UCTH'
p17
sS'endTime'
p18
F1547571698.26654
sS'reuseTree'
p19
S'False'
p20
sS'beginTime'
p21
F1547571618.21466
sS'PF_add_threshold'
p22
F0.9
sS'PF_weight'
p23
F1.2
sS'timeSteps'
p24
I37
sS'agentsCounts'
p25
I2
sS'simWidth'
p26
I10
sS'estimationMode'
p27
S'ABU'
p28
sS'maxDepth'
p29
I50
sa(dp30
I0
(dp31
S'l2TypeProbHistory'
p32
(lp33
F0.25
aF0.010309278350515465
aF0.010309278350515465
aF0.00010849517196484758
aF0.00010849517196484759
aF0.0001084951719648476
aF1.1302793937633445e-06
aF1.1302793937633447e-06
aF1.1773756854048405e-08
aF1.1773756854048407e-08
aF1.130279393763345e-06
aF0.0001084951719648476
aF0.010309278350515467
aF0.010309278350515469
aF0.5000000000000001
aF0.9896907216494846
aF0.9896907216494846
aF0.9896907216494846
aF0.9896907216494846
aF0.9998915048280351
aF0.9998915048280352
aF0.9896907216494845
aF0.9896907216494845
aF0.9896907216494845
aF0.5
aF0.5
aF0.5
aF0.5000000000000001
aF0.5
aF0.5
aF0.5
aF0.5000000000000001
aF0.010309278350515467
aF0.010309278350515467
aF0.010309278350515467
aF0.010309278350515469
aF0.010309278350515469
aF0.010309278350515469
asS'maxProbability'
p34
S'l1'
p35
sS'l1EstimationHistory'
p36
S'[[0.97,0.15,0.11],[0.6436638101250827,0.566490238904953,0.5686414458860586],[0.4325954137624253,0.48783061857777454,0.4749722516534032],[0.4597195438205889,0.47555967207077987,0.5142242292468749],[0.6277363248559489,0.4012276058689621,0.6655232812580357],[0.43295483184319405,0.5973855873058633,0.6054037657694409],[0.43624026264551763,0.5289634743224026,0.5567611522763685],[0.5871046920433335,0.4587836970744683,0.639388731559267],[0.5239288330493496,0.6021215376390939,0.45228010990223977],[0.5383667639597952,0.5436574762346253,0.7152585856550648],[0.5606954227331792,0.5260419925494111,0.6264398969475531],[0.4701872914362662,0.5466877608943268,0.6394015516598643],[0.44390063243306155,0.6223616097283535,0.5614438674244753],[0.4581708308265349,0.6729330357154875,0.5927350883398249],[0.4873646387719236,0.6228528429434367,0.5691282118429829],[0.554534416291886,0.46119097500903694,0.5059525133156964],[0.48089321443397226,0.39099755777871426,0.6433353661197818],[0.5192463765011046,0.5689714303549109,0.413077823152143],[0.445387831396361,0.41446458979446055,0.5193098330575586],[0.5711099942076777,0.7517536092654571,0.568663287512096],[0.570321922648525,0.5429623456155291,0.5319833059082593],[0.5660981256837245,0.5835675370463418,0.3785031538422609],[0.47402526210455936,0.6540860811921964,0.6610051126825698],[0.4760236007149544,0.6709581922018913,0.4745345892534315],[0.28414710446034314,0.5790805530073297,0.7104820904671598],[0.5730487044701522,0.5076628649051244,0.5935460104003741],[0.6945679114812121,0.5759254360287515,0.5270538742381762],[0.39446138777048867,0.6033523809419641,0.49789757274728286],[0.4216495575133707,0.6338125755091973,0.5192129053639636],[0.5953203616979258,0.5933997600134562,0.6310528716956993],[0.3838692444698319,0.5494764814944174,0.36687209218936656],[0.44772968991710516,0.6124766032611125,0.5000818596324832],[0.3096868303575088,0.5924135079834254,0.46499818176296337],[0.43686756437858953,0.4027277356463731,0.5828990427110915],[0.686073821945899,0.5203314628358606,0.6680372183625722],[0.4665567094199197,0.5206710824590176,0.4314792151726653],[0.5448840368297835,0.48611393690271465,0.6386452967756884],[0.5509184418024698,0.5087214556107451,0.6607783798875886]]'
p37
sS'trueType'
p38
S'l2'
p39
sS'f1TypeProbHistory'
p40
(lp41
F0.25
aF0.0
aF0.0
aF0.0
aF0.0
aF0.0
aF0.0
aF0.0
aF0.0
aF0.0
aF0.0
aF0.0
aF0.0
aF0.0
aF0.0
aF0.0
aF0.0
aF0.0
aF0.0
aF0.0
aF0.0
aF0.0
aF0.0
aF0.0
aF0.0
aF0.0
aF0.0
aF0.0
aF0.0
aF0.0
aF0.0
aF0.0
aF0.0
aF0.0
aF0.0
aF0.0
aF0.0
aF0.0
asS'f2TypeProbHistory'
p42
(lp43
F0.25
aF0.0
aF0.0
aF0.0
aF0.0
aF0.0
aF0.0
aF0.0
aF0.0
aF0.0
aF0.0
aF0.0
aF0.0
aF0.0
aF0.0
aF0.0
aF0.0
aF0.0
aF0.0
aF0.0
aF0.0
aF0.0
aF0.0
aF0.0
aF0.0
aF0.0
aF0.0
aF0.0
aF0.0
aF0.0
aF0.0
aF0.0
aF0.0
aF0.0
aF0.0
aF0.0
aF0.0
aF0.0
asS'l2EstimationHistory'
p44
S'[[0.25,0.65,0.85],[0.5680937654807773,0.44471664652228354,0.5797931268811226],[0.5043728571961531,0.46775288466062925,0.4012664631009102],[0.5164258448267811,0.51952936290118,0.5091396890580654],[0.37519761848424354,0.40788340436998444,0.4323013976216316],[0.30951889004457284,0.6002796633137097,0.5945387214422226],[0.6013718547128899,0.5182984770670561,0.7092500284314156],[0.4455434091250664,0.5737060982540607,0.7150539785623551],[0.45891842558229906,0.5170183743204111,0.47427304536104203],[0.6572924143937047,0.5860232059761127,0.5967581331729889],[0.669681378183556,0.4755682625821338,0.6701285019516945],[0.494031425668387,0.4520061209285503,0.5571547746658325],[0.5684100227058576,0.5225639682772825,0.5160341344773769],[0.4149149277080294,0.5697261176844886,0.5479072757065296],[0.554189429222235,0.5319299469096416,0.5342807315289975],[0.38398575079293557,0.5673739845513842,0.6083798632025719],[0.6145494523923822,0.6439582791094576,0.5436569802463055],[0.4621838940834516,0.8247139197412334,0.46708438619971276],[0.5655242853959167,0.41752919108412223,0.5782673954963684],[0.5212516334224286,0.5557692685569982,0.3986594222486019],[0.4701191957989129,0.5022339894946428,0.5146181166172028],[0.3989221600204932,0.5115085439312792,0.7037428632378578],[0.2996621798706648,0.496795604573958,0.4059628464281559],[0.441959026553761,0.45844814055991384,0.4475115895271301],[0.4416216414517044,0.604518316682748,0.5086165636777877],[0.506264449847184,0.43511630749402636,0.5387313053011894],[0.5960444649675614,0.555963597043079,0.47648595049977305],[0.5269409214508562,0.5687146808745152,0.5198816426098347],[0.38341893185206927,0.6166711418994305,0.5114096604287625],[0.588065246830072,0.4218046252930622,0.5450578726828098],[0.5531824264645839,0.5593902249704099,0.6387109532952309],[0.6011625636971304,0.5738726181700952,0.464863683283329],[0.6667902228224277,0.5900897767828002,0.43841323256492615],[0.5739663411162601,0.5859131401279851,0.4699251130223274],[0.44305889567306894,0.4533097357060707,0.65054697021842],[0.6871296387516657,0.461281588066501,0.6209732234477997],[0.5318384319986671,0.5822288059715541,0.4366739109158516],[0.495708955608482,0.6674654630765361,0.3927653647959232]]'
p45
sS'f1EstimationHistory'
p46
S'[[0.99,0.99,0.45]]'
p47
sS'trueParameters'
p48
(lp49
F0.842
aF0.834
aF0.301
asS'f2EstimationHistory'
p50
S'[[0.61,0.11,0.82]]'
p51
sS'l1TypeProbHistory'
p52
(lp53
F0.25
aF0.9896907216494846
aF0.9896907216494846
aF0.9998915048280351
aF0.9998915048280352
aF0.9998915048280352
aF0.9999988697206061
aF0.9999988697206063
aF0.999999988226243
aF0.9999999882262431
aF0.9999988697206064
aF0.9998915048280352
aF0.9896907216494845
aF0.9896907216494846
aF0.49999999999999994
aF0.010309278350515462
aF0.010309278350515462
aF0.010309278350515462
aF0.010309278350515462
aF0.00010849517196484754
aF0.00010849517196484755
aF0.01030927835051546
aF0.01030927835051546
aF0.01030927835051546
aF0.4999999999999999
aF0.4999999999999999
aF0.4999999999999999
aF0.5
aF0.49999999999999994
aF0.49999999999999994
aF0.49999999999999994
aF0.5
aF0.9896907216494846
aF0.9896907216494846
aF0.9896907216494846
aF0.9896907216494846
aF0.9896907216494846
aF0.9896907216494846
assI1
(dp54
g32
(lp55
F0.25
aF0.9896907216494846
aF0.9896907216494846
aF0.5
aF0.5
aF0.5
aF0.5
aF0.5
aF0.5
aF0.5
aF0.5
aF0.5
aF0.5
aF0.5
aF0.5
aF0.010309278350515465
aF0.010309278350515465
aF0.00010849517196484758
aF0.00010849517196484759
aF1.1302793937633445e-06
aF1.1773756854048403e-08
aF1.2264330199193523e-10
aF1.2264330199193523e-10
aF1.2775343959043744e-12
aF1.2775343959043744e-12
aF1.2775343959043742e-12
aF1.2775343959043742e-12
aF1.3307649957354057e-14
aF1.3862135372243996e-16
aF1.3862135372243996e-16
aF1.3862135372243996e-16
aF1.3862135372243996e-16
aF1.330764995735406e-14
aF1.3862135372243999e-16
aF1.44397243460875e-18
aF1.44397243460875e-18
aF1.4439724346087497e-18
aF1.4439724346087497e-18
asg34
g35
sg36
S'[[0.26,0.85,0.29],[0.5834955275058746,0.45914841356681657,0.5964824138073431],[0.44006783984204684,0.6937533845213403,0.5646481791906771],[0.5029752852885576,0.44671187318907235,0.4797874726355076],[0.521474027160982,0.438356589366588,0.5023694887757302],[0.35716389616931116,0.6618449385669857,0.6078643359243869],[0.5746665244548159,0.38873159884792596,0.6562568582594395],[0.6503351243339934,0.5398077124010374,0.5566521938890219],[0.5151974858236638,0.6448858826575323,0.460874031111598],[0.43940256731805205,0.6146913144455202,0.5092996913939715],[0.471263773289626,0.6246008008415836,0.5964709542691707],[0.5416994349659757,0.47016626819702606,0.44626205414533615],[0.4004524690325518,0.5124224790660421,0.48427912816405294],[0.5081908744126469,0.6067758713195359,0.7020880572497845],[0.6007407323383991,0.640607402661703,0.5888644546270371],[0.48499976829725966,0.48964956939981563,0.6130419448018074],[0.24662243873768808,0.5828482589123309,0.5923011567443609],[0.6645395554231992,0.5446349066500726,0.4134253993630409],[0.44712624207988905,0.5639962873741463,0.5878178127110004],[0.4813450716577691,0.5379059813863218,0.5642305314540863],[0.3642930484404473,0.4322119502410383,0.6074281079308355],[0.591754958056965,0.5503006214283203,0.4487348112177491],[0.48934505319163285,0.5913551152595583,0.3995609721705836],[0.5318120958255735,0.5336920732422424,0.4930642079685333],[0.39333250032734635,0.5874110006191564,0.5756866574181185],[0.5716571054397436,0.5221998626960266,0.4645460431368427],[0.7101673162456509,0.4930578089475254,0.6147397965192795],[0.47605003454999845,0.5051920654496751,0.7148960880935192],[0.6435930453153482,0.5325330482371089,0.5865037620067597],[0.507444374381205,0.6355511566524743,0.6774372681975365],[0.5267920267342795,0.5522822575046558,0.631013729686224],[0.6568301237314531,0.6079637002060676,0.5147559323751224],[0.4409629836549206,0.5586059240054858,0.500369473783959],[0.34602995325817043,0.5134404986864259,0.49116317042242663],[0.4210244223261096,0.5233197882729129,0.49107855245583804],[0.3821187415133456,0.5608499128217267,0.6345819532705772],[0.646010136132481,0.4584855551339094,0.46757110950150216],[0.5858752366099167,0.7092590021430366,0.6142373578318068]]'
p56
sg38
S'l2'
p57
sg40
(lp58
F0.25
aF0.0
aF0.0
aF0.0
aF0.0
aF0.0
aF0.0
aF0.0
aF0.0
aF0.0
aF0.0
aF0.0
aF0.0
aF0.0
aF0.0
aF0.0
aF0.0
aF0.0
aF0.0
aF0.0
aF0.0
aF0.0
aF0.0
aF0.0
aF0.0
aF0.0
aF0.0
aF0.0
aF0.0
aF0.0
aF0.0
aF0.0
aF0.0
aF0.0
aF0.0
aF0.0
aF0.0
aF0.0
asg42
(lp59
F0.25
aF0.0
aF0.0
aF0.0
aF0.0
aF0.0
aF0.0
aF0.0
aF0.0
aF0.0
aF0.0
aF0.0
aF0.0
aF0.0
aF0.0
aF0.0
aF0.0
aF0.0
aF0.0
aF0.0
aF0.0
aF0.0
aF0.0
aF0.0
aF0.0
aF0.0
aF0.0
aF0.0
aF0.0
aF0.0
aF0.0
aF0.0
aF0.0
aF0.0
aF0.0
aF0.0
aF0.0
aF0.0
asg44
S'[[0.52,0.35,0.45],[0.37354453783083913,0.47030179696577745,0.5969355904616005],[0.43320491384225723,0.6588474341643267,0.5912213571369648],[0.504038284092106,0.3881028672451933,0.6319275610148907],[0.5888744535758372,0.5261040295449603,0.6326052568852901],[0.45964882456139067,0.5732705067774579,0.6592339403927326],[0.6405082444451364,0.38102376945713706,0.42890244722366333],[0.580325055453066,0.5800938245972788,0.5072516269981862],[0.6558188376414221,0.47964828821395294,0.6562963221222162],[0.48144854360706424,0.6078805353381559,0.5483983479440212],[0.5371315818656365,0.632442730790902,0.422271841019392],[0.4955146023205067,0.44348963206657255,0.4156667791306973],[0.43713986628060253,0.5564721942713151,0.419406682997942],[0.6599550278379637,0.37640323162914563,0.4842727843672037],[0.5120124910008341,0.6695375275933781,0.5912195961922407],[0.37643662849525983,0.6067652002255458,0.5589252479374409],[0.5663938765125849,0.6885225262540628,0.6005649011582136],[0.48398667635379394,0.5614244509212813,0.5478807404637337],[0.49692435858291395,0.4911258525609449,0.4436180040240288],[0.46408782704353574,0.4612367238666389,0.5200477719306946],[0.5841879333194974,0.5256055540039858,0.5004693681329905],[0.5443341314732226,0.6802933643940867,0.4317208205102846],[0.5548531828124202,0.6625302570548278,0.5805992150310658],[0.41129438395611884,0.4203356461575895,0.6147266082321303],[0.5158070460876476,0.7051387503738604,0.4212013125419617],[0.364159249458844,0.6807392302660386,0.47576071316900814],[0.3789452971317605,0.5755558645203857,0.5591776803135872],[0.4516944399582263,0.651122181204251,0.5424381598830224],[0.3955110482937815,0.5220874031729303,0.7459018096327782],[0.5173584289654811,0.6130810770913023,0.5464526504278183],[0.4259153156734151,0.5685018740187229,0.5874785512950847],[0.44903976214405567,0.5570471833831905,0.5419377699957802],[0.3568945770931916,0.5267491884324784,0.4923429874982908],[0.5546592979898812,0.5125978061416905,0.5941546174661243],[0.6168782340598765,0.7370423051169215,0.44861028823024923],[0.5035034525341859,0.5636652203234173,0.6162738332479196],[0.5096653663100763,0.6497853171274823,0.4333813489623951],[0.3476813395535229,0.512617022755854,0.42797827937590904]]'
p60
sg46
S'[[0.2,0.51,0.98]]'
p61
sg48
(lp62
F0.599
aF0.432
aF0.171
asg50
S'[[0.03,0.85,0.88]]'
p63
sg52
(lp64
F0.25
aF0.010309278350515465
aF0.010309278350515465
aF0.5
aF0.5
aF0.5
aF0.5
aF0.5
aF0.5
aF0.5
aF0.5
aF0.5
aF0.5
aF0.5
aF0.5
aF0.9896907216494846
aF0.9896907216494846
aF0.9998915048280351
aF0.9998915048280352
aF0.9999988697206061
aF0.9999999882262431
aF0.9999999998773567
aF0.9999999998773567
aF0.9999999999987225
aF0.9999999999987226
aF0.9999999999987224
aF0.9999999999987224
aF0.9999999999999866
aF0.9999999999999999
aF0.9999999999999999
aF0.9999999999999999
aF0.9999999999999999
aF0.9999999999999867
aF1.0
aF1.0
aF1.0
aF1.0
aF1.0
assa.