(lp0
(dp1
S'iterationMax'
p2
I50
sS'CPU_Time'
p3
ccopy_reg
_reconstructor
p4
(cpsutil._pslinux
scputimes
p5
c__builtin__
tuple
p6
(F13722511.86
F1475.82
F571190.4
F237359778.43
F6911.24
F0.0
F1822.22
F0.0
F0.0
F0.0
tp7
tp8
Rp9
sS'itemsCounts'
p10
I10
sS'memory_usage'
p11
I203866112
sS'generatedDataNumber'
p12
I100
sS'typeSelectionMode'
p13
S'AS'
p14
sS'simHeight'
p15
I10
sS'mcts_mode'
p16
S'UCTH'
p17
sS'endTime'
p18
F1547571315.874015
sS'reuseTree'
p19
S'False'
p20
sS'beginTime'
p21
F1547571252.290127
sS'PF_add_threshold'
p22
F0.9
sS'PF_weight'
p23
F1.2
sS'timeSteps'
p24
I51
sS'agentsCounts'
p25
I2
sS'simWidth'
p26
I10
sS'estimationMode'
p27
S'MIN'
p28
sS'maxDepth'
p29
I50
sa(dp30
I0
(dp31
S'l2TypeProbHistory'
p32
(lp33
F0.25
aF0.5
aF0.5
aF0.5
aF0.5
aF0.5632183908045977
aF0.013253989721395727
aF0.013253989721395727
aF0.013253989721395727
aF0.013253989721395727
aF0.013253989721395727
aF0.00013989727542918488
aF0.00013989727542918488
aF0.00013989727542918488
aF0.00012636054014525942
aF0.00012636054014525942
aF0.00021058316064081635
aF0.019819486657960742
aF0.6599961516259382
aF0.6599961516259382
aF0.6599961516259382
aF0.6599961516259382
aF0.07138880361314766
aF0.07138880361314764
aF0.07138880361314766
aF0.0007605790756380928
aF0.00015854944068934465
aF0.0031614650918674776
aF0.059646467561425165
aF0.5591988574801094
aF0.9620808989691773
aF0.9980331944240847
aF0.9906293680381384
aF0.9995272600231874
aF0.9995272600231875
aF0.9995272600231875
aF0.9544085523332093
aF0.9976172251704128
aF0.9998805909599081
aF0.9994270965649867
aF0.9999713392293881
aF0.9999985669224499
aF0.9999999283460248
aF0.999999996417301
aF0.9999999998208651
aF0.9999999999910434
aF0.9999999999623069
aF0.9999999998413754
aF0.9999999999920687
aF0.9999999999996033
aF0.9999999999980965
aF0.9999999999908633
asS'maxProbability'
p34
S'l2'
p35
sS'l1EstimationHistory'
p36
S'[[0.36,0.22,0.77],[0.36,0.22,0.77],[0.36,0.22,0.77],[0.36,0.22,0.77],[0.36,0.22,0.77],[0.5408034233362687,0.5000525817592791,0.42591457555660966],[0.5408034233362687,0.5000525817592791,0.42591457555660966],[0.5408034233362687,0.5000525817592791,0.42591457555660966],[0.5408034233362687,0.5000525817592791,0.42591457555660966],[0.5408034233362687,0.5000525817592791,0.42591457555660966],[0.5408034233362687,0.5000525817592791,0.42591457555660966],[0.5408034233362687,0.5000525817592791,0.42591457555660966],[0.5408034233362687,0.5000525817592791,0.42591457555660966],[0.5408034233362687,0.5000525817592791,0.42591457555660966],[0.5236435792394755,0.5357634059455593,0.43315135725806847],[0.5236435792394755,0.5357634059455593,0.43315135725806847],[0.5191267708293148,0.535016911841312,0.4332032490310925],[0.5191267708293148,0.535016911841312,0.4332032490310925],[0.5191267708293148,0.535016911841312,0.4332032490310925],[0.5191267708293148,0.535016911841312,0.4332032490310925],[0.5191267708293148,0.535016911841312,0.4332032490310925],[0.5191267708293148,0.535016911841312,0.4332032490310925],[0.34061817497865166,0.5055147496375261,0.4352540616176687],[0.34061817497865166,0.5055147496375261,0.4352540616176687],[0.34061817497865166,0.5055147496375261,0.4352540616176687],[0.2958238831359758,0.4981115853391976,0.435768685000817],[0.2958238831359758,0.4981115853391976,0.435768685000817],[0.2958238831359758,0.4981115853391976,0.435768685000817],[0.2958238831359758,0.4981115853391976,0.435768685000817],[0.2958238831359758,0.4981115853391976,0.435768685000817],[0.2958238831359758,0.4981115853391976,0.435768685000817],[0.2958238831359758,0.4981115853391976,0.435768685000817],[0.2958238831359758,0.4981115853391976,0.435768685000817],[0.2958238831359758,0.4981115853391976,0.435768685000817],[0.2958238831359758,0.4981115853391976,0.435768685000817],[0.2958238831359758,0.4981115853391976,0.435768685000817],[0.27544064951819147,0.49474284300181115,0.4360028596738028],[0.27544064951819147,0.49474284300181115,0.4360028596738028],[0.27544064951819147,0.49474284300181115,0.4360028596738028],[0.27544064951819147,0.49474284300181115,0.4360028596738028],[0.27544064951819147,0.49474284300181115,0.4360028596738028],[0.27544064951819147,0.49474284300181115,0.4360028596738028],[0.27544064951819147,0.49474284300181115,0.4360028596738028],[0.27544064951819147,0.49474284300181115,0.4360028596738028],[0.27544064951819147,0.49474284300181115,0.4360028596738028],[0.27544064951819147,0.49474284300181115,0.4360028596738028],[0.26378685213928693,0.4928168168688729,0.4361367454076084],[0.2562437416665216,0.4915701650332672,0.4362234051330169],[0.2562437416665216,0.4915701650332672,0.4362234051330169],[0.2562437416665216,0.4915701650332672,0.4362234051330169],[0.2562437416665216,0.4915701650332672,0.4362234051330169],[0.2562437416665216,0.4915701650332672,0.4362234051330169]]'
p37
sS'trueType'
p38
S'l2'
p39
sS'f1TypeProbHistory'
p40
(lp41
F0.25
aF0.0
aF0.0
aF0.0
aF0.0
aF0.0
aF0.0
aF0.0
aF0.0
aF0.0
aF0.0
aF0.0
aF0.0
aF0.0
aF0.0
aF0.0
aF0.0
aF0.0
aF0.0
aF0.0
aF0.0
aF0.0
aF0.0
aF0.0
aF0.0
aF0.0
aF0.0
aF0.0
aF0.0
aF0.0
aF0.0
aF0.0
aF0.0
aF0.0
aF0.0
aF0.0
aF0.0
aF0.0
aF0.0
aF0.0
aF0.0
aF0.0
aF0.0
aF0.0
aF0.0
aF0.0
aF0.0
aF0.0
aF0.0
aF0.0
aF0.0
aF0.0
asS'f2TypeProbHistory'
p42
(lp43
F0.25
aF0.0
aF0.0
aF0.0
aF0.0
aF0.0
aF0.0
aF0.0
aF0.0
aF0.0
aF0.0
aF0.0
aF0.0
aF0.0
aF0.0
aF0.0
aF0.0
aF0.0
aF0.0
aF0.0
aF0.0
aF0.0
aF0.0
aF0.0
aF0.0
aF0.0
aF0.0
aF0.0
aF0.0
aF0.0
aF0.0
aF0.0
aF0.0
aF0.0
aF0.0
aF0.0
aF0.0
aF0.0
aF0.0
aF0.0
aF0.0
aF0.0
aF0.0
aF0.0
aF0.0
aF0.0
aF0.0
aF0.0
aF0.0
aF0.0
aF0.0
aF0.0
asS'l2EstimationHistory'
p44
S'[[0.48,0.46,0.56],[0.48,0.46,0.56],[0.48,0.46,0.56],[0.48,0.46,0.56],[0.48,0.46,0.56],[0.5665352706115779,0.5643397936878118,0.43686579684811794],[0.5665352706115779,0.5643397936878118,0.43686579684811794],[0.5665352706115779,0.5643397936878118,0.43686579684811794],[0.5665352706115779,0.5643397936878118,0.43686579684811794],[0.5665352706115779,0.5643397936878118,0.43686579684811794],[0.5665352706115779,0.5643397936878118,0.43686579684811794],[0.5665352706115779,0.5643397936878118,0.43686579684811794],[0.5665352706115779,0.5643397936878118,0.43686579684811794],[0.5665352706115779,0.5643397936878118,0.43686579684811794],[0.5875212995092005,0.5812109586481694,0.4806451448125503],[0.5875212995092005,0.5812109586481694,0.4806451448125503],[0.5927780198032668,0.5700420965749281,0.47419813543139283],[0.5927780198032668,0.5700420965749281,0.47419813543139283],[0.5927780198032668,0.5700420965749281,0.47419813543139283],[0.5927780198032668,0.5700420965749281,0.47419813543139283],[0.5927780198032668,0.5700420965749281,0.47419813543139283],[0.5927780198032668,0.5700420965749281,0.47419813543139283],[0.5925936383523028,0.5552290462347773,0.4709257585890649],[0.5925936383523028,0.5552290462347773,0.4709257585890649],[0.5925936383523028,0.5552290462347773,0.4709257585890649],[0.5888416928771553,0.3435128908548299,0.4231595924588523],[0.5888416928771553,0.3435128908548299,0.4231595924588523],[0.5888416928771553,0.3435128908548299,0.4231595924588523],[0.5888416928771553,0.3435128908548299,0.4231595924588523],[0.5888416928771553,0.3435128908548299,0.4231595924588523],[0.5888416928771553,0.3435128908548299,0.4231595924588523],[0.5888416928771553,0.3435128908548299,0.4231595924588523],[0.5888416928771553,0.3435128908548299,0.4231595924588523],[0.5888416928771553,0.3435128908548299,0.4231595924588523],[0.5888416928771553,0.3435128908548299,0.4231595924588523],[0.5888416928771553,0.3435128908548299,0.4231595924588523],[0.5888416928771553,0.3435128908548299,0.4231595924588523],[0.5888416928771553,0.3435128908548299,0.4231595924588523],[0.5888416928771553,0.3435128908548299,0.4231595924588523],[0.5888416928771553,0.3435128908548299,0.4231595924588523],[0.5888416928771553,0.3435128908548299,0.4231595924588523],[0.5888416928771553,0.3435128908548299,0.4231595924588523],[0.5888416928771553,0.3435128908548299,0.4231595924588523],[0.5888416928771553,0.3435128908548299,0.4231595924588523],[0.5888416928771553,0.3435128908548299,0.4231595924588523],[0.5888416928771553,0.3435128908548299,0.4231595924588523],[0.5670309105750966,0.5471361539574261,0.48948647170872783],[0.5590065818184474,0.5752036896329022,0.5190412271917929],[0.5590065818184474,0.5752036896329022,0.5190412271917929],[0.5590065818184474,0.5752036896329022,0.5190412271917929],[0.5590065818184474,0.5752036896329022,0.5190412271917929],[0.5590065818184474,0.5752036896329022,0.5190412271917929]]'
p45
sS'f1EstimationHistory'
p46
S'[[0.84,0.87,0.93]]'
p47
sS'trueParameters'
p48
(lp49
F0.962
aF0.529
aF0.893
asS'f2EstimationHistory'
p50
S'[[0.33,0.97,0.63]]'
p51
sS'l1TypeProbHistory'
p52
(lp53
F0.25
aF0.5
aF0.5
aF0.5
aF0.5
aF0.43678160919540227
aF0.9867460102786043
aF0.9867460102786043
aF0.9867460102786043
aF0.9867460102786043
aF0.9867460102786043
aF0.9998601027245708
aF0.9998601027245708
aF0.9998601027245708
aF0.9998736394598547
aF0.9998736394598547
aF0.9997894168393592
aF0.9801805133420394
aF0.3400038483740619
aF0.34000384837406183
aF0.34000384837406183
aF0.34000384837406183
aF0.9286111963868524
aF0.9286111963868523
aF0.9286111963868524
aF0.9992394209243619
aF0.9998414505593107
aF0.9968385349081326
aF0.9403535324385748
aF0.4408011425198905
aF0.0379191010308226
aF0.0019668055759151874
aF0.009370631961861635
aF0.0004727399768126334
aF0.0004727399768126334
aF0.0004727399768126334
aF0.04559144766679066
aF0.0023827748295871583
aF0.0001194090400917559
aF0.0005729034350133157
aF2.8660770611902784e-05
aF1.4330775500467238e-06
aF7.165397505375405e-08
aF3.5826989965665963e-09
aF1.791349504380271e-10
aF8.956747523425597e-12
aF3.7692979159999564e-11
aF1.5862462061248213e-10
aF7.93123103181929e-12
aF3.965615515939524e-13
aF1.9034954476481033e-12
aF9.136778148644807e-12
assI1
(dp54
g32
(lp55
F0.25
aF0.5
aF0.5
aF0.5
aF0.5
aF0.5
aF0.5
aF0.5903614457831324
aF0.5903614457831325
aF0.5903614457831325
aF0.9928239763613339
aF0.9928239763613339
aF0.5903614457831324
aF0.5903614457831324
aF0.014790220344098997
aF0.014790220344098999
aF0.014790220344098999
aF0.10722100656455139
aF0.3751914241960183
aF0.006216223073605153
aF6.515311114083627e-05
aF6.515311114083627e-05
aF6.515311114083627e-05
aF6.515311114083627e-05
aF6.515311114083627e-05
aF6.515311114083627e-05
aF0.00013029773297899437
aF0.00013029773297899437
aF0.00013029773297899437
aF0.00013029773297899437
aF0.00013029773297899437
aF0.00013029773297899437
aF0.00013029773297899437
aF0.00013029773297899437
aF0.00013029773297899437
aF0.00013029773297899437
aF0.00013029773297899437
aF0.00013029773297899437
aF0.00013029773297899437
aF0.00013029773297899437
aF0.00013029773297899437
aF0.00013029773297899437
aF0.00013029773297899437
aF0.00013029773297899437
aF0.00026056151538323265
aF0.0002605615153832327
aF0.0005209872815308943
aF0.0010414319902402938
aF0.0010414319902402938
aF0.002080697075983659
aF0.002080697075983659
aF0.003117802013209298
asg34
S'l1'
p56
sg36
S'[[0.8,0.81,0.24],[0.8,0.81,0.24],[0.8,0.81,0.24],[0.8,0.81,0.24],[0.8,0.81,0.24],[0.8,0.81,0.24],[0.8,0.81,0.24],[0.5809081515274938,0.6483361021373525,0.5547911890112112],[0.5809081515274938,0.6483361021373525,0.5547911890112112],[0.5809081515274938,0.6483361021373525,0.5547911890112112],[0.5809081515274938,0.6483361021373525,0.5547911890112112],[0.5809081515274938,0.6483361021373525,0.5547911890112112],[0.5809081515274938,0.6483361021373525,0.5547911890112112],[0.5809081515274938,0.6483361021373525,0.5547911890112112],[0.5809081515274938,0.6483361021373525,0.5547911890112112],[0.5809081515274938,0.6483361021373525,0.5547911890112112],[0.5809081515274938,0.6483361021373525,0.5547911890112112],[0.6077314359234782,0.5992765253896798,0.5897487939856612],[0.6092234446988293,0.5945162826001571,0.5901102563886108],[0.6092234446988293,0.5945162826001571,0.5901102563886108],[0.6092234446988293,0.5945162826001571,0.5901102563886108],[0.6092234446988293,0.5945162826001571,0.5901102563886108],[0.6092234446988293,0.5945162826001571,0.5901102563886108],[0.6092234446988293,0.5945162826001571,0.5901102563886108],[0.6092234446988293,0.5945162826001571,0.5901102563886108],[0.6092234446988293,0.5945162826001571,0.5901102563886108],[0.6106519637390591,0.5899586033335927,0.5904563374127115],[0.6106519637390591,0.5899586033335927,0.5904563374127115],[0.6106519637390591,0.5899586033335927,0.5904563374127115],[0.6106519637390591,0.5899586033335927,0.5904563374127115],[0.6106519637390591,0.5899586033335927,0.5904563374127115],[0.6106519637390591,0.5899586033335927,0.5904563374127115],[0.6106519637390591,0.5899586033335927,0.5904563374127115],[0.6106519637390591,0.5899586033335927,0.5904563374127115],[0.6106519637390591,0.5899586033335927,0.5904563374127115],[0.6106519637390591,0.5899586033335927,0.5904563374127115],[0.6106519637390591,0.5899586033335927,0.5904563374127115],[0.6106519637390591,0.5899586033335927,0.5904563374127115],[0.6106519637390591,0.5899586033335927,0.5904563374127115],[0.6106519637390591,0.5899586033335927,0.5904563374127115],[0.6106519637390591,0.5899586033335927,0.5904563374127115],[0.6106519637390591,0.5899586033335927,0.5904563374127115],[0.6106519637390591,0.5899586033335927,0.5904563374127115],[0.6106519637390591,0.5899586033335927,0.5904563374127115],[0.6120209611526124,0.585590827369802,0.5907879983941414],[0.6120209611526124,0.585590827369802,0.5907879983941414],[0.6133340811207147,0.5814013279759618,0.5911061221926558],[0.614594676290093,0.5773794085578753,0.5914115210392296],[0.614594676290093,0.5773794085578753,0.5914115210392296],[0.6158058363547897,0.5735152114699098,0.5917049434604476],[0.6158058363547897,0.5735152114699098,0.5917049434604476],[0.6158058363547897,0.5735152114699098,0.5917049434604476]]'
p57
sg38
S'l2'
p58
sg40
(lp59
F0.25
aF0.0
aF0.0
aF0.0
aF0.0
aF0.0
aF0.0
aF0.0
aF0.0
aF0.0
aF0.0
aF0.0
aF0.0
aF0.0
aF0.0
aF0.0
aF0.0
aF0.0
aF0.0
aF0.0
aF0.0
aF0.0
aF0.0
aF0.0
aF0.0
aF0.0
aF0.0
aF0.0
aF0.0
aF0.0
aF0.0
aF0.0
aF0.0
aF0.0
aF0.0
aF0.0
aF0.0
aF0.0
aF0.0
aF0.0
aF0.0
aF0.0
aF0.0
aF0.0
aF0.0
aF0.0
aF0.0
aF0.0
aF0.0
aF0.0
aF0.0
aF0.0
asg42
(lp60
F0.25
aF0.0
aF0.0
aF0.0
aF0.0
aF0.0
aF0.0
aF0.0
aF0.0
aF0.0
aF0.0
aF0.0
aF0.0
aF0.0
aF0.0
aF0.0
aF0.0
aF0.0
aF0.0
aF0.0
aF0.0
aF0.0
aF0.0
aF0.0
aF0.0
aF0.0
aF0.0
aF0.0
aF0.0
aF0.0
aF0.0
aF0.0
aF0.0
aF0.0
aF0.0
aF0.0
aF0.0
aF0.0
aF0.0
aF0.0
aF0.0
aF0.0
aF0.0
aF0.0
aF0.0
aF0.0
aF0.0
aF0.0
aF0.0
aF0.0
aF0.0
aF0.0
asg44
S'[[0.01,0.78,0.28],[0.01,0.78,0.28],[0.01,0.78,0.28],[0.01,0.78,0.28],[0.01,0.78,0.28],[0.01,0.78,0.28],[0.01,0.78,0.28],[0.43870385408184087,0.6332553605292891,0.7002873677490858],[0.43870385408184087,0.6332553605292891,0.7002873677490858],[0.43870385408184087,0.6332553605292891,0.7002873677490858],[0.43870385408184087,0.6332553605292891,0.7002873677490858],[0.43870385408184087,0.6332553605292891,0.7002873677490858],[0.43870385408184087,0.6332553605292891,0.7002873677490858],[0.43870385408184087,0.6332553605292891,0.7002873677490858],[0.43870385408184087,0.6332553605292891,0.7002873677490858],[0.43870385408184087,0.6332553605292891,0.7002873677490858],[0.43870385408184087,0.6332553605292891,0.7002873677490858],[0.4478767371015606,0.6023032524971593,0.6949473495271403],[0.4489968998009853,0.6065843802209162,0.6829844228228379],[0.4489968998009853,0.6065843802209162,0.6829844228228379],[0.4489968998009853,0.6065843802209162,0.6829844228228379],[0.4489968998009853,0.6065843802209162,0.6829844228228379],[0.4489968998009853,0.6065843802209162,0.6829844228228379],[0.4489968998009853,0.6065843802209162,0.6829844228228379],[0.4489968998009853,0.6065843802209162,0.6829844228228379],[0.4489968998009853,0.6065843802209162,0.6829844228228379],[0.47007816064943425,0.6696699736807559,0.6372422291509815],[0.47007816064943425,0.6696699736807559,0.6372422291509815],[0.47007816064943425,0.6696699736807559,0.6372422291509815],[0.47007816064943425,0.6696699736807559,0.6372422291509815],[0.47007816064943425,0.6696699736807559,0.6372422291509815],[0.47007816064943425,0.6696699736807559,0.6372422291509815],[0.47007816064943425,0.6696699736807559,0.6372422291509815],[0.47007816064943425,0.6696699736807559,0.6372422291509815],[0.47007816064943425,0.6696699736807559,0.6372422291509815],[0.47007816064943425,0.6696699736807559,0.6372422291509815],[0.47007816064943425,0.6696699736807559,0.6372422291509815],[0.47007816064943425,0.6696699736807559,0.6372422291509815],[0.47007816064943425,0.6696699736807559,0.6372422291509815],[0.47007816064943425,0.6696699736807559,0.6372422291509815],[0.47007816064943425,0.6696699736807559,0.6372422291509815],[0.47007816064943425,0.6696699736807559,0.6372422291509815],[0.47007816064943425,0.6696699736807559,0.6372422291509815],[0.47007816064943425,0.6696699736807559,0.6372422291509815],[0.4689921194932344,0.6688724375122655,0.6336883900044307],[0.4689921194932344,0.6688724375122655,0.6336883900044307],[0.467935168725147,0.6680962639197171,0.6302297429778767],[0.4669061549817668,0.6673406059287337,0.6268625139344036],[0.4669061549817668,0.6673406059287337,0.6268625139344036],[0.46590398507517033,0.6666046607549065,0.6235831256485863],[0.46590398507517033,0.6666046607549065,0.6235831256485863],[0.46590398507517033,0.6666046607549065,0.6235831256485863]]'
p61
sg46
S'[[0.01,0.64,0.69]]'
p62
sg48
(lp63
F0.329
aF0.472
aF0.481
asg50
S'[[0.61,0.5,0.54]]'
p64
sg52
(lp65
F0.25
aF0.5
aF0.5
aF0.5
aF0.5
aF0.5
aF0.5
aF0.40963855421686746
aF0.4096385542168675
aF0.4096385542168675
aF0.007176023638666105
aF0.007176023638666105
aF0.4096385542168675
aF0.40963855421686757
aF0.985209779655901
aF0.9852097796559011
aF0.9852097796559011
aF0.8927789934354486
aF0.6248085758039817
aF0.9937837769263949
aF0.9999348468888591
aF0.9999348468888591
aF0.9999348468888591
aF0.9999348468888591
aF0.9999348468888591
aF0.9999348468888591
aF0.999869702267021
aF0.9998697022670211
aF0.9998697022670211
aF0.9998697022670211
aF0.9998697022670211
aF0.9998697022670211
aF0.9998697022670211
aF0.9998697022670211
aF0.9998697022670211
aF0.9998697022670211
aF0.9998697022670211
aF0.9998697022670211
aF0.9998697022670211
aF0.9998697022670211
aF0.9998697022670211
aF0.9998697022670211
aF0.9998697022670211
aF0.9998697022670211
aF0.9997394384846168
aF0.9997394384846169
aF0.9994790127184691
aF0.9989585680097597
aF0.9989585680097597
aF0.9979193029240163
aF0.9979193029240163
aF0.9968821979867908
assa.