(lp0
(dp1
S'iterationMax'
p2
I50
sS'CPU_Time'
p3
ccopy_reg
_reconstructor
p4
(cpsutil._pslinux
scputimes
p5
c__builtin__
tuple
p6
(F13722861.61
F1475.82
F571194.12
F237362448.43
F6911.26
F0.0
F1822.24
F0.0
F0.0
F0.0
tp7
tp8
Rp9
sS'itemsCounts'
p10
I10
sS'memory_usage'
p11
I211894272
sS'generatedDataNumber'
p12
I100
sS'typeSelectionMode'
p13
S'AS'
p14
sS'simHeight'
p15
I10
sS'mcts_mode'
p16
S'UCTH'
p17
sS'endTime'
p18
F1547571693.91547
sS'reuseTree'
p19
S'False'
p20
sS'beginTime'
p21
F1547571640.035103
sS'PF_add_threshold'
p22
F0.9
sS'PF_weight'
p23
F1.2
sS'timeSteps'
p24
I39
sS'agentsCounts'
p25
I2
sS'simWidth'
p26
I10
sS'estimationMode'
p27
S'AGA'
p28
sS'maxDepth'
p29
I50
sa(dp30
I0
(dp31
S'l2TypeProbHistory'
p32
(lp33
F0.25
aF0.5
aF0.9896907216494846
aF0.9998915048280351
aF0.9999988697206061
aF0.9999999882262431
aF0.9999999998773567
aF0.9999999999987225
aF0.9999999999999868
aF0.9999999999999999
aF0.9999999999999999
aF0.9999999999999999
aF0.9999999999999999
aF0.9999999999999999
aF0.9999999999999999
aF0.9999999999999999
aF0.9999999999999999
aF1.0
aF1.0
aF1.0
aF1.0
aF1.0
aF1.0
aF1.0
aF1.0
aF1.0
aF1.0
aF1.0
aF1.0
aF1.0
aF1.0
aF1.0
aF1.0
aF1.0
aF1.0
aF1.0
aF1.0
aF1.0
aF1.0
aF1.0
asS'maxProbability'
p34
S'l2'
p35
sS'l1EstimationHistory'
p36
S'[[0.91,0.97,0.17],[0.91,0.9699999999999999,0.16999999999999998],[0.91,0.9699999999999998,0.16999999999999996],[0.91,0.9699999999999996,0.16999999999999993],[0.91,0.9699999999999995,0.1699999999999999],[0.91,0.9699999999999994,0.16999999999999987],[0.91,0.9699999999999993,0.16999999999999985],[0.91,0.9699999999999992,0.16999999999999982],[0.91,0.9699999999999991,0.1699999999999998],[0.91,0.969999999999999,0.16999999999999976],[0.91,0.9699999999999989,0.16999999999999973],[0.91,0.9699999999999988,0.1699999999999997],[0.91,0.9699999999999986,0.16999999999999968],[0.91,0.9699999999999985,0.16999999999999965],[0.91,0.9699999999999984,0.16999999999999962],[0.91,0.9699999999999983,0.1699999999999996],[0.91,0.9699999999999982,0.16999999999999957],[0.91,0.9699999999999981,0.16999999999999954],[0.91,0.969999999999998,0.1699999999999995],[0.91,0.9699999999999979,0.16999999999999948],[0.91,0.9699999999999978,0.16999999999999946],[0.91,0.9699999999999976,0.16999999999999943],[0.91,0.9699999999999975,0.1699999999999994],[0.91,0.9699999999999974,0.16999999999999937],[0.91,0.9699999999999973,0.16999999999999935],[0.91,0.9699999999999972,0.16999999999999932],[0.91,0.9699999999999971,0.1699999999999993],[0.91,0.969999999999997,0.16999999999999926],[0.91,0.9699999999999969,0.16999999999999924],[0.91,0.9699999999999968,0.1699999999999992],[0.91,0.9699999999999966,0.16999999999999918],[0.91,0.9699999999999965,0.16999999999999915],[0.91,0.9699999999999964,0.16999999999999912],[0.91,0.9699999999999963,0.1699999999999991],[0.91,0.9699999999999962,0.16999999999999907],[0.91,0.9699999999999961,0.16999999999999904],[0.91,0.969999999999996,0.169999999999999],[0.91,0.9699999999999959,0.16999999999999899],[0.91,0.9699999999999958,0.16999999999999896],[0.91,0.9699999999999956,0.16999999999999893]]'
p37
sS'trueType'
p38
S'l2'
p39
sS'f1TypeProbHistory'
p40
(lp41
F0.25
aF0.0
aF0.0
aF0.0
aF0.0
aF0.0
aF0.0
aF0.0
aF0.0
aF0.0
aF0.0
aF0.0
aF0.0
aF0.0
aF0.0
aF0.0
aF0.0
aF0.0
aF0.0
aF0.0
aF0.0
aF0.0
aF0.0
aF0.0
aF0.0
aF0.0
aF0.0
aF0.0
aF0.0
aF0.0
aF0.0
aF0.0
aF0.0
aF0.0
aF0.0
aF0.0
aF0.0
aF0.0
aF0.0
aF0.0
asS'f2TypeProbHistory'
p42
(lp43
F0.25
aF0.0
aF0.0
aF0.0
aF0.0
aF0.0
aF0.0
aF0.0
aF0.0
aF0.0
aF0.0
aF0.0
aF0.0
aF0.0
aF0.0
aF0.0
aF0.0
aF0.0
aF0.0
aF0.0
aF0.0
aF0.0
aF0.0
aF0.0
aF0.0
aF0.0
aF0.0
aF0.0
aF0.0
aF0.0
aF0.0
aF0.0
aF0.0
aF0.0
aF0.0
aF0.0
aF0.0
aF0.0
aF0.0
aF0.0
asS'l2EstimationHistory'
p44
S'[[0.14,0.84,0.4],[0.14000000000000007,0.84,0.39999999999999997],[0.14000000000000012,0.84,0.3999999999999999],[0.14000000000000018,0.84,0.39999999999999986],[0.14000000000000024,0.84,0.3999999999999998],[0.1400000000000003,0.84,0.39999999999999974],[0.14000000000000035,0.84,0.3999999999999997],[0.1400000000000004,0.84,0.39999999999999963],[0.14000000000000046,0.84,0.3999999999999996],[0.1400000000000005,0.84,0.3999999999999995],[0.14000000000000057,0.84,0.39999999999999947],[0.14000000000000062,0.84,0.3999999999999994],[0.14000000000000068,0.84,0.39999999999999936],[0.14000000000000073,0.84,0.3999999999999993],[0.1400000000000008,0.84,0.39999999999999925],[0.14000000000000085,0.84,0.3999999999999992],[0.1400000000000009,0.84,0.39999999999999913],[0.14000000000000096,0.84,0.3999999999999991],[0.140000000000001,0.84,0.399999999999999],[0.14000000000000107,0.84,0.39999999999999897],[0.14000000000000112,0.84,0.3999999999999989],[0.14000000000000118,0.84,0.39999999999999886],[0.14000000000000123,0.84,0.3999999999999988],[0.1400000000000013,0.84,0.39999999999999875],[0.14000000000000135,0.84,0.3999999999999987],[0.1400000000000014,0.84,0.39999999999999863],[0.14000000000000146,0.84,0.3999999999999986],[0.1400000000000015,0.84,0.3999999999999985],[0.14000000000000157,0.84,0.39999999999999847],[0.14000000000000162,0.84,0.3999999999999984],[0.14000000000000168,0.84,0.39999999999999836],[0.14000000000000173,0.84,0.3999999999999983],[0.1400000000000018,0.84,0.39999999999999825],[0.14000000000000185,0.84,0.3999999999999982],[0.1400000000000019,0.84,0.39999999999999813],[0.14000000000000196,0.84,0.3999999999999981],[0.140000000000002,0.84,0.399999999999998],[0.14000000000000207,0.84,0.39999999999999797],[0.14000000000000212,0.84,0.3999999999999979],[0.14000000000000218,0.84,0.39999999999999786]]'
p45
sS'f1EstimationHistory'
p46
S'[[0.19,0.18,0.56]]'
p47
sS'trueParameters'
p48
(lp49
F0.023
aF0.202
aF0.83
asS'f2EstimationHistory'
p50
S'[[0.28,0.87,0.47]]'
p51
sS'l1TypeProbHistory'
p52
(lp53
F0.25
aF0.5
aF0.010309278350515465
aF0.00010849517196484758
aF1.1302793937633445e-06
aF1.1773756854048403e-08
aF1.2264330199193523e-10
aF1.2775343959043744e-12
aF1.3307649957354059e-14
aF1.386213537224399e-16
aF1.4439724346087491e-18
aF1.504137952717447e-20
aF1.5668103674140074e-22
aF1.6320941327229246e-24
aF1.7000980549197133e-26
aF1.7709354738747016e-28
aF1.8447244519528143e-30
aF1.8447244519528146e-30
aF1.8447244519528146e-30
aF1.8447244519528146e-30
aF1.921587970784182e-32
aF1.8447244519528146e-30
aF1.921587970784182e-32
aF1.921587970784182e-32
aF1.8447244519528146e-30
aF1.7709354738747018e-28
aF1.7000980549197136e-26
aF1.632094132722925e-24
aF1.566810367414008e-22
aF1.566810367414008e-22
aF1.566810367414008e-22
aF1.6320941327229251e-24
aF1.6320941327229253e-24
aF3.4001961098394284e-25
aF6.800392219678857e-24
aF1.3600784439357716e-22
aF2.7201568878715436e-21
aF2.7201568878715436e-21
aF2.7201568878715436e-21
aF2.7201568878715436e-21
assI1
(dp54
g32
(lp55
F0.25
aF0.9896907216494846
aF0.9896907216494846
aF0.5
aF0.5
aF0.5
aF0.5
aF0.5
aF0.5
aF0.5
aF0.5
aF0.5
aF0.5
aF0.5
aF0.5
aF0.5
aF0.5
aF0.5
aF0.5
aF0.5
aF0.5
aF0.5
aF0.5
aF0.5
aF0.5
aF0.5
aF0.5
aF0.5
aF0.5
aF0.5
aF0.5
aF0.5
aF0.5
aF0.5
aF0.5
aF0.5
aF0.5
aF0.5
aF0.5
aF0.5
asg34
S'l1'
p56
sg36
S'[[0.35,0.93,0.37],[0.3499999999999999,0.9299999999999999,0.37],[0.34999999999999987,0.9299999999999998,0.37],[0.3499999999999998,0.9299999999999997,0.37],[0.34999999999999976,0.9299999999999996,0.37],[0.3499999999999997,0.9299999999999995,0.37],[0.34999999999999964,0.9299999999999994,0.37],[0.3499999999999996,0.9299999999999993,0.37],[0.34999999999999953,0.9299999999999992,0.37],[0.3499999999999995,0.929999999999999,0.37],[0.3499999999999994,0.9299999999999989,0.37],[0.34999999999999937,0.9299999999999988,0.37],[0.3499999999999993,0.9299999999999987,0.37],[0.34999999999999926,0.9299999999999986,0.37],[0.3499999999999992,0.9299999999999985,0.37],[0.34999999999999915,0.9299999999999984,0.37],[0.3499999999999991,0.9299999999999983,0.37],[0.34999999999999903,0.9299999999999982,0.37],[0.349999999999999,0.929999999999998,0.37],[0.3499999999999989,0.9299999999999979,0.37],[0.34999999999999887,0.9299999999999978,0.37],[0.3499999999999988,0.9299999999999977,0.37],[0.34999999999999876,0.9299999999999976,0.37],[0.3499999999999987,0.9299999999999975,0.37],[0.34999999999999865,0.9299999999999974,0.37],[0.3499999999999986,0.9299999999999973,0.37],[0.34999999999999853,0.9299999999999972,0.37],[0.3499999999999985,0.929999999999997,0.37],[0.3499999999999984,0.9299999999999969,0.37],[0.34999999999999837,0.9299999999999968,0.37],[0.3499999999999983,0.9299999999999967,0.37],[0.34999999999999826,0.9299999999999966,0.37],[0.3499999999999982,0.9299999999999965,0.37],[0.34999999999999815,0.9299999999999964,0.37],[0.3499999999999981,0.9299999999999963,0.37],[0.34999999999999803,0.9299999999999962,0.37],[0.349999999999998,0.929999999999996,0.37],[0.3499999999999979,0.9299999999999959,0.37],[0.34999999999999787,0.9299999999999958,0.37],[0.3499999999999978,0.9299999999999957,0.37]]'
p57
sg38
S'l2'
p58
sg40
(lp59
F0.25
aF0.0
aF0.0
aF0.0
aF0.0
aF0.0
aF0.0
aF0.0
aF0.0
aF0.0
aF0.0
aF0.0
aF0.0
aF0.0
aF0.0
aF0.0
aF0.0
aF0.0
aF0.0
aF0.0
aF0.0
aF0.0
aF0.0
aF0.0
aF0.0
aF0.0
aF0.0
aF0.0
aF0.0
aF0.0
aF0.0
aF0.0
aF0.0
aF0.0
aF0.0
aF0.0
aF0.0
aF0.0
aF0.0
aF0.0
asg42
(lp60
F0.25
aF0.0
aF0.0
aF0.0
aF0.0
aF0.0
aF0.0
aF0.0
aF0.0
aF0.0
aF0.0
aF0.0
aF0.0
aF0.0
aF0.0
aF0.0
aF0.0
aF0.0
aF0.0
aF0.0
aF0.0
aF0.0
aF0.0
aF0.0
aF0.0
aF0.0
aF0.0
aF0.0
aF0.0
aF0.0
aF0.0
aF0.0
aF0.0
aF0.0
aF0.0
aF0.0
aF0.0
aF0.0
aF0.0
aF0.0
asg44
S'[[0.43,0.53,0.4],[0.43,0.53,0.4],[0.43,0.53,0.4],[0.43,0.53,0.4],[0.43,0.53,0.4],[0.43,0.53,0.4],[0.43,0.53,0.4],[0.43,0.53,0.4],[0.43,0.53,0.4],[0.43,0.53,0.4],[0.43,0.53,0.4],[0.43,0.53,0.4],[0.43,0.53,0.4],[0.43,0.53,0.4],[0.43,0.53,0.4],[0.43,0.53,0.4],[0.43,0.53,0.4],[0.43,0.53,0.4],[0.43,0.53,0.4],[0.43,0.53,0.4],[0.43,0.53,0.4],[0.43,0.53,0.4],[0.43,0.53,0.4],[0.43,0.53,0.4],[0.43,0.53,0.4],[0.43,0.53,0.4],[0.43,0.53,0.4],[0.43,0.53,0.4],[0.43,0.53,0.4],[0.43,0.53,0.4],[0.43,0.53,0.4],[0.43,0.53,0.4],[0.43,0.53,0.4],[0.43,0.53,0.4],[0.43,0.53,0.4],[0.43,0.53,0.4],[0.43,0.53,0.4],[0.43,0.53,0.4],[0.43,0.53,0.4],[0.43,0.53,0.4]]'
p61
sg46
S'[[0.86,0.97,0.64]]'
p62
sg48
(lp63
F0.168
aF0.241
aF0.892
asg50
S'[[0.68,0.25,0.27]]'
p64
sg52
(lp65
F0.25
aF0.010309278350515465
aF0.010309278350515465
aF0.5
aF0.5
aF0.5
aF0.5
aF0.5
aF0.5
aF0.5
aF0.5
aF0.5
aF0.5
aF0.5
aF0.5
aF0.5
aF0.5
aF0.5
aF0.5
aF0.5
aF0.5
aF0.5
aF0.5
aF0.5
aF0.5
aF0.5
aF0.5
aF0.5
aF0.5
aF0.5
aF0.5
aF0.5
aF0.5
aF0.5
aF0.5
aF0.5
aF0.5
aF0.5
aF0.5
aF0.5
assa.