(lp0
(dp1
S'iterationMax'
p2
I50
sS'CPU_Time'
p3
ccopy_reg
_reconstructor
p4
(cpsutil._pslinux
scputimes
p5
c__builtin__
tuple
p6
(F17103585.56
F888.7
F1054600.46
F233391728.16
F19509.38
F0.0
F2189.32
F0.0
F0.0
F0.0
tp7
tp8
Rp9
sS'itemsCounts'
p10
I10
sS'memory_usage'
p11
I194551808
sS'generatedDataNumber'
p12
I100
sS'typeSelectionMode'
p13
S'AS'
p14
sS'simHeight'
p15
I10
sS'mcts_mode'
p16
S'UCTH'
p17
sS'endTime'
p18
F1547570306.403815
sS'reuseTree'
p19
S'False'
p20
sS'beginTime'
p21
F1547570228.201358
sS'PF_add_threshold'
p22
F0.9
sS'PF_weight'
p23
F1.2
sS'timeSteps'
p24
I36
sS'agentsCounts'
p25
I2
sS'simWidth'
p26
I10
sS'estimationMode'
p27
S'ABU'
p28
sS'maxDepth'
p29
I50
sa(dp30
I0
(dp31
S'l2TypeProbHistory'
p32
(lp33
F0.25
aF0.5
aF0.5
aF0.5
aF0.5
aF0.010309278350515465
aF0.010309278350515465
aF0.010309278350515465
aF0.00010849517196484758
aF0.010309278350515465
aF0.010309278350515467
aF0.00010849517196484759
aF0.00010849517196484762
aF0.010309278350515467
aF0.010309278350515467
aF0.010309278350515467
aF0.010309278350515469
aF0.010309278350515469
aF0.010309278350515469
aF0.010309278350515469
aF0.0021654395842356008
aF0.0021654395842356008
aF0.0021654395842356008
aF0.0021654395842356008
aF0.0021654395842356003
aF0.0021654395842356003
aF0.0021654395842356
aF0.0021654395842356
aF0.0021654395842356
aF0.0021654395842356
aF0.0021654395842355995
aF0.0021654395842355995
aF0.0021654395842355995
aF0.002165439584235599
aF0.00010849517196484752
aF0.00010849517196484754
aF0.00010849517196484752
asS'maxProbability'
p34
S'l1'
p35
sS'l1EstimationHistory'
p36
S'[[0.22,0.7,0.98],[0.3962551136191233,0.5751781406994902,0.5472652210437936],[0.49854150634100297,0.5343703661842599,0.491882193901551],[0.5259043831967839,0.529803150579094,0.7190840112735392],[0.2867582967826095,0.519593364215962,0.7256829995463088],[0.4961273474243136,0.48796446533777366,0.6392157771227203],[0.5068386524050824,0.5627598826594543,0.5178695967609233],[0.5489731499788122,0.48994583663326124,0.5885316581534663],[0.4102154890290831,0.3864260741039903,0.4346258669823335],[0.3534605138857695,0.6245319637865286,0.6048321098318488],[0.31055144997009976,0.5159378029632704,0.5382763744084808],[0.4027861678520982,0.6114219631412398,0.6551476164568754],[0.526897764234892,0.5815038780798435,0.4912746619546235],[0.6829624800658225,0.6437983828699931,0.5844639031271963],[0.5177533739271215,0.6456566944481571,0.6067500851057522],[0.6436610651884929,0.47887531129154526,0.6198396448721276],[0.5612730848256631,0.4885761246775989,0.5327573212740179],[0.5275085769547995,0.5847411565307945,0.47565338166929727],[0.5210824667261682,0.5482456494960826,0.5671952965787342],[0.42152510369611135,0.5204715901589801,0.6028863436554578],[0.727692279869802,0.5504399920049212,0.4267947359605639],[0.4469133970870246,0.5599488535529453,0.5133364357823705],[0.4979617102273329,0.42426599937413634,0.510206183565606],[0.36522464611467964,0.6003580299167376,0.6509988549453405],[0.5937643070887002,0.5369548116460374,0.6299963063292869],[0.6494423255324364,0.4916561914595018,0.6588497449538984],[0.6499686606228352,0.6372706448060041,0.5579536421821055],[0.5212379038333893,0.4339771686630187,0.4916811689954925],[0.5825615838170052,0.5984083911115079,0.5756319839233865],[0.43785484209656717,0.5887164134121315,0.6830383667518396],[0.5057790920138359,0.5542416174451258,0.6291561109902476],[0.3428677640855312,0.5095410396810183,0.3711803867260585],[0.4202263593673706,0.5936393518426318,0.6898166456265972],[0.5352409824728965,0.5126640414208505,0.5410163517606998],[0.7651741065084934,0.4473505786482101,0.4848456523447912],[0.5356348134577275,0.5232446600113195,0.5344544318653083],[0.4660576269030571,0.5017092934241483,0.45711000261996915]]'
p37
sS'trueType'
p38
S'l1'
p39
sS'f1TypeProbHistory'
p40
(lp41
F0.25
aF0.0
aF0.0
aF0.0
aF0.0
aF0.0
aF0.0
aF0.0
aF0.0
aF0.0
aF0.0
aF0.0
aF0.0
aF0.0
aF0.0
aF0.0
aF0.0
aF0.0
aF0.0
aF0.0
aF0.0
aF0.0
aF0.0
aF0.0
aF0.0
aF0.0
aF0.0
aF0.0
aF0.0
aF0.0
aF0.0
aF0.0
aF0.0
aF0.0
aF0.0
aF0.0
aF0.0
asS'f2TypeProbHistory'
p42
(lp43
F0.25
aF0.0
aF0.0
aF0.0
aF0.0
aF0.0
aF0.0
aF0.0
aF0.0
aF0.0
aF0.0
aF0.0
aF0.0
aF0.0
aF0.0
aF0.0
aF0.0
aF0.0
aF0.0
aF0.0
aF0.0
aF0.0
aF0.0
aF0.0
aF0.0
aF0.0
aF0.0
aF0.0
aF0.0
aF0.0
aF0.0
aF0.0
aF0.0
aF0.0
aF0.0
aF0.0
aF0.0
asS'l2EstimationHistory'
p44
S'[[0.11,0.97,0.4],[0.5076811911015418,0.5410809112706947,0.5418083354830742],[0.49933533448647804,0.6179325767447933,0.6025940021453888],[0.5475029933100598,0.5847994228414458,0.5465702244144094],[0.47914944648071583,0.6275600769771339,0.5054475358065595],[0.3920444305032583,0.5051415353607344,0.5141135903774845],[0.39607048399247047,0.6450181969922439,0.6550603020222461],[0.5049223076162296,0.5924640209170443,0.6936507952916846],[0.5538766193697053,0.6770555958442237,0.4287259445779109],[0.5523487546536496,0.4897464092260388,0.38567405887161077],[0.6815851995908236,0.6550523969506601,0.6342449250739158],[0.4009431900515158,0.5413589571761909,0.6182142842274894],[0.45812203142772645,0.6232491658558393,0.44894883719789347],[0.6352659914221874,0.4623281961390471,0.5339872377863651],[0.6257552592141489,0.4565728922657738,0.4647598111565198],[0.4851939882533408,0.7145452724536019,0.48120839759877165],[0.34793920791758953,0.573697137792742,0.4614655092298797],[0.463789215613872,0.6688876858483673,0.40185866224826716],[0.6051342267786144,0.6619858696704485,0.5904738061767095],[0.4937515473462244,0.7454490076261777,0.5744423362804382],[0.5813574653340892,0.4810097798385212,0.5203770871234875],[0.3126818979614545,0.5081851585692263,0.5364805992047668],[0.5863636041198379,0.6677583484989779,0.4782735760478857],[0.493084621966691,0.44461386332234004,0.6063109496945384],[0.3994163291663817,0.6524309008938431,0.5348183408252826],[0.4479390911757946,0.4177003584712537,0.6332352372166508],[0.5477061860263348,0.5799099849611984,0.5229503706704606],[0.612417358905077,0.45731213318579256,0.4882201894629402],[0.5134337350726128,0.4237666837032045,0.5113510548830927],[0.39948250703580257,0.40476339306089776,0.5159894349783103],[0.5443031549453735,0.7858903307574512,0.47922096925581903],[0.5152269192039967,0.5004877679945547,0.5362522689501403],[0.44797804653644563,0.5486450025355823,0.6186092089538426],[0.5557880595326423,0.5669743463028899,0.6063282061707354],[0.48839162439107897,0.7175107557861262,0.5729410034549283],[0.5631563149392604,0.5400574959824883,0.5260057310388353],[0.4040720872581005,0.4848903172698528,0.6261891389150072]]'
p45
sS'f1EstimationHistory'
p46
S'[[0.21,0.95,0.59]]'
p47
sS'trueParameters'
p48
(lp49
F0.679
aF0.718
aF0.908
asS'f2EstimationHistory'
p50
S'[[0.64,0.97,0.81]]'
p51
sS'l1TypeProbHistory'
p52
(lp53
F0.25
aF0.5
aF0.5
aF0.5
aF0.5
aF0.9896907216494846
aF0.9896907216494846
aF0.9896907216494846
aF0.9998915048280351
aF0.9896907216494845
aF0.9896907216494846
aF0.9998915048280351
aF0.9998915048280352
aF0.9896907216494845
aF0.9896907216494845
aF0.9896907216494845
aF0.9896907216494846
aF0.9896907216494846
aF0.9896907216494846
aF0.9896907216494846
aF0.9978345604157643
aF0.9978345604157643
aF0.9978345604157643
aF0.9978345604157645
aF0.9978345604157643
aF0.9978345604157645
aF0.9978345604157643
aF0.9978345604157645
aF0.9978345604157643
aF0.9978345604157645
aF0.9978345604157643
aF0.9978345604157643
aF0.9978345604157645
aF0.9978345604157643
aF0.9998915048280351
aF0.9998915048280352
aF0.9998915048280351
assI1
(dp54
g32
(lp55
F0.25
aF0.010309278350515465
aF0.010309278350515465
aF0.00010849517196484758
aF1.1302793937633445e-06
aF1.1302793937633447e-06
aF1.1302793937633447e-06
aF1.1773756854048405e-08
aF1.1773756854048407e-08
aF1.1773756854048407e-08
aF1.2264330199193528e-10
aF1.2264330199193526e-10
aF1.2264330199193526e-10
aF1.2264330199193526e-10
aF1.2775343959043748e-12
aF1.3307649957354064e-14
aF1.3307649957354062e-14
aF1.277534395904375e-12
aF1.2264330199193528e-10
aF1.2264330199193528e-10
aF1.2264330199193528e-10
aF1.2264330199193528e-10
aF1.2264330199193528e-10
aF1.2264330199193528e-10
aF6.132165100311229e-12
aF6.13216510031123e-12
aF6.13216510031123e-12
aF3.066082550173476e-13
aF3.0660825501734766e-13
aF3.193835989765007e-15
aF3.193835989765007e-15
aF1.5969179948825088e-16
aF1.5969179948825088e-16
aF1.5969179948825088e-16
aF1.5969179948825088e-16
aF1.5969179948825088e-16
aF1.5969179948825088e-16
asg34
g35
sg36
S'[[0.47,0.8,0.47],[0.5387543857097625,0.7094911567866802,0.5250564314424991],[0.5403768268167357,0.5058830678462982,0.4045914595451343],[0.425323611497879,0.5296059992164374,0.4685450470830329],[0.45748078301548956,0.4273475665599108,0.6491450424580612],[0.4169614642858505,0.6428146321326494,0.5494747747701538],[0.5395961418747902,0.6054931428283453,0.5462972757490621],[0.6743128020316362,0.5611112043261528,0.6300541371124353],[0.3984549459069967,0.5341737650334835,0.513240788333295],[0.4712625317275524,0.5400548024103046,0.5871565786000275],[0.47679368294775487,0.5329668695107103,0.6462601931614528],[0.5455912403762341,0.6155274039134383,0.5632485578816195],[0.3132832612842321,0.6951921252533794,0.706878486504408],[0.5549234665930272,0.6294452797621488,0.558004630399128],[0.42363560386002064,0.4150536544620991,0.5830767449509024],[0.4447857700288296,0.5227862564846874,0.4137685315918554],[0.37580096181482076,0.5374538503587246,0.4619515596738812],[0.46528492830693724,0.5844644241034984,0.6741726341008795],[0.5466568736359477,0.6420511521399022,0.5456909576945352],[0.47994245309382677,0.5700822584331036,0.5374988699220669],[0.46092393174767493,0.5533173611387611,0.5821927413400405],[0.33639873247593644,0.7782402079552412,0.6587876077336731],[0.36820036433637143,0.41911167986691,0.48121908382523904],[0.64861283544451,0.563773738220334,0.5503486563545898],[0.6346741873770952,0.48742034174501897,0.40819469960589805],[0.5428716218098998,0.5929315250366927,0.5281493655568951],[0.5333746872842312,0.49440095126628875,0.46851674013585154],[0.44945376794785263,0.562464901804924,0.5079280944633571],[0.5786950595676899,0.6721104018390178,0.63291146303308],[0.6221262469887734,0.52785749360919,0.48740174030567207],[0.49340097643435,0.5651499893516302,0.48627900165067894],[0.6236849304288625,0.4491241928189993,0.641448236262074],[0.3442201234400272,0.6827112477272749,0.5190286459866682],[0.39933961946517227,0.5233612418174743,0.6900170665029538],[0.4322765126824379,0.6509768169373273,0.6621470306788563],[0.4035057855769992,0.6649236850440502,0.5170578180578673],[0.3815724678337574,0.4645139630883932,0.41363216280779386]]'
p56
sg38
S'l1'
p57
sg40
(lp58
F0.25
aF0.0
aF0.0
aF0.0
aF0.0
aF0.0
aF0.0
aF0.0
aF0.0
aF0.0
aF0.0
aF0.0
aF0.0
aF0.0
aF0.0
aF0.0
aF0.0
aF0.0
aF0.0
aF0.0
aF0.0
aF0.0
aF0.0
aF0.0
aF0.0
aF0.0
aF0.0
aF0.0
aF0.0
aF0.0
aF0.0
aF0.0
aF0.0
aF0.0
aF0.0
aF0.0
aF0.0
asg42
(lp59
F0.25
aF0.0
aF0.0
aF0.0
aF0.0
aF0.0
aF0.0
aF0.0
aF0.0
aF0.0
aF0.0
aF0.0
aF0.0
aF0.0
aF0.0
aF0.0
aF0.0
aF0.0
aF0.0
aF0.0
aF0.0
aF0.0
aF0.0
aF0.0
aF0.0
aF0.0
aF0.0
aF0.0
aF0.0
aF0.0
aF0.0
aF0.0
aF0.0
aF0.0
aF0.0
aF0.0
aF0.0
asg44
S'[[0.47,0.85,0.79],[0.6565985278003542,0.5857476808130742,0.4289635866880417],[0.49084185883402826,0.6283420793712139,0.4694254338546876],[0.5302900888025761,0.5532934356480836,0.5631920815186071],[0.43112350180745124,0.5917047671973705,0.3460580711120679],[0.35558933243155477,0.47585140690207484,0.46240210146952937],[0.5173876862972975,0.6409567400813103,0.5695340264978284],[0.3804752789437771,0.5463718976825476,0.4460514582703473],[0.4740190103650093,0.6016403133049607,0.4657351831663698],[0.4920050609856844,0.5596727726981043,0.5700114497373392],[0.5849971856921912,0.5827134571969509,0.591373216735633],[0.5175334803760052,0.47613048627972604,0.42311830498156394],[0.41442421115934847,0.7303289135918021,0.4219058552308012],[0.45967544578015807,0.5453677615150809,0.5839111447389979],[0.5899681404232979,0.4364950068295002,0.5471126812235909],[0.38981128167361023,0.6054596267640591,0.7461409833455648],[0.45182372760027645,0.5287972355261445,0.6249998404550816],[0.41903850585222246,0.6645864179357887,0.5751867502633258],[0.40521434117108585,0.48677448350936176,0.47753063434133375],[0.5548510620370507,0.626797272078693,0.5852778323080711],[0.5099831411615015,0.5147881131619215,0.6751003752668054],[0.5986030545085669,0.4161241756752133,0.6134848350874558],[0.5508118214085698,0.6116808988153934,0.505728386602377],[0.36368282288312914,0.568006194755435,0.5375249847273494],[0.5107165969908237,0.5827934622764588,0.6402926001561521],[0.4821246499195695,0.4708084411919117,0.6290202677648506],[0.5278087597340345,0.53640201613307,0.6234152977037326],[0.5689848493784666,0.5845061138272285,0.4377146620239185],[0.7087008995935321,0.6553600542247295,0.618507578362365],[0.5464221945032477,0.6408191937953234,0.663291313544364],[0.6692123321816326,0.45389620289206506,0.4898706376879295],[0.5489661268889904,0.6301900777965784,0.47294498250183636],[0.5898674424737692,0.39261250421404836,0.48604592419542547],[0.5953205924481153,0.6420446049422026,0.5152946228667037],[0.6160792950540781,0.57467993311584,0.6152613492065074],[0.5435201890766621,0.47726456038653853,0.47453522653757707],[0.5389131700620056,0.4637127429246902,0.3892766909863554]]'
p60
sg46
S'[[0.48,0.28,0.57]]'
p61
sg48
(lp62
F0.797
aF0.994
aF0.821
asg50
S'[[0.82,0.68,0.28]]'
p63
sg52
(lp64
F0.25
aF0.9896907216494846
aF0.9896907216494846
aF0.9998915048280351
aF0.9999988697206061
aF0.9999988697206063
aF0.9999988697206064
aF0.999999988226243
aF0.9999999882262431
aF0.9999999882262433
aF0.9999999998773568
aF0.9999999998773567
aF0.9999999998773567
aF0.9999999998773567
aF0.9999999999987225
aF0.9999999999999868
aF0.9999999999999867
aF0.9999999999987226
aF0.9999999998773567
aF0.9999999998773567
aF0.9999999998773567
aF0.9999999998773567
aF0.9999999998773567
aF0.9999999998773567
aF0.9999999999938678
aF0.9999999999938678
aF0.9999999999938679
aF0.9999999999996934
aF0.9999999999996934
aF0.9999999999999967
aF0.9999999999999967
aF0.9999999999999999
aF0.9999999999999999
aF0.9999999999999999
aF0.9999999999999999
aF0.9999999999999999
aF0.9999999999999999
assa.