(lp0
(dp1
S'iterationMax'
p2
I50
sS'CPU_Time'
p3
ccopy_reg
_reconstructor
p4
(cpsutil._pslinux
scputimes
p5
c__builtin__
tuple
p6
(F17105765.39
F888.7
F1054617.94
F233407647.36
F19509.5
F0.0
F2189.44
F0.0
F0.0
F0.0
tp7
tp8
Rp9
sS'itemsCounts'
p10
I10
sS'memory_usage'
p11
I229326848
sS'generatedDataNumber'
p12
I100
sS'typeSelectionMode'
p13
S'AS'
p14
sS'simHeight'
p15
I10
sS'mcts_mode'
p16
S'UCTH'
p17
sS'endTime'
p18
F1547572572.104301
sS'reuseTree'
p19
S'False'
p20
sS'beginTime'
p21
F1547572296.918168
sS'PF_add_threshold'
p22
F0.9
sS'PF_weight'
p23
F1.2
sS'timeSteps'
p24
I79
sS'agentsCounts'
p25
I2
sS'simWidth'
p26
I10
sS'estimationMode'
p27
S'MIN'
p28
sS'maxDepth'
p29
I50
sa(dp30
I0
(dp31
S'l2TypeProbHistory'
p32
(lp33
F0.25
aF0.5
aF0.5
aF0.5
aF0.5
aF0.5
aF0.5
aF0.9896907216494846
aF0.9998915048280351
aF0.9999988697206061
aF0.9999988697206063
aF0.9999988697206064
aF0.9999988697206064
aF0.9999988697206064
aF0.9999988697206064
aF0.9999988697206064
aF0.9999988697206064
aF0.9999988697206064
aF0.9999988697206064
aF0.9999988697206064
aF0.9999988697206064
aF0.9999988697206064
aF0.9999988697206064
aF0.9999988697206064
aF0.9999988697206064
aF0.9999988697206064
aF0.9999988697206064
aF0.9999988697206064
aF0.9999988697206064
aF0.9999988697206064
aF0.9999988697206064
aF0.9999988697206064
aF0.9999988697206064
aF0.9999988697206064
aF0.9999988697206064
aF0.9999988697206064
aF0.9999988697206064
aF0.9999988697206064
aF0.9999988697206064
aF0.9999988697206064
aF0.9999988697206064
aF0.9999988697206064
aF0.9999988697206064
aF0.9999988697206064
aF0.9999988697206064
aF0.9999988697206064
aF0.9999988697206064
aF0.9999988697206061
aF0.9999988697206063
aF0.9999988697206061
aF0.9999988697206063
aF0.9999988697206061
aF0.9999988697206063
aF0.9999999434859695
aF0.9999999994113122
aF0.9999999999705657
aF0.9999999999705655
aF0.9999999999705655
aF0.9999999998587149
aF0.9999999993218316
aF0.9999999993218316
aF0.9999999959309896
aF0.9999999511718772
aF0.9999999511718773
aF0.9999999511718773
aF0.9999999511718773
aF0.9999999511718773
aF0.9999999511718773
aF0.9999999511718773
aF0.999999990234375
aF0.999999990234375
aF0.999999990234375
aF0.9999999951171876
aF0.9999999951171875
aF0.9999999951171876
aF0.9999999951171875
aF0.9999999951171876
aF0.9999999951171875
aF0.9999999951171876
aF0.9999999951171875
asS'maxProbability'
p34
S'l2'
p35
sS'l1EstimationHistory'
p36
S'[[0.24,0.38,0.86],[0.24,0.38,0.86],[0.24,0.38,0.86],[0.24,0.38,0.86],[0.24,0.38,0.86],[0.24,0.38,0.86],[0.24,0.38,0.86],[0.24,0.38,0.86],[0.24,0.38,0.86],[0.24,0.38,0.86],[0.24,0.38,0.86],[0.24,0.38,0.86],[0.24,0.38,0.86],[0.24,0.38,0.86],[0.24,0.38,0.86],[0.24,0.38,0.86],[0.24,0.38,0.86],[0.24,0.38,0.86],[0.24,0.38,0.86],[0.24,0.38,0.86],[0.24,0.38,0.86],[0.24,0.38,0.86],[0.24,0.38,0.86],[0.24,0.38,0.86],[0.24,0.38,0.86],[0.24,0.38,0.86],[0.24,0.38,0.86],[0.24,0.38,0.86],[0.24,0.38,0.86],[0.24,0.38,0.86],[0.24,0.38,0.86],[0.24,0.38,0.86],[0.24,0.38,0.86],[0.24,0.38,0.86],[0.24,0.38,0.86],[0.24,0.38,0.86],[0.24,0.38,0.86],[0.24,0.38,0.86],[0.24,0.38,0.86],[0.24,0.38,0.86],[0.24,0.38,0.86],[0.24,0.38,0.86],[0.24,0.38,0.86],[0.24,0.38,0.86],[0.24,0.38,0.86],[0.24,0.38,0.86],[0.24,0.38,0.86],[0.24,0.38,0.86],[0.24,0.38,0.86],[0.24,0.38,0.86],[0.24,0.38,0.86],[0.24,0.38,0.86],[0.24,0.38,0.86],[0.24,0.38,0.86],[0.24,0.38,0.86],[0.24,0.38,0.86],[0.24,0.38,0.86],[0.24,0.38,0.86],[0.24,0.38,0.86],[0.24,0.38,0.86],[0.24,0.38,0.86],[0.4765118758370746,0.7571595438617301,0.7718240478119808],[0.48814003271291134,0.7565325423011089,0.7592670255138898],[0.48814003271291134,0.7565325423011089,0.7592670255138898],[0.48814003271291134,0.7565325423011089,0.7592670255138898],[0.48814003271291134,0.7565325423011089,0.7592670255138898],[0.48814003271291134,0.7565325423011089,0.7592670255138898],[0.48814003271291134,0.7565325423011089,0.7592670255138898],[0.48814003271291134,0.7565325423011089,0.7592670255138898],[0.4940518707872166,0.6352397576132848,0.7157716214357932],[0.4940518707872166,0.6352397576132848,0.7157716214357932],[0.4940518707872166,0.6352397576132848,0.7157716214357932],[0.4940518707872166,0.6352397576132848,0.7157716214357932],[0.4940518707872166,0.6352397576132848,0.7157716214357932],[0.4940518707872166,0.6352397576132848,0.7157716214357932],[0.4940518707872166,0.6352397576132848,0.7157716214357932],[0.4940518707872166,0.6352397576132848,0.7157716214357932],[0.4940518707872166,0.6352397576132848,0.7157716214357932],[0.4940518707872166,0.6352397576132848,0.7157716214357932],[0.4940518707872166,0.6352397576132848,0.7157716214357932]]'
p37
sS'trueType'
p38
S'l2'
p39
sS'f1TypeProbHistory'
p40
(lp41
F0.25
aF0.0
aF0.0
aF0.0
aF0.0
aF0.0
aF0.0
aF0.0
aF0.0
aF0.0
aF0.0
aF0.0
aF0.0
aF0.0
aF0.0
aF0.0
aF0.0
aF0.0
aF0.0
aF0.0
aF0.0
aF0.0
aF0.0
aF0.0
aF0.0
aF0.0
aF0.0
aF0.0
aF0.0
aF0.0
aF0.0
aF0.0
aF0.0
aF0.0
aF0.0
aF0.0
aF0.0
aF0.0
aF0.0
aF0.0
aF0.0
aF0.0
aF0.0
aF0.0
aF0.0
aF0.0
aF0.0
aF0.0
aF0.0
aF0.0
aF0.0
aF0.0
aF0.0
aF0.0
aF0.0
aF0.0
aF0.0
aF0.0
aF0.0
aF0.0
aF0.0
aF0.0
aF0.0
aF0.0
aF0.0
aF0.0
aF0.0
aF0.0
aF0.0
aF0.0
aF0.0
aF0.0
aF0.0
aF0.0
aF0.0
aF0.0
aF0.0
aF0.0
aF0.0
aF0.0
asS'f2TypeProbHistory'
p42
(lp43
F0.25
aF0.0
aF0.0
aF0.0
aF0.0
aF0.0
aF0.0
aF0.0
aF0.0
aF0.0
aF0.0
aF0.0
aF0.0
aF0.0
aF0.0
aF0.0
aF0.0
aF0.0
aF0.0
aF0.0
aF0.0
aF0.0
aF0.0
aF0.0
aF0.0
aF0.0
aF0.0
aF0.0
aF0.0
aF0.0
aF0.0
aF0.0
aF0.0
aF0.0
aF0.0
aF0.0
aF0.0
aF0.0
aF0.0
aF0.0
aF0.0
aF0.0
aF0.0
aF0.0
aF0.0
aF0.0
aF0.0
aF0.0
aF0.0
aF0.0
aF0.0
aF0.0
aF0.0
aF0.0
aF0.0
aF0.0
aF0.0
aF0.0
aF0.0
aF0.0
aF0.0
aF0.0
aF0.0
aF0.0
aF0.0
aF0.0
aF0.0
aF0.0
aF0.0
aF0.0
aF0.0
aF0.0
aF0.0
aF0.0
aF0.0
aF0.0
aF0.0
aF0.0
aF0.0
aF0.0
asS'l2EstimationHistory'
p44
S'[[0.67,0.22,0.55],[0.67,0.22,0.55],[0.67,0.22,0.55],[0.67,0.22,0.55],[0.67,0.22,0.55],[0.67,0.22,0.55],[0.67,0.22,0.55],[0.67,0.22,0.55],[0.67,0.22,0.55],[0.67,0.22,0.55],[0.67,0.22,0.55],[0.67,0.22,0.55],[0.67,0.22,0.55],[0.67,0.22,0.55],[0.67,0.22,0.55],[0.67,0.22,0.55],[0.67,0.22,0.55],[0.67,0.22,0.55],[0.67,0.22,0.55],[0.67,0.22,0.55],[0.67,0.22,0.55],[0.67,0.22,0.55],[0.67,0.22,0.55],[0.67,0.22,0.55],[0.67,0.22,0.55],[0.67,0.22,0.55],[0.67,0.22,0.55],[0.67,0.22,0.55],[0.67,0.22,0.55],[0.67,0.22,0.55],[0.67,0.22,0.55],[0.67,0.22,0.55],[0.67,0.22,0.55],[0.67,0.22,0.55],[0.67,0.22,0.55],[0.67,0.22,0.55],[0.67,0.22,0.55],[0.67,0.22,0.55],[0.67,0.22,0.55],[0.67,0.22,0.55],[0.67,0.22,0.55],[0.67,0.22,0.55],[0.67,0.22,0.55],[0.67,0.22,0.55],[0.67,0.22,0.55],[0.67,0.22,0.55],[0.67,0.22,0.55],[0.67,0.22,0.55],[0.67,0.22,0.55],[0.67,0.22,0.55],[0.67,0.22,0.55],[0.67,0.22,0.55],[0.67,0.22,0.55],[0.67,0.22,0.55],[0.67,0.22,0.55],[0.67,0.22,0.55],[0.67,0.22,0.55],[0.67,0.22,0.55],[0.67,0.22,0.55],[0.67,0.22,0.55],[0.67,0.22,0.55],[0.2718801363789334,0.7164498749984886,0.7773661645425133],[0.2718801363789334,0.7164498749984886,0.7773661645425133],[0.2718801363789334,0.7164498749984886,0.7773661645425133],[0.2718801363789334,0.7164498749984886,0.7773661645425133],[0.2718801363789334,0.7164498749984886,0.7773661645425133],[0.2718801363789334,0.7164498749984886,0.7773661645425133],[0.2718801363789334,0.7164498749984886,0.7773661645425133],[0.2718801363789334,0.7164498749984886,0.7773661645425133],[0.42372243145401195,0.5513685195761223,0.5926352692874598],[0.42372243145401195,0.5513685195761223,0.5926352692874598],[0.42372243145401195,0.5513685195761223,0.5926352692874598],[0.42267547939266986,0.5569798634401609,0.5862651552455753],[0.42267547939266986,0.5569798634401609,0.5862651552455753],[0.42267547939266986,0.5569798634401609,0.5862651552455753],[0.42267547939266986,0.5569798634401609,0.5862651552455753],[0.42267547939266986,0.5569798634401609,0.5862651552455753],[0.42267547939266986,0.5569798634401609,0.5862651552455753],[0.42267547939266986,0.5569798634401609,0.5862651552455753],[0.42267547939266986,0.5569798634401609,0.5862651552455753]]'
p45
sS'f1EstimationHistory'
p46
S'[[0.72,0.5,0.22]]'
p47
sS'trueParameters'
p48
(lp49
F0.119
aF0.347
aF0.288
asS'f2EstimationHistory'
p50
S'[[0.97,0.8,0.69]]'
p51
sS'l1TypeProbHistory'
p52
(lp53
F0.25
aF0.5
aF0.5
aF0.5
aF0.5
aF0.5
aF0.5
aF0.010309278350515465
aF0.00010849517196484758
aF1.1302793937633445e-06
aF1.1302793937633447e-06
aF1.1302793937633447e-06
aF1.1302793937633447e-06
aF1.1302793937633447e-06
aF1.1302793937633447e-06
aF1.1302793937633447e-06
aF1.1302793937633447e-06
aF1.1302793937633447e-06
aF1.1302793937633447e-06
aF1.1302793937633447e-06
aF1.1302793937633447e-06
aF1.1302793937633447e-06
aF1.1302793937633447e-06
aF1.1302793937633447e-06
aF1.1302793937633447e-06
aF1.1302793937633447e-06
aF1.1302793937633447e-06
aF1.1302793937633447e-06
aF1.1302793937633447e-06
aF1.1302793937633447e-06
aF1.1302793937633447e-06
aF1.1302793937633447e-06
aF1.1302793937633447e-06
aF1.1302793937633447e-06
aF1.1302793937633447e-06
aF1.1302793937633447e-06
aF1.1302793937633447e-06
aF1.1302793937633447e-06
aF1.1302793937633447e-06
aF1.1302793937633447e-06
aF1.1302793937633447e-06
aF1.1302793937633447e-06
aF1.1302793937633447e-06
aF1.1302793937633447e-06
aF1.1302793937633447e-06
aF1.1302793937633447e-06
aF1.1302793937633447e-06
aF1.1302793937633445e-06
aF1.1302793937633447e-06
aF1.1302793937633445e-06
aF1.1302793937633447e-06
aF1.1302793937633445e-06
aF1.1302793937633447e-06
aF5.651403037097901e-08
aF5.886878492869345e-10
aF2.943439248080801e-11
aF2.9434392480808e-11
aF2.9434392480808e-11
aF1.412850838920756e-10
aF6.781684023178655e-10
aF6.781684023178655e-10
aF4.069010400109821e-09
aF4.882812261581432e-08
aF4.8828122615814325e-08
aF4.882812261581433e-08
aF4.882812261581433e-08
aF4.882812261581433e-08
aF4.882812261581433e-08
aF4.882812261581433e-08
aF9.765624904632571e-09
aF9.765624904632573e-09
aF9.765624904632573e-09
aF4.882812476158145e-09
aF4.882812476158144e-09
aF4.882812476158144e-09
aF4.882812476158143e-09
aF4.882812476158143e-09
aF4.882812476158142e-09
aF4.882812476158142e-09
aF4.882812476158141e-09
assI1
(dp54
g32
(lp55
F0.25
aF0.5
aF0.5
aF0.9896907216494846
aF0.9998915048280351
aF0.9998915048280352
aF0.9997830331959209
aF0.9997830331959209
aF0.9997830331959209
aF0.9997830331959211
aF0.9997830331959211
aF0.9997830331959211
aF0.9997830331959211
aF0.9997830331959211
aF0.9996328805526817
aF0.9985331377517004
aF0.9985331377517003
aF0.9985331377517002
aF0.9985331377517002
aF0.9985331377517002
aF0.9985331377517002
aF0.9985331377517002
aF0.9985331377517002
aF0.9985331377517002
aF0.9985331377517002
aF0.9985331377517002
aF0.9985331377517002
aF0.9985331377517002
aF0.9985331377517002
aF0.9985331377517002
aF0.9985331377517002
aF0.9985331377517002
aF0.9985331377517002
aF0.9985331377517002
aF0.9985331377517002
aF0.9985331377517002
aF0.9985331377517002
aF0.9985331377517002
aF0.9985331377517002
aF0.9985331377517002
aF0.9985331377517002
aF0.9985331377517002
aF0.9985331377517002
aF0.9985331377517002
aF0.9985331377517002
aF0.9985331377517002
aF0.9985331377517002
aF0.9985331377517002
aF0.9985331377517002
aF0.9985331377517002
aF0.9985331377517002
aF0.9985331377517002
aF0.9985331377517002
aF0.9985331377517002
aF0.9985331377517002
aF0.9985331377517002
aF0.9985331377517002
aF0.9985331377517002
aF0.9985331377517002
aF0.9985331377517002
aF0.9985331377517002
aF0.9985331377517002
aF0.9985331377517002
aF0.9985331377517002
aF0.9985331377517002
aF0.9985331377517002
aF0.9985331377517002
aF0.9985331377517002
aF0.9985331377517002
aF0.9985331377517002
aF0.9985331377517003
aF0.9985331377517002
aF0.9985331377517003
aF0.9985331377517002
aF0.9985331377517003
aF0.9985331377517002
aF0.9985331377517003
aF0.9985331377517002
aF0.9985331377517003
aF0.9985331377517002
asg34
g35
sg36
S'[[0.03,0.72,0.97],[0.03,0.72,0.97],[0.03,0.72,0.97],[0.03,0.72,0.97],[0.03,0.72,0.97],[0.03,0.72,0.97],[0.4944772439707373,0.7099468499629529,0.6674679196651918],[0.4944772439707373,0.7099468499629529,0.6674679196651918],[0.4944772439707373,0.7099468499629529,0.6674679196651918],[0.4944772439707373,0.7099468499629529,0.6674679196651918],[0.4944772439707373,0.7099468499629529,0.6674679196651918],[0.4944772439707373,0.7099468499629529,0.6674679196651918],[0.4944772439707373,0.7099468499629529,0.6674679196651918],[0.4944772439707373,0.7099468499629529,0.6674679196651918],[0.47518053496039986,0.7020223183235587,0.6407770679054496],[0.46703372892542583,0.7030881651369877,0.6371819676513402],[0.46703372892542583,0.7030881651369877,0.6371819676513402],[0.46703372892542583,0.7030881651369877,0.6371819676513402],[0.46703372892542583,0.7030881651369877,0.6371819676513402],[0.46703372892542583,0.7030881651369877,0.6371819676513402],[0.46703372892542583,0.7030881651369877,0.6371819676513402],[0.46703372892542583,0.7030881651369877,0.6371819676513402],[0.46703372892542583,0.7030881651369877,0.6371819676513402],[0.46703372892542583,0.7030881651369877,0.6371819676513402],[0.46703372892542583,0.7030881651369877,0.6371819676513402],[0.46703372892542583,0.7030881651369877,0.6371819676513402],[0.46703372892542583,0.7030881651369877,0.6371819676513402],[0.46703372892542583,0.7030881651369877,0.6371819676513402],[0.46703372892542583,0.7030881651369877,0.6371819676513402],[0.46703372892542583,0.7030881651369877,0.6371819676513402],[0.46703372892542583,0.7030881651369877,0.6371819676513402],[0.46703372892542583,0.7030881651369877,0.6371819676513402],[0.46703372892542583,0.7030881651369877,0.6371819676513402],[0.46703372892542583,0.7030881651369877,0.6371819676513402],[0.46703372892542583,0.7030881651369877,0.6371819676513402],[0.46703372892542583,0.7030881651369877,0.6371819676513402],[0.46703372892542583,0.7030881651369877,0.6371819676513402],[0.46703372892542583,0.7030881651369877,0.6371819676513402],[0.46703372892542583,0.7030881651369877,0.6371819676513402],[0.46703372892542583,0.7030881651369877,0.6371819676513402],[0.46703372892542583,0.7030881651369877,0.6371819676513402],[0.46703372892542583,0.7030881651369877,0.6371819676513402],[0.46703372892542583,0.7030881651369877,0.6371819676513402],[0.46703372892542583,0.7030881651369877,0.6371819676513402],[0.46703372892542583,0.7030881651369877,0.6371819676513402],[0.46703372892542583,0.7030881651369877,0.6371819676513402],[0.46703372892542583,0.7030881651369877,0.6371819676513402],[0.46703372892542583,0.7030881651369877,0.6371819676513402],[0.46703372892542583,0.7030881651369877,0.6371819676513402],[0.46703372892542583,0.7030881651369877,0.6371819676513402],[0.46703372892542583,0.7030881651369877,0.6371819676513402],[0.46703372892542583,0.7030881651369877,0.6371819676513402],[0.46703372892542583,0.7030881651369877,0.6371819676513402],[0.46703372892542583,0.7030881651369877,0.6371819676513402],[0.46703372892542583,0.7030881651369877,0.6371819676513402],[0.46703372892542583,0.7030881651369877,0.6371819676513402],[0.46703372892542583,0.7030881651369877,0.6371819676513402],[0.46703372892542583,0.7030881651369877,0.6371819676513402],[0.46703372892542583,0.7030881651369877,0.6371819676513402],[0.46703372892542583,0.7030881651369877,0.6371819676513402],[0.46703372892542583,0.7030881651369877,0.6371819676513402],[0.46703372892542583,0.7030881651369877,0.6371819676513402],[0.46703372892542583,0.7030881651369877,0.6371819676513402],[0.46703372892542583,0.7030881651369877,0.6371819676513402],[0.46703372892542583,0.7030881651369877,0.6371819676513402],[0.46703372892542583,0.7030881651369877,0.6371819676513402],[0.46703372892542583,0.7030881651369877,0.6371819676513402],[0.46703372892542583,0.7030881651369877,0.6371819676513402],[0.46703372892542583,0.7030881651369877,0.6371819676513402],[0.46703372892542583,0.7030881651369877,0.6371819676513402],[0.46703372892542583,0.7030881651369877,0.6371819676513402],[0.46703372892542583,0.7030881651369877,0.6371819676513402],[0.46703372892542583,0.7030881651369877,0.6371819676513402],[0.46703372892542583,0.7030881651369877,0.6371819676513402],[0.46703372892542583,0.7030881651369877,0.6371819676513402],[0.46703372892542583,0.7030881651369877,0.6371819676513402],[0.46703372892542583,0.7030881651369877,0.6371819676513402],[0.46703372892542583,0.7030881651369877,0.6371819676513402],[0.46703372892542583,0.7030881651369877,0.6371819676513402],[0.46703372892542583,0.7030881651369877,0.6371819676513402]]'
p56
sg38
S'l1'
p57
sg40
(lp58
F0.25
aF0.0
aF0.0
aF0.0
aF0.0
aF0.0
aF0.0
aF0.0
aF0.0
aF0.0
aF0.0
aF0.0
aF0.0
aF0.0
aF0.0
aF0.0
aF0.0
aF0.0
aF0.0
aF0.0
aF0.0
aF0.0
aF0.0
aF0.0
aF0.0
aF0.0
aF0.0
aF0.0
aF0.0
aF0.0
aF0.0
aF0.0
aF0.0
aF0.0
aF0.0
aF0.0
aF0.0
aF0.0
aF0.0
aF0.0
aF0.0
aF0.0
aF0.0
aF0.0
aF0.0
aF0.0
aF0.0
aF0.0
aF0.0
aF0.0
aF0.0
aF0.0
aF0.0
aF0.0
aF0.0
aF0.0
aF0.0
aF0.0
aF0.0
aF0.0
aF0.0
aF0.0
aF0.0
aF0.0
aF0.0
aF0.0
aF0.0
aF0.0
aF0.0
aF0.0
aF0.0
aF0.0
aF0.0
aF0.0
aF0.0
aF0.0
aF0.0
aF0.0
aF0.0
aF0.0
asg42
(lp59
F0.25
aF0.0
aF0.0
aF0.0
aF0.0
aF0.0
aF0.0
aF0.0
aF0.0
aF0.0
aF0.0
aF0.0
aF0.0
aF0.0
aF0.0
aF0.0
aF0.0
aF0.0
aF0.0
aF0.0
aF0.0
aF0.0
aF0.0
aF0.0
aF0.0
aF0.0
aF0.0
aF0.0
aF0.0
aF0.0
aF0.0
aF0.0
aF0.0
aF0.0
aF0.0
aF0.0
aF0.0
aF0.0
aF0.0
aF0.0
aF0.0
aF0.0
aF0.0
aF0.0
aF0.0
aF0.0
aF0.0
aF0.0
aF0.0
aF0.0
aF0.0
aF0.0
aF0.0
aF0.0
aF0.0
aF0.0
aF0.0
aF0.0
aF0.0
aF0.0
aF0.0
aF0.0
aF0.0
aF0.0
aF0.0
aF0.0
aF0.0
aF0.0
aF0.0
aF0.0
aF0.0
aF0.0
aF0.0
aF0.0
aF0.0
aF0.0
aF0.0
aF0.0
aF0.0
aF0.0
asg44
S'[[0.18,0.53,0.87],[0.18,0.53,0.87],[0.18,0.53,0.87],[0.18,0.53,0.87],[0.18,0.53,0.87],[0.18,0.53,0.87],[0.5478823643078237,0.7790024699999473,0.624545924521276],[0.5478823643078237,0.7790024699999473,0.624545924521276],[0.5478823643078237,0.7790024699999473,0.624545924521276],[0.5478823643078237,0.7790024699999473,0.624545924521276],[0.5478823643078237,0.7790024699999473,0.624545924521276],[0.5478823643078237,0.7790024699999473,0.624545924521276],[0.5478823643078237,0.7790024699999473,0.624545924521276],[0.5478823643078237,0.7790024699999473,0.624545924521276],[0.40982085144979113,0.7402357998748005,0.5625991447470279],[0.40982085144979113,0.7402357998748005,0.5625991447470279],[0.40982085144979113,0.7402357998748005,0.5625991447470279],[0.40982085144979113,0.7402357998748005,0.5625991447470279],[0.40982085144979113,0.7402357998748005,0.5625991447470279],[0.40982085144979113,0.7402357998748005,0.5625991447470279],[0.40982085144979113,0.7402357998748005,0.5625991447470279],[0.40982085144979113,0.7402357998748005,0.5625991447470279],[0.40982085144979113,0.7402357998748005,0.5625991447470279],[0.40982085144979113,0.7402357998748005,0.5625991447470279],[0.40982085144979113,0.7402357998748005,0.5625991447470279],[0.40982085144979113,0.7402357998748005,0.5625991447470279],[0.40982085144979113,0.7402357998748005,0.5625991447470279],[0.40982085144979113,0.7402357998748005,0.5625991447470279],[0.40982085144979113,0.7402357998748005,0.5625991447470279],[0.40982085144979113,0.7402357998748005,0.5625991447470279],[0.40982085144979113,0.7402357998748005,0.5625991447470279],[0.40982085144979113,0.7402357998748005,0.5625991447470279],[0.40982085144979113,0.7402357998748005,0.5625991447470279],[0.40982085144979113,0.7402357998748005,0.5625991447470279],[0.40982085144979113,0.7402357998748005,0.5625991447470279],[0.40982085144979113,0.7402357998748005,0.5625991447470279],[0.40982085144979113,0.7402357998748005,0.5625991447470279],[0.40982085144979113,0.7402357998748005,0.5625991447470279],[0.40982085144979113,0.7402357998748005,0.5625991447470279],[0.40982085144979113,0.7402357998748005,0.5625991447470279],[0.40982085144979113,0.7402357998748005,0.5625991447470279],[0.40982085144979113,0.7402357998748005,0.5625991447470279],[0.40982085144979113,0.7402357998748005,0.5625991447470279],[0.40982085144979113,0.7402357998748005,0.5625991447470279],[0.40982085144979113,0.7402357998748005,0.5625991447470279],[0.40982085144979113,0.7402357998748005,0.5625991447470279],[0.40982085144979113,0.7402357998748005,0.5625991447470279],[0.40982085144979113,0.7402357998748005,0.5625991447470279],[0.40982085144979113,0.7402357998748005,0.5625991447470279],[0.40982085144979113,0.7402357998748005,0.5625991447470279],[0.40982085144979113,0.7402357998748005,0.5625991447470279],[0.40982085144979113,0.7402357998748005,0.5625991447470279],[0.40982085144979113,0.7402357998748005,0.5625991447470279],[0.40982085144979113,0.7402357998748005,0.5625991447470279],[0.40982085144979113,0.7402357998748005,0.5625991447470279],[0.40982085144979113,0.7402357998748005,0.5625991447470279],[0.40982085144979113,0.7402357998748005,0.5625991447470279],[0.40982085144979113,0.7402357998748005,0.5625991447470279],[0.40982085144979113,0.7402357998748005,0.5625991447470279],[0.40982085144979113,0.7402357998748005,0.5625991447470279],[0.40982085144979113,0.7402357998748005,0.5625991447470279],[0.40982085144979113,0.7402357998748005,0.5625991447470279],[0.40982085144979113,0.7402357998748005,0.5625991447470279],[0.40982085144979113,0.7402357998748005,0.5625991447470279],[0.40982085144979113,0.7402357998748005,0.5625991447470279],[0.40982085144979113,0.7402357998748005,0.5625991447470279],[0.40982085144979113,0.7402357998748005,0.5625991447470279],[0.40982085144979113,0.7402357998748005,0.5625991447470279],[0.40982085144979113,0.7402357998748005,0.5625991447470279],[0.40982085144979113,0.7402357998748005,0.5625991447470279],[0.40982085144979113,0.7402357998748005,0.5625991447470279],[0.40982085144979113,0.7402357998748005,0.5625991447470279],[0.40982085144979113,0.7402357998748005,0.5625991447470279],[0.40982085144979113,0.7402357998748005,0.5625991447470279],[0.40982085144979113,0.7402357998748005,0.5625991447470279],[0.40982085144979113,0.7402357998748005,0.5625991447470279],[0.40982085144979113,0.7402357998748005,0.5625991447470279],[0.40982085144979113,0.7402357998748005,0.5625991447470279],[0.40982085144979113,0.7402357998748005,0.5625991447470279],[0.40982085144979113,0.7402357998748005,0.5625991447470279]]'
p60
sg46
S'[[0.67,0.27,0.93]]'
p61
sg48
(lp62
F0.129
aF0.536
aF0.702
asg50
S'[[0.51,0.11,0.7]]'
p63
sg52
(lp64
F0.25
aF0.5
aF0.5
aF0.010309278350515465
aF0.00010849517196484758
aF0.00010849517196484759
aF0.0002169668040789759
aF0.00021696680407897592
aF0.00021696680407897595
aF0.00021696680407897598
aF0.00021696680407897598
aF0.00021696680407897598
aF0.00021696680407897598
aF0.00021696680407897598
aF0.00036711944731835944
aF0.001466862248299774
aF0.0014668622482997737
aF0.0014668622482997737
aF0.0014668622482997737
aF0.0014668622482997737
aF0.0014668622482997737
aF0.0014668622482997737
aF0.0014668622482997737
aF0.0014668622482997737
aF0.0014668622482997737
aF0.0014668622482997737
aF0.0014668622482997737
aF0.0014668622482997737
aF0.0014668622482997737
aF0.0014668622482997737
aF0.0014668622482997737
aF0.0014668622482997737
aF0.0014668622482997737
aF0.0014668622482997737
aF0.0014668622482997737
aF0.0014668622482997737
aF0.0014668622482997737
aF0.0014668622482997737
aF0.0014668622482997737
aF0.0014668622482997737
aF0.0014668622482997737
aF0.0014668622482997737
aF0.0014668622482997737
aF0.0014668622482997737
aF0.0014668622482997737
aF0.0014668622482997737
aF0.0014668622482997737
aF0.0014668622482997737
aF0.0014668622482997737
aF0.0014668622482997737
aF0.0014668622482997737
aF0.0014668622482997737
aF0.0014668622482997737
aF0.0014668622482997737
aF0.0014668622482997737
aF0.0014668622482997737
aF0.0014668622482997737
aF0.0014668622482997737
aF0.0014668622482997737
aF0.0014668622482997737
aF0.0014668622482997737
aF0.0014668622482997737
aF0.0014668622482997737
aF0.0014668622482997737
aF0.0014668622482997737
aF0.0014668622482997737
aF0.0014668622482997737
aF0.0014668622482997737
aF0.0014668622482997737
aF0.0014668622482997737
aF0.001466862248299774
aF0.001466862248299774
aF0.0014668622482997742
aF0.0014668622482997737
aF0.001466862248299774
aF0.001466862248299774
aF0.0014668622482997742
aF0.0014668622482997742
aF0.0014668622482997742
aF0.0014668622482997742
assa.