(lp0
(dp1
S'iterationMax'
p2
I50
sS'CPU_Time'
p3
ccopy_reg
_reconstructor
p4
(cpsutil._pslinux
scputimes
p5
c__builtin__
tuple
p6
(F13570025.55
F848.21
F797510.49
F237061982.91
F21774.8
F0.0
F1569.57
F0.0
F0.0
F0.0
tp7
tp8
Rp9
sS'itemsCounts'
p10
I10
sS'memory_usage'
p11
I243871744
sS'generatedDataNumber'
p12
I100
sS'typeSelectionMode'
p13
S'AS'
p14
sS'simHeight'
p15
I10
sS'mcts_mode'
p16
S'UCTH'
p17
sS'endTime'
p18
F1547570919.112649
sS'reuseTree'
p19
S'False'
p20
sS'beginTime'
p21
F1547570746.148833
sS'PF_add_threshold'
p22
F0.9
sS'PF_weight'
p23
F1.2
sS'timeSteps'
p24
I82
sS'agentsCounts'
p25
I2
sS'simWidth'
p26
I10
sS'estimationMode'
p27
S'AGA'
p28
sS'maxDepth'
p29
I50
sa(dp30
I0
(dp31
S'l2TypeProbHistory'
p32
(lp33
F0.25
aF0.5
aF0.5
aF0.5
aF0.5
aF0.010309278350515465
aF0.00010849517196484758
aF5.425317787989432e-06
aF5.4253177879894325e-06
aF5.6514030370979025e-08
aF5.886878492869344e-10
aF6.132165100311228e-12
aF6.387671979529625e-14
aF6.653824978677115e-16
aF6.931067686121999e-18
aF7.219862173043749e-20
aF7.219862173043749e-20
aF7.219862173043749e-20
aF7.219862173043749e-20
aF7.219862173043749e-20
aF7.219862173043749e-20
aF7.219862173043749e-20
aF7.219862173043749e-20
aF7.219862173043749e-20
aF7.219862173043749e-20
aF7.219862173043749e-20
aF7.219862173043749e-20
aF7.219862173043749e-20
aF7.219862173043749e-20
aF7.219862173043749e-20
aF7.219862173043749e-20
aF7.219862173043749e-20
aF7.219862173043749e-20
aF7.219862173043749e-20
aF7.219862173043749e-20
aF7.219862173043749e-20
aF7.219862173043749e-20
aF7.219862173043749e-20
aF7.219862173043749e-20
aF7.219862173043749e-20
aF7.219862173043749e-20
aF7.219862173043749e-20
aF7.219862173043749e-20
aF7.219862173043749e-20
aF7.219862173043749e-20
aF7.219862173043749e-20
aF7.219862173043749e-20
aF7.219862173043749e-20
aF7.219862173043749e-20
aF7.219862173043749e-20
aF7.219862173043749e-20
aF7.219862173043749e-20
aF7.219862173043749e-20
aF7.219862173043749e-20
aF7.219862173043749e-20
aF7.219862173043749e-20
aF7.219862173043749e-20
aF7.219862173043749e-20
aF7.219862173043749e-20
aF7.219862173043749e-20
aF7.219862173043749e-20
aF7.219862173043749e-20
aF7.219862173043749e-20
aF7.219862173043749e-20
aF7.219862173043749e-20
aF7.219862173043749e-20
aF7.219862173043749e-20
aF7.219862173043749e-20
aF7.219862173043749e-20
aF7.219862173043749e-20
aF7.219862173043749e-20
aF7.219862173043749e-20
aF7.219862173043749e-20
aF3.6099310865218745e-21
aF3.6099310865218745e-21
aF3.6099310865218745e-21
aF3.6099310865218745e-21
aF3.6099310865218745e-21
aF3.6099310865218745e-21
aF3.6099310865218745e-21
aF3.6099310865218745e-21
aF3.6099310865218745e-21
aF3.6099310865218745e-21
asS'maxProbability'
p34
S'l1'
p35
sS'l1EstimationHistory'
p36
S'[[0.86,0.33,0.19],[0.86,0.33,0.19],[0.86,0.33,0.19],[0.86,0.33,0.19],[0.86,0.33,0.19],[0.86,0.33,0.19],[0.86,0.33,0.19],[0.86,0.33,0.19],[0.86,0.33,0.19],[0.86,0.33,0.19],[0.86,0.33,0.19],[0.86,0.33,0.19],[0.86,0.33,0.19],[0.86,0.33,0.19],[0.86,0.33,0.19],[0.86,0.33,0.19],[0.86,0.33,0.19],[0.86,0.33,0.19],[0.86,0.33,0.19],[0.86,0.33,0.19],[0.86,0.33,0.19],[0.86,0.33,0.19],[0.86,0.33,0.19],[0.86,0.33,0.19],[0.86,0.33,0.19],[0.86,0.33,0.19],[0.86,0.33,0.19],[0.86,0.33,0.19],[0.86,0.33,0.19],[0.86,0.33,0.19],[0.86,0.33,0.19],[0.86,0.33,0.19],[0.86,0.33,0.19],[0.86,0.33,0.19],[0.86,0.33,0.19],[0.86,0.33,0.19],[0.86,0.33,0.19],[0.86,0.33,0.19],[0.86,0.33,0.19],[0.86,0.33,0.19],[0.86,0.33,0.19],[0.86,0.33,0.19],[0.86,0.33,0.19],[0.86,0.33,0.19],[0.86,0.33,0.19],[0.86,0.33,0.19],[0.86,0.33,0.19],[0.86,0.33,0.19],[0.86,0.33,0.19],[0.86,0.33,0.19],[0.86,0.33,0.19],[0.86,0.33,0.19],[0.86,0.33,0.19],[0.86,0.33,0.19],[0.86,0.33,0.19],[0.86,0.33,0.19],[0.86,0.33,0.19],[0.86,0.33,0.19],[0.86,0.33,0.19],[0.86,0.33,0.19],[0.86,0.33,0.19],[0.86,0.33,0.19],[0.86,0.33,0.19],[0.86,0.33,0.19],[0.86,0.33,0.19],[0.86,0.33,0.19],[0.86,0.33,0.19],[0.86,0.33,0.19],[0.86,0.33,0.19],[0.86,0.33,0.19],[0.86,0.33,0.19],[0.86,0.33,0.19],[0.86,0.33,0.19],[0.86,0.33,0.19],[0.86,0.33,0.19],[0.86,0.33,0.19],[0.86,0.33,0.19],[0.86,0.33,0.19],[0.86,0.33,0.19],[0.86,0.33,0.19],[0.86,0.33,0.19],[0.86,0.33,0.19],[0.86,0.33,0.19]]'
p37
sS'trueType'
p38
S'l2'
p39
sS'f1TypeProbHistory'
p40
(lp41
F0.25
aF0.0
aF0.0
aF0.0
aF0.0
aF0.0
aF0.0
aF0.0
aF0.0
aF0.0
aF0.0
aF0.0
aF0.0
aF0.0
aF0.0
aF0.0
aF0.0
aF0.0
aF0.0
aF0.0
aF0.0
aF0.0
aF0.0
aF0.0
aF0.0
aF0.0
aF0.0
aF0.0
aF0.0
aF0.0
aF0.0
aF0.0
aF0.0
aF0.0
aF0.0
aF0.0
aF0.0
aF0.0
aF0.0
aF0.0
aF0.0
aF0.0
aF0.0
aF0.0
aF0.0
aF0.0
aF0.0
aF0.0
aF0.0
aF0.0
aF0.0
aF0.0
aF0.0
aF0.0
aF0.0
aF0.0
aF0.0
aF0.0
aF0.0
aF0.0
aF0.0
aF0.0
aF0.0
aF0.0
aF0.0
aF0.0
aF0.0
aF0.0
aF0.0
aF0.0
aF0.0
aF0.0
aF0.0
aF0.0
aF0.0
aF0.0
aF0.0
aF0.0
aF0.0
aF0.0
aF0.0
aF0.0
aF0.0
asS'f2TypeProbHistory'
p42
(lp43
F0.25
aF0.0
aF0.0
aF0.0
aF0.0
aF0.0
aF0.0
aF0.0
aF0.0
aF0.0
aF0.0
aF0.0
aF0.0
aF0.0
aF0.0
aF0.0
aF0.0
aF0.0
aF0.0
aF0.0
aF0.0
aF0.0
aF0.0
aF0.0
aF0.0
aF0.0
aF0.0
aF0.0
aF0.0
aF0.0
aF0.0
aF0.0
aF0.0
aF0.0
aF0.0
aF0.0
aF0.0
aF0.0
aF0.0
aF0.0
aF0.0
aF0.0
aF0.0
aF0.0
aF0.0
aF0.0
aF0.0
aF0.0
aF0.0
aF0.0
aF0.0
aF0.0
aF0.0
aF0.0
aF0.0
aF0.0
aF0.0
aF0.0
aF0.0
aF0.0
aF0.0
aF0.0
aF0.0
aF0.0
aF0.0
aF0.0
aF0.0
aF0.0
aF0.0
aF0.0
aF0.0
aF0.0
aF0.0
aF0.0
aF0.0
aF0.0
aF0.0
aF0.0
aF0.0
aF0.0
aF0.0
aF0.0
aF0.0
asS'l2EstimationHistory'
p44
S'[[0.55,0.58,0.76],[0.5499999999999999,0.58,0.76],[0.5499999999999998,0.58,0.76],[0.5499999999999997,0.58,0.76],[0.5499999999999996,0.58,0.76],[0.5499999999999995,0.58,0.76],[0.5499999999999994,0.58,0.76],[0.5499999999999993,0.58,0.76],[0.5499999999999992,0.58,0.76],[0.549999999999999,0.58,0.76],[0.5499999999999989,0.58,0.76],[0.5499999999999988,0.58,0.76],[0.5499999999999987,0.58,0.76],[0.5499999999999986,0.58,0.76],[0.5499999999999985,0.58,0.76],[0.5499999999999984,0.58,0.76],[0.5499999999999983,0.58,0.76],[0.5499999999999982,0.58,0.76],[0.549999999999998,0.58,0.76],[0.5499999999999979,0.58,0.76],[0.5499999999999978,0.58,0.76],[0.5499999999999977,0.58,0.76],[0.5499999999999976,0.58,0.76],[0.5499999999999975,0.58,0.76],[0.5499999999999974,0.58,0.76],[0.5499999999999973,0.58,0.76],[0.5499999999999972,0.58,0.76],[0.549999999999997,0.58,0.76],[0.5499999999999969,0.58,0.76],[0.5499999999999968,0.58,0.76],[0.5499999999999967,0.58,0.76],[0.5499999999999966,0.58,0.76],[0.5499999999999965,0.58,0.76],[0.5499999999999964,0.58,0.76],[0.5499999999999963,0.58,0.76],[0.5499999999999962,0.58,0.76],[0.549999999999996,0.58,0.76],[0.5499999999999959,0.58,0.76],[0.5499999999999958,0.58,0.76],[0.5499999999999957,0.58,0.76],[0.5499999999999956,0.58,0.76],[0.5499999999999955,0.58,0.76],[0.5499999999999954,0.58,0.76],[0.5499999999999953,0.58,0.76],[0.5499999999999952,0.58,0.76],[0.549999999999995,0.58,0.76],[0.5499999999999949,0.58,0.76],[0.5499999999999948,0.58,0.76],[0.5499999999999947,0.58,0.76],[0.5499999999999946,0.58,0.76],[0.5499999999999945,0.58,0.76],[0.5499999999999944,0.58,0.76],[0.5499999999999943,0.58,0.76],[0.5499999999999942,0.58,0.76],[0.549999999999994,0.58,0.76],[0.5499999999999939,0.58,0.76],[0.5499999999999938,0.58,0.76],[0.5499999999999937,0.58,0.76],[0.5499999999999936,0.58,0.76],[0.5499999999999935,0.58,0.76],[0.5499999999999934,0.58,0.76],[0.5499999999999933,0.58,0.76],[0.5499999999999932,0.58,0.76],[0.549999999999993,0.58,0.76],[0.5499999999999929,0.58,0.76],[0.5499999999999928,0.58,0.76],[0.5499999999999927,0.58,0.76],[0.5499999999999926,0.58,0.76],[0.5499999999999925,0.58,0.76],[0.5499999999999924,0.58,0.76],[0.5499999999999923,0.58,0.76],[0.5499999999999922,0.58,0.76],[0.549999999999992,0.58,0.76],[0.5499999999999919,0.58,0.76],[0.5499999999999918,0.58,0.76],[0.5499999999999917,0.58,0.76],[0.5499999999999916,0.58,0.76],[0.5499999999999915,0.58,0.76],[0.5499999999999914,0.58,0.76],[0.5499999999999913,0.58,0.76],[0.5499999999999912,0.58,0.76],[0.549999999999991,0.58,0.76],[0.5499999999999909,0.58,0.76]]'
p45
sS'f1EstimationHistory'
p46
S'[[0.96,0.99,0.31]]'
p47
sS'trueParameters'
p48
(lp49
F0.452
aF0.252
aF0.836
asS'f2EstimationHistory'
p50
S'[[0.79,0.16,0.84]]'
p51
sS'l1TypeProbHistory'
p52
(lp53
F0.25
aF0.5
aF0.5
aF0.5
aF0.5
aF0.9896907216494846
aF0.9998915048280351
aF0.999994574682212
aF0.9999945746822121
aF0.9999999434859697
aF0.9999999994113121
aF0.9999999999938678
aF0.999999999999936
aF0.9999999999999994
aF1.0
aF1.0
aF1.0
aF1.0
aF1.0
aF1.0
aF1.0
aF1.0
aF1.0
aF1.0
aF1.0
aF1.0
aF1.0
aF1.0
aF1.0
aF1.0
aF1.0
aF1.0
aF1.0
aF1.0
aF1.0
aF1.0
aF1.0
aF1.0
aF1.0
aF1.0
aF1.0
aF1.0
aF1.0
aF1.0
aF1.0
aF1.0
aF1.0
aF1.0
aF1.0
aF1.0
aF1.0
aF1.0
aF1.0
aF1.0
aF1.0
aF1.0
aF1.0
aF1.0
aF1.0
aF1.0
aF1.0
aF1.0
aF1.0
aF1.0
aF1.0
aF1.0
aF1.0
aF1.0
aF1.0
aF1.0
aF1.0
aF1.0
aF1.0
aF1.0
aF1.0
aF1.0
aF1.0
aF1.0
aF1.0
aF1.0
aF1.0
aF1.0
aF1.0
assI1
(dp54
g32
(lp55
F0.25
aF0.5
aF0.5
aF0.5
aF0.5
aF0.5
aF0.010309278350515465
aF0.5
aF0.5
aF0.5
aF0.9896907216494846
aF0.9896907216494846
aF0.9998915048280351
aF0.9998915048280352
aF0.9896907216494845
aF0.9896907216494846
aF0.9896907216494846
aF0.9896907216494846
aF0.9896907216494846
aF0.9896907216494846
aF0.9896907216494846
aF0.9994794377928162
aF0.9994794377928162
aF0.9994794377928163
aF0.9994794377928162
aF0.9994794377928163
aF0.9994794377928162
aF0.9994794377928163
aF0.9994794377928162
aF0.9994794377928163
aF0.9994794377928162
aF0.9994794377928163
aF0.9994794377928162
aF0.9994794377928163
aF0.9994794377928162
aF0.9994794377928163
aF0.9994794377928162
aF0.9994794377928163
aF0.9994794377928162
aF0.9994794377928163
aF0.9994794377928162
aF0.9994794377928163
aF0.9994794377928162
aF0.9994794377928163
aF0.9994794377928162
aF0.9994794377928163
aF0.9994794377928162
aF0.9994794377928163
aF0.9994794377928162
aF0.9994794377928163
aF0.9994794377928162
aF0.9994794377928163
aF0.9994794377928162
aF0.9994794377928163
aF0.9994794377928162
aF0.9994794377928163
aF0.9994794377928162
aF0.9994794377928163
aF0.9994794377928162
aF0.9994794377928163
aF0.9994794377928162
aF0.9994794377928163
aF0.9994794377928162
aF0.9994794377928163
aF0.9994794377928162
aF0.9994794377928163
aF0.9994794377928162
aF0.9994794377928163
aF0.9994794377928162
aF0.9994794377928163
aF0.9994794377928162
aF0.9994794377928163
aF0.9994794377928162
aF0.9994794377928163
aF0.9994794377928162
aF0.9994794377928163
aF0.9994794377928162
aF0.9994794377928163
aF0.9994794377928162
aF0.9994794377928163
aF0.9994794377928162
aF0.9994794377928163
aF0.9994794377928162
asg34
S'l2'
p56
sg36
S'[[0.81,0.72,0.38],[0.81,0.72,0.38],[0.81,0.72,0.38],[0.81,0.72,0.38],[0.81,0.72,0.38],[0.81,0.72,0.38],[0.81,0.72,0.38],[0.81,0.72,0.38],[0.81,0.72,0.38],[0.81,0.72,0.38],[0.81,0.72,0.38],[0.81,0.72,0.38],[0.81,0.72,0.38],[0.81,0.72,0.38],[0.81,0.72,0.38],[0.81,0.72,0.38],[0.81,0.72,0.38],[0.81,0.72,0.38],[0.81,0.72,0.38],[0.81,0.72,0.38],[0.81,0.72,0.38],[0.81,0.72,0.38],[0.81,0.72,0.38],[0.81,0.72,0.38],[0.81,0.72,0.38],[0.81,0.72,0.38],[0.81,0.72,0.38],[0.81,0.72,0.38],[0.81,0.72,0.38],[0.81,0.72,0.38],[0.81,0.72,0.38],[0.81,0.72,0.38],[0.81,0.72,0.38],[0.81,0.72,0.38],[0.81,0.72,0.38],[0.81,0.72,0.38],[0.81,0.72,0.38],[0.81,0.72,0.38],[0.81,0.72,0.38],[0.81,0.72,0.38],[0.81,0.72,0.38],[0.81,0.72,0.38],[0.81,0.72,0.38],[0.81,0.72,0.38],[0.81,0.72,0.38],[0.81,0.72,0.38],[0.81,0.72,0.38],[0.81,0.72,0.38],[0.81,0.72,0.38],[0.81,0.72,0.38],[0.81,0.72,0.38],[0.81,0.72,0.38],[0.81,0.72,0.38],[0.81,0.72,0.38],[0.81,0.72,0.38],[0.81,0.72,0.38],[0.81,0.72,0.38],[0.81,0.72,0.38],[0.81,0.72,0.38],[0.81,0.72,0.38],[0.81,0.72,0.38],[0.81,0.72,0.38],[0.81,0.72,0.38],[0.81,0.72,0.38],[0.81,0.72,0.38],[0.81,0.72,0.38],[0.81,0.72,0.38],[0.81,0.72,0.38],[0.81,0.72,0.38],[0.81,0.72,0.38],[0.81,0.72,0.38],[0.81,0.72,0.38],[0.81,0.72,0.38],[0.81,0.72,0.38],[0.81,0.72,0.38],[0.81,0.72,0.38],[0.81,0.72,0.38],[0.81,0.72,0.38],[0.81,0.72,0.38],[0.81,0.72,0.38],[0.81,0.72,0.38],[0.81,0.72,0.38],[0.81,0.72,0.38]]'
p57
sg38
S'l1'
p58
sg40
(lp59
F0.25
aF0.0
aF0.0
aF0.0
aF0.0
aF0.0
aF0.0
aF0.0
aF0.0
aF0.0
aF0.0
aF0.0
aF0.0
aF0.0
aF0.0
aF0.0
aF0.0
aF0.0
aF0.0
aF0.0
aF0.0
aF0.0
aF0.0
aF0.0
aF0.0
aF0.0
aF0.0
aF0.0
aF0.0
aF0.0
aF0.0
aF0.0
aF0.0
aF0.0
aF0.0
aF0.0
aF0.0
aF0.0
aF0.0
aF0.0
aF0.0
aF0.0
aF0.0
aF0.0
aF0.0
aF0.0
aF0.0
aF0.0
aF0.0
aF0.0
aF0.0
aF0.0
aF0.0
aF0.0
aF0.0
aF0.0
aF0.0
aF0.0
aF0.0
aF0.0
aF0.0
aF0.0
aF0.0
aF0.0
aF0.0
aF0.0
aF0.0
aF0.0
aF0.0
aF0.0
aF0.0
aF0.0
aF0.0
aF0.0
aF0.0
aF0.0
aF0.0
aF0.0
aF0.0
aF0.0
aF0.0
aF0.0
aF0.0
asg42
(lp60
F0.25
aF0.0
aF0.0
aF0.0
aF0.0
aF0.0
aF0.0
aF0.0
aF0.0
aF0.0
aF0.0
aF0.0
aF0.0
aF0.0
aF0.0
aF0.0
aF0.0
aF0.0
aF0.0
aF0.0
aF0.0
aF0.0
aF0.0
aF0.0
aF0.0
aF0.0
aF0.0
aF0.0
aF0.0
aF0.0
aF0.0
aF0.0
aF0.0
aF0.0
aF0.0
aF0.0
aF0.0
aF0.0
aF0.0
aF0.0
aF0.0
aF0.0
aF0.0
aF0.0
aF0.0
aF0.0
aF0.0
aF0.0
aF0.0
aF0.0
aF0.0
aF0.0
aF0.0
aF0.0
aF0.0
aF0.0
aF0.0
aF0.0
aF0.0
aF0.0
aF0.0
aF0.0
aF0.0
aF0.0
aF0.0
aF0.0
aF0.0
aF0.0
aF0.0
aF0.0
aF0.0
aF0.0
aF0.0
aF0.0
aF0.0
aF0.0
aF0.0
aF0.0
aF0.0
aF0.0
aF0.0
aF0.0
aF0.0
asg44
S'[[0.29,0.5,0.5],[0.29,0.5,0.5],[0.29,0.5,0.5],[0.29,0.5,0.5],[0.29,0.5,0.5],[0.29,0.5,0.5],[0.29,0.5,0.5],[0.29,0.5,0.5],[0.29,0.5,0.5],[0.29,0.5,0.5],[0.29,0.5,0.5],[0.29,0.5,0.5],[0.29,0.5,0.5],[0.29,0.5,0.5],[0.29,0.5,0.5],[0.29,0.5,0.5],[0.29,0.5,0.5],[0.29,0.5,0.5],[0.29,0.5,0.5],[0.29,0.5,0.5],[0.29,0.5,0.5],[0.29,0.5,0.5],[0.29,0.5,0.5],[0.29,0.5,0.5],[0.29,0.5,0.5],[0.29,0.5,0.5],[0.29,0.5,0.5],[0.29,0.5,0.5],[0.29,0.5,0.5],[0.29,0.5,0.5],[0.29,0.5,0.5],[0.29,0.5,0.5],[0.29,0.5,0.5],[0.29,0.5,0.5],[0.29,0.5,0.5],[0.29,0.5,0.5],[0.29,0.5,0.5],[0.29,0.5,0.5],[0.29,0.5,0.5],[0.29,0.5,0.5],[0.29,0.5,0.5],[0.29,0.5,0.5],[0.29,0.5,0.5],[0.29,0.5,0.5],[0.29,0.5,0.5],[0.29,0.5,0.5],[0.29,0.5,0.5],[0.29,0.5,0.5],[0.29,0.5,0.5],[0.29,0.5,0.5],[0.29,0.5,0.5],[0.29,0.5,0.5],[0.29,0.5,0.5],[0.29,0.5,0.5],[0.29,0.5,0.5],[0.29,0.5,0.5],[0.29,0.5,0.5],[0.29,0.5,0.5],[0.29,0.5,0.5],[0.29,0.5,0.5],[0.29,0.5,0.5],[0.29,0.5,0.5],[0.29,0.5,0.5],[0.29,0.5,0.5],[0.29,0.5,0.5],[0.29,0.5,0.5],[0.29,0.5,0.5],[0.29,0.5,0.5],[0.29,0.5,0.5],[0.29,0.5,0.5],[0.29,0.5,0.5],[0.29,0.5,0.5],[0.29,0.5,0.5],[0.29,0.5,0.5],[0.29,0.5,0.5],[0.29,0.5,0.5],[0.29,0.5,0.5],[0.29,0.5,0.5],[0.29,0.5,0.5],[0.29,0.5,0.5],[0.29,0.5,0.5],[0.29,0.5,0.5],[0.29,0.5,0.5]]'
p61
sg46
S'[[0.96,0.73,0.7]]'
p62
sg48
(lp63
F0.305
aF0.637
aF0.479
asg50
S'[[0.63,0.18,0.79]]'
p64
sg52
(lp65
F0.25
aF0.5
aF0.5
aF0.5
aF0.5
aF0.5
aF0.9896907216494846
aF0.5
aF0.5
aF0.5
aF0.010309278350515465
aF0.010309278350515465
aF0.00010849517196484758
aF0.00010849517196484759
aF0.010309278350515465
aF0.010309278350515467
aF0.010309278350515467
aF0.010309278350515467
aF0.010309278350515467
aF0.010309278350515467
aF0.010309278350515467
aF0.0005205622071837586
aF0.0005205622071837586
aF0.0005205622071837587
aF0.0005205622071837587
aF0.0005205622071837588
aF0.0005205622071837588
aF0.0005205622071837589
aF0.0005205622071837588
aF0.0005205622071837589
aF0.0005205622071837588
aF0.0005205622071837589
aF0.0005205622071837588
aF0.0005205622071837589
aF0.0005205622071837588
aF0.0005205622071837589
aF0.0005205622071837588
aF0.0005205622071837589
aF0.0005205622071837588
aF0.0005205622071837589
aF0.0005205622071837588
aF0.0005205622071837589
aF0.0005205622071837588
aF0.0005205622071837589
aF0.0005205622071837588
aF0.0005205622071837589
aF0.0005205622071837588
aF0.0005205622071837589
aF0.0005205622071837588
aF0.0005205622071837589
aF0.0005205622071837588
aF0.0005205622071837589
aF0.0005205622071837588
aF0.0005205622071837589
aF0.0005205622071837588
aF0.0005205622071837589
aF0.0005205622071837588
aF0.0005205622071837589
aF0.0005205622071837588
aF0.0005205622071837589
aF0.0005205622071837588
aF0.0005205622071837589
aF0.0005205622071837588
aF0.0005205622071837589
aF0.0005205622071837588
aF0.0005205622071837589
aF0.0005205622071837588
aF0.0005205622071837589
aF0.0005205622071837588
aF0.0005205622071837589
aF0.0005205622071837588
aF0.0005205622071837589
aF0.0005205622071837588
aF0.0005205622071837589
aF0.0005205622071837588
aF0.0005205622071837589
aF0.0005205622071837588
aF0.0005205622071837589
aF0.0005205622071837588
aF0.0005205622071837589
aF0.0005205622071837588
aF0.0005205622071837589
aF0.0005205622071837588
assa.