(lp0
(dp1
S'iterationMax'
p2
I50
sS'CPU_Time'
p3
ccopy_reg
_reconstructor
p4
(cpsutil._pslinux
scputimes
p5
c__builtin__
tuple
p6
(F5846.06
F15.08
F1043.39
F59651.53
F1144.6
F0.0
F20.41
F0.0
F0.0
F0.0
tp7
tp8
Rp9
sS'itemsCounts'
p10
I10
sS'memory_usage'
p11
I196689920
sS'generatedDataNumber'
p12
I100
sS'typeSelectionMode'
p13
S'AS'
p14
sS'simHeight'
p15
I10
sS'mcts_mode'
p16
S'UCTH'
p17
sS'endTime'
p18
F1544454172.859042
sS'reuseTree'
p19
S'False'
p20
sS'beginTime'
p21
F1544454118.464032
sS'PF_add_threshold'
p22
F0.9
sS'PF_weight'
p23
F1.2
sS'timeSteps'
p24
I47
sS'agentsCounts'
p25
I1
sS'simWidth'
p26
I10
sS'estimationMode'
p27
S'AGA'
p28
sS'maxDepth'
p29
I50
sa(dp30
I0
(dp31
S'l2TypeProbHistory'
p32
(lp33
F0.25
aF0.9523809523809524
aF0.8064516129032258
aF0.8064516129032258
aF0.46468401486988853
aF0.15314873805439846
aF0.036308078402212195
aF0.4297186546024588
aF0.13568338401740923
aF0.75843476538761
aF0.984324389977165
aF0.984324389977165
aF0.984324389977165
aF0.984324389977165
aF0.999204371129354
aF0.996192492998383
aF0.9819846223629005
aF0.9190667509154161
aF0.9956162889677255
aF0.9793029604395763
aF0.9078979233418889
aF0.6725230123857303
aF0.29964322357157996
aF0.08183941796329215
aF0.01823106076909088
aF0.0038537586626859297
aF0.0008053233428247693
aF0.000167882729660994
aF3.498021780081218e-05
aF3.498021780081218e-05
aF3.498021780081218e-05
aF0.000699139690901686
aF0.013799486216008143
aF0.013799486216008145
aF0.2186593716131946
aF0.2186593716131946
aF0.2186593716131946
aF0.2186593716131946
aF0.2186593716131946
aF0.8484166505268437
aF0.5383297242057722
aF0.5383297242057722
aF0.5383297242057722
aF0.5383297242057722
aF0.9588832036235364
aF0.8293088203978263
aF0.9898136582681536
aF0.9529276411923066
asS'maxProbability'
p34
S'l2'
p35
sS'l1EstimationHistory'
p36
S'[[0.21,0.12,0.32],[0.21,0.12,0.32],[0.21,0.12,0.32],[0.21,0.12,0.32],[0.21,0.12,0.32],[0.21,0.12,0.32],[0.21,0.12,0.32],[0.21,0.12,0.32],[0.21,0.12,0.32],[0.21,0.12,0.32],[0.21,0.12,0.32],[0.21,0.12,0.32],[0.21,0.12,0.32],[0.21,0.12,0.32],[0.21,0.12,0.32],[0.21,0.12,0.32],[0.21,0.12,0.32],[0.21,0.12,0.32],[0.21,0.12,0.32],[0.21,0.12,0.32],[0.21,0.12,0.32],[0.21,0.12,0.32],[0.21,0.12,0.32],[0.21,0.12,0.32],[0.21,0.12,0.32],[0.21,0.12,0.32],[0.21,0.12,0.32],[0.21,0.12,0.32],[0.21,0.12,0.32],[0.21,0.12,0.32],[0.21,0.12,0.32],[0.21,0.12,0.32],[0.21,0.12,0.32],[0.21,0.12,0.32],[0.21,0.12,0.32],[0.21,0.12,0.32],[0.21,0.12,0.32],[0.21,0.12,0.32],[0.21,0.12,0.32],[0.21,0.12,0.32],[0.21,0.12,0.32],[0.21,0.12,0.32],[0.21,0.12,0.32],[0.21,0.12,0.32],[0.21,0.12,0.32],[0.21,0.12,0.32],[0.21,0.12,0.32],[0.21,0.12,0.32]]'
p37
sS'trueType'
p38
S'l1'
p39
sS'f1TypeProbHistory'
p40
(lp41
F0.25
aF0.0
aF0.0
aF0.0
aF0.0
aF0.0
aF0.0
aF0.0
aF0.0
aF0.0
aF0.0
aF0.0
aF0.0
aF0.0
aF0.0
aF0.0
aF0.0
aF0.0
aF0.0
aF0.0
aF0.0
aF0.0
aF0.0
aF0.0
aF0.0
aF0.0
aF0.0
aF0.0
aF0.0
aF0.0
aF0.0
aF0.0
aF0.0
aF0.0
aF0.0
aF0.0
aF0.0
aF0.0
aF0.0
aF0.0
aF0.0
aF0.0
aF0.0
aF0.0
aF0.0
aF0.0
aF0.0
aF0.0
asS'f2TypeProbHistory'
p42
(lp43
F0.25
aF0.0
aF0.0
aF0.0
aF0.0
aF0.0
aF0.0
aF0.0
aF0.0
aF0.0
aF0.0
aF0.0
aF0.0
aF0.0
aF0.0
aF0.0
aF0.0
aF0.0
aF0.0
aF0.0
aF0.0
aF0.0
aF0.0
aF0.0
aF0.0
aF0.0
aF0.0
aF0.0
aF0.0
aF0.0
aF0.0
aF0.0
aF0.0
aF0.0
aF0.0
aF0.0
aF0.0
aF0.0
aF0.0
aF0.0
aF0.0
aF0.0
aF0.0
aF0.0
aF0.0
aF0.0
aF0.0
aF0.0
asS'l2EstimationHistory'
p44
S'[[0.03,0.65,0.57],[0.013623336643388224,0.6500792586483761,0.5672837632347112],[0,0.6501612868866026,0.564472611126675],[0,0.650246181494376,0.5615632269833247],[0,0.6503340426332327,0.5585521782146079],[0,0.6504249739647234,0.5554359122831002],[0,0.6505190827727159,0.5522107525126014],[0,0.6506164800899724,0.548872893750268],[0,0.6507172808291501,0.5454183978771652],[0,0.6508216039183787,0.54184318916194],[0,0.6509295724415758,0.538143049452136],[0,0.6510413137836656,0.5343136131974735],[0,0.651156959780872,0.5303503622992256],[0,0.6512766468762633,0.5262486207796121],[0,0.6514005162807327,0.5220035492649221],[0,0.6515287141396031,0.5176101392758571],[0,0.651661391705055,0.5130632073183574],[0,0.6517987055145783,0.5083573887679398],[0,0.6519408175756611,0.5034871315403318],[0,0.6520878955569313,0.49844668954093435],[0,0.6522401129859775,0.49323011588538496],[0,0.6523976494540835,0.4878312558832214],[0,0.6525606908281154,0.48224373977636953],[0,0.652729429469814,0.47646097522388664],[0,0.65290406446275,0.4704761395240941],[0,0.6530848018472086,0.46428217156492274],[0,0.6532718548632839,0.45787176349297326],[0,0.653465444202466,0.4512373520914631],[0,0.6536657982680208,0.4443711098568868],[0,0.6538731534444678,0.4372649357638622],[0,0.6540877543764743,0.42991044570726566],[0,0.6543098542574957,0.4222989626103809],[0,0.6545397151285016,0.41442150618738954],[0,0.654777608187141,0.40626878234812547],[0,0.6550238141077102,0.3978311722325921],[0,0.6552786233723014,0.38909872086230546],[0,0.6555423366135241,0.38006112539507275],[0,0.6558152649692014,0.37070772296934995],[0,0.6560977304494605,0.3610274781238363],[0,0.656390066316652,0.35100896977746276],[0,0.6566926174785432,0.34064037775441364],[0,0.6570057408952528,0.3299094688382821],[0,0.6573298060004039,0.31880358233890677],[0,0.6576651951369947,0.3073096151548604],[0,0.6580123040084997,0.2954140063139663],[0,0.6583715421457339,0.28310272097360384],[0,0.6587433333900312,0.2703612338619251],[0,0.6591281163933069,0.2571745121404468]]'
p45
sS'f1EstimationHistory'
p46
S'[[0.32,0.55,0.85]]'
p47
sS'trueParameters'
p48
(lp49
F0.393
aF0.651
aF0.946
asS'f2EstimationHistory'
p50
S'[[0.94,0.97,1.0]]'
p51
sS'l1TypeProbHistory'
p52
(lp53
F0.25
aF0.047619047619047616
aF0.19354838709677413
aF0.19354838709677413
aF0.5353159851301115
aF0.8468512619456015
aF0.9636919215977878
aF0.5702813453975412
aF0.8643166159825908
aF0.24156523461238996
aF0.015675610022835056
aF0.015675610022835056
aF0.015675610022835056
aF0.015675610022835056
aF0.0007956288706459496
aF0.003807507001617
aF0.018015377637099483
aF0.08093324908458391
aF0.00438371103227462
aF0.020697039560423645
aF0.09210207665811113
aF0.32747698761426963
aF0.7003567764284201
aF0.9181605820367078
aF0.9817689392309091
aF0.9961462413373139
aF0.9991946766571753
aF0.999832117270339
aF0.9999650197821992
aF0.9999650197821992
aF0.9999650197821992
aF0.9993008603090983
aF0.9862005137839919
aF0.9862005137839919
aF0.7813406283868054
aF0.7813406283868054
aF0.7813406283868054
aF0.7813406283868054
aF0.7813406283868054
aF0.15158334947315633
aF0.46167027579422776
aF0.4616702757942278
aF0.46167027579422787
aF0.46167027579422787
aF0.041116796376463594
aF0.17069117960217361
aF0.010186341731846408
aF0.04707235880769358
assa.